TN:
SF:/Users/dogukanarat/Desktop/Workspace/RocketLab/Assessments/Conversion/Conversion.c
FN:14,search_lut
FNDA:11,search_lut
FN:62,normalize
FNDA:4,normalize
FN:77,get_pressure
FNDA:2,get_pressure
DA:14,11
DA:18,11
DA:21,11
DA:22,11
DA:23,11
DA:26,11
DA:27,10
DA:29,66
DA:32,59
DA:35,59
DA:39,2
DA:42,57
DA:44,29
DA:45,29
DA:49,28
DA:55,7
DA:57,7
DA:59,9
DA:60,11
DA:62,4
DA:64,4
DA:67,4
DA:70,4
DA:71,4
DA:74,4
DA:77,2
DA:79,2
DA:82,2
DA:85,2
DA:88,2
DA:90,0
DA:91,0
DA:98,2
DA:99,2
DA:100,2
DA:101,2
DA:105,4
DA:106,2
DA:109,2
DA:112,2
FNF:3
FNH:3
LF:40
LH:38
end_of_record
TN:
SF:/Library/Developer/CommandLineTools/SDKs/MacOSX12.3.sdk/usr/include/c++/v1/__iterator/advance.h
FN:54,_ZNSt3__1L9__advanceINS_11__wrap_iterIPiEEEEvRT_NS_15iterator_traitsIS4_E15difference_typeENS_26random_access_iterator_tagE
FNDA:0,_ZNSt3__1L9__advanceINS_11__wrap_iterIPiEEEEvRT_NS_15iterator_traitsIS4_E15difference_typeENS_26random_access_iterator_tagE
FN:63,_ZNSt3__1L7advanceINS_11__wrap_iterIPiEEmmvEEvRT_T0_
FNDA:0,_ZNSt3__1L7advanceINS_11__wrap_iterIPiEEmmvEEvRT_T0_
DA:54,0
DA:55,0
DA:56,0
DA:63,0
DA:65,0
DA:68,0
DA:69,0
FNF:2
FNH:0
LF:7
LH:0
end_of_record
SF:/Library/Developer/CommandLineTools/SDKs/MacOSX12.3.sdk/usr/include/c++/v1/__algorithm/copy.h
FN:55,_ZNSt3__1L6__copyIiiEENS_9enable_ifIXaasr7is_sameINS_12remove_constIT_E4typeET0_EE5valuesr28is_trivially_copy_assignableIS6_EE5valueEPS6_E4typeEPS3_SA_S7_
FNDA:3,_ZNSt3__1L6__copyIiiEENS_9enable_ifIXaasr7is_sameINS_12remove_constIT_E4typeET0_EE5valuesr28is_trivially_copy_assignableIS6_EE5valueEPS6_E4typeEPS3_SA_S7_
FN:66,_ZNSt3__1L4copyINS_11__wrap_iterIPiEES2_EET0_T_S5_S4_
FNDA:3,_ZNSt3__1L4copyINS_11__wrap_iterIPiEES2_EET0_T_S5_S4_
DA:55,3
DA:57,3
DA:58,3
DA:59,3
DA:60,3
DA:66,3
DA:71,6
DA:72,6
DA:73,3
DA:74,3
FNF:2
FNH:2
LF:10
LH:10
end_of_record
SF:/Library/Developer/CommandLineTools/SDKs/MacOSX12.3.sdk/usr/include/c++/v1/vector
FN:308,_ZNSt3__120__vector_base_commonILb1EEC2Ev
FNDA:368,_ZNSt3__120__vector_base_commonILb1EEC2Ev
FN:352,_ZNSt3__113__vector_baseIiNS_9allocatorIiEEE7__allocEv
FNDA:108858,_ZNSt3__113__vector_baseIiNS_9allocatorIiEEE7__allocEv
FN:355,_ZNKSt3__113__vector_baseIiNS_9allocatorIiEEE7__allocEv
FNDA:0,_ZNKSt3__113__vector_baseIiNS_9allocatorIiEEE7__allocEv
FN:358,_ZNSt3__113__vector_baseIiNS_9allocatorIiEEE9__end_capEv
FNDA:108508,_ZNSt3__113__vector_baseIiNS_9allocatorIiEEE9__end_capEv
FN:361,_ZNKSt3__113__vector_baseIiNS_9allocatorIiEEE9__end_capEv
FNDA:4618,_ZNKSt3__113__vector_baseIiNS_9allocatorIiEEE9__end_capEv
FN:374,_ZNSt3__113__vector_baseIiNS_9allocatorIiEEE5clearEv
FNDA:0,_ZNSt3__113__vector_baseIiNS_9allocatorIiEEE5clearEv
FN:376,_ZNKSt3__113__vector_baseIiNS_9allocatorIiEEE8capacityEv
FNDA:4618,_ZNKSt3__113__vector_baseIiNS_9allocatorIiEEE8capacityEv
FN:396,_ZNKSt3__113__vector_baseIiNS_9allocatorIiEEE20__throw_length_errorEv
FNDA:0,_ZNKSt3__113__vector_baseIiNS_9allocatorIiEEE20__throw_length_errorEv
FN:446,_ZNSt3__113__vector_baseIiNS_9allocatorIiEEE17__destruct_at_endEPi
FNDA:3,_ZNSt3__113__vector_baseIiNS_9allocatorIiEEE17__destruct_at_endEPi
FN:456,_ZNSt3__113__vector_baseIiNS_9allocatorIiEEEC2Ev
FNDA:368,_ZNSt3__113__vector_baseIiNS_9allocatorIiEEEC2Ev
FN:483,_ZNSt3__113__vector_baseIiNS_9allocatorIiEEED2Ev
FNDA:0,_ZNSt3__113__vector_baseIiNS_9allocatorIiEEED2Ev
FN:519,_ZNSt3__16vectorIiNS_9allocatorIiEEEC1Ev
FNDA:368,_ZNSt3__16vectorIiNS_9allocatorIiEEEC1Ev
FN:519,_ZNSt3__16vectorIiNS_9allocatorIiEEEC2Ev
FNDA:368,_ZNSt3__16vectorIiNS_9allocatorIiEEEC2Ev
FN:573,_ZNSt3__16vectorIiNS_9allocatorIiEEED1Ev
FNDA:353,_ZNSt3__16vectorIiNS_9allocatorIiEEED1Ev
FN:573,_ZNSt3__16vectorIiNS_9allocatorIiEEED2Ev
FNDA:353,_ZNSt3__16vectorIiNS_9allocatorIiEEED2Ev
FN:653,_ZNSt3__16vectorIiNS_9allocatorIiEEE6rbeginEv
FNDA:7,_ZNSt3__16vectorIiNS_9allocatorIiEEE6rbeginEv
FN:659,_ZNSt3__16vectorIiNS_9allocatorIiEEE4rendEv
FNDA:729,_ZNSt3__16vectorIiNS_9allocatorIiEEE4rendEv
FN:679,_ZNKSt3__16vectorIiNS_9allocatorIiEEE4sizeEv
FNDA:6783,_ZNKSt3__16vectorIiNS_9allocatorIiEEE4sizeEv
FN:682,_ZNKSt3__16vectorIiNS_9allocatorIiEEE8capacityEv
FNDA:4618,_ZNKSt3__16vectorIiNS_9allocatorIiEEE8capacityEv
FN:721,_ZNKSt3__16vectorIiNS_9allocatorIiEEE4dataEv
FNDA:1424,_ZNKSt3__16vectorIiNS_9allocatorIiEEE4dataEv
FN:793,_ZNSt3__16vectorIiNS_9allocatorIiEEE5clearEv
FNDA:0,_ZNSt3__16vectorIiNS_9allocatorIiEEE5clearEv
FN:853,_ZNSt3__16vectorIiNS_9allocatorIiEEE17__destruct_at_endEPi
FNDA:3,_ZNSt3__16vectorIiNS_9allocatorIiEEE17__destruct_at_endEPi
FN:890,_ZNKSt3__16vectorIiNS_9allocatorIiEEE31__annotate_contiguous_containerEPKvS5_S5_S5_
FNDA:356,_ZNKSt3__16vectorIiNS_9allocatorIiEEE31__annotate_contiguous_containerEPKvS5_S5_S5_
FN:894,_ZNKSt3__16vectorIiNS_9allocatorIiEEE14__annotate_newEm
FNDA:0,_ZNKSt3__16vectorIiNS_9allocatorIiEEE14__annotate_newEm
FN:900,_ZNKSt3__16vectorIiNS_9allocatorIiEEE17__annotate_deleteEv
FNDA:353,_ZNKSt3__16vectorIiNS_9allocatorIiEEE17__annotate_deleteEv
FN:913,_ZNKSt3__16vectorIiNS_9allocatorIiEEE17__annotate_shrinkEm
FNDA:3,_ZNKSt3__16vectorIiNS_9allocatorIiEEE17__annotate_shrinkEm
FN:920,_ZNSt3__16vectorIiNS_9allocatorIiEEE21_ConstructTransactionC1ERS3_m
FNDA:0,_ZNSt3__16vectorIiNS_9allocatorIiEEE21_ConstructTransactionC1ERS3_m
FN:920,_ZNSt3__16vectorIiNS_9allocatorIiEEE21_ConstructTransactionC2ERS3_m
FNDA:0,_ZNSt3__16vectorIiNS_9allocatorIiEEE21_ConstructTransactionC2ERS3_m
FN:926,_ZNSt3__16vectorIiNS_9allocatorIiEEE21_ConstructTransactionD1Ev
FNDA:0,_ZNSt3__16vectorIiNS_9allocatorIiEEE21_ConstructTransactionD1Ev
FN:926,_ZNSt3__16vectorIiNS_9allocatorIiEEE21_ConstructTransactionD2Ev
FNDA:0,_ZNSt3__16vectorIiNS_9allocatorIiEEE21_ConstructTransactionD2Ev
FN:946,_ZNSt3__16vectorIiNS_9allocatorIiEEE22__construct_one_at_endIJiEEEvDpOT_
FNDA:105302,_ZNSt3__16vectorIiNS_9allocatorIiEEE22__construct_one_at_endIJiEEEvDpOT_
FN:972,_ZNSt3__16vectorIiNS_9allocatorIiEEE26__swap_out_circular_bufferERNS_14__split_bufferIiRS2_EE
FNDA:0,_ZNSt3__16vectorIiNS_9allocatorIiEEE26__swap_out_circular_bufferERNS_14__split_bufferIiRS2_EE
FN:1011,_ZNSt3__16vectorIiNS_9allocatorIiEEE11__vallocateEm
FNDA:0,_ZNSt3__16vectorIiNS_9allocatorIiEEE11__vallocateEm
FN:1022,_ZNSt3__16vectorIiNS_9allocatorIiEEE13__vdeallocateEv
FNDA:0,_ZNSt3__16vectorIiNS_9allocatorIiEEE13__vdeallocateEv
FN:1034,_ZNKSt3__16vectorIiNS_9allocatorIiEEE8max_sizeEv
FNDA:0,_ZNKSt3__16vectorIiNS_9allocatorIiEEE8max_sizeEv
FN:1044,_ZNKSt3__16vectorIiNS_9allocatorIiEEE11__recommendEm
FNDA:3556,_ZNKSt3__16vectorIiNS_9allocatorIiEEE11__recommendEm
FN:1096,_ZNSt3__16vectorIiNS_9allocatorIiEEE18__construct_at_endINS_11__wrap_iterIPiEEEENS_9enable_ifIXsr27__is_cpp17_forward_iteratorIT_EE5valueEvE4typeES9_S9_m
FNDA:350,_ZNSt3__16vectorIiNS_9allocatorIiEEE18__construct_at_endINS_11__wrap_iterIPiEEEENS_9enable_ifIXsr27__is_cpp17_forward_iteratorIT_EE5valueEvE4typeES9_S9_m
FN:1460,_ZNSt3__16vectorIiNS_9allocatorIiEEE6assignINS_11__wrap_iterIPiEEEENS_9enable_ifIXaasr27__is_cpp17_forward_iteratorIT_EE5valuesr16is_constructibleIiNS_15iterator_traitsIS9_E9referenceEEE5valueEvE4typeES9_S9_
FNDA:353,_ZNSt3__16vectorIiNS_9allocatorIiEEE6assignINS_11__wrap_iterIPiEEEENS_9enable_ifIXaasr27__is_cpp17_forward_iteratorIT_EE5valuesr16is_constructibleIiNS_15iterator_traitsIS9_E9referenceEEE5valueEvE4typeES9_S9_
FN:1513,_ZNSt3__16vectorIiNS_9allocatorIiEEE11__make_iterEPi
FNDA:1442,_ZNSt3__16vectorIiNS_9allocatorIiEEE11__make_iterEPi
FN:1537,_ZNSt3__16vectorIiNS_9allocatorIiEEE5beginEv
FNDA:1082,_ZNSt3__16vectorIiNS_9allocatorIiEEE5beginEv
FN:1553,_ZNSt3__16vectorIiNS_9allocatorIiEEE3endEv
FNDA:360,_ZNSt3__16vectorIiNS_9allocatorIiEEE3endEv
FN:1569,_ZNSt3__16vectorIiNS_9allocatorIiEEEixEm
FNDA:107784,_ZNSt3__16vectorIiNS_9allocatorIiEEEixEm
FN:1640,_ZNSt3__16vectorIiNS_9allocatorIiEEE21__push_back_slow_pathIiEEvOT_
FNDA:3206,_ZNSt3__16vectorIiNS_9allocatorIiEEE21__push_back_slow_pathIiEEvOT_
FN:1671,_ZNSt3__16vectorIiNS_9allocatorIiEEE9push_backEOi
FNDA:108508,_ZNSt3__16vectorIiNS_9allocatorIiEEE9push_backEOi
FN:2144,_ZNSt3__16vectorIiNS_9allocatorIiEEE26__invalidate_all_iteratorsEv
FNDA:353,_ZNSt3__16vectorIiNS_9allocatorIiEEE26__invalidate_all_iteratorsEv
FN:2155,_ZNSt3__16vectorIiNS_9allocatorIiEEE27__invalidate_iterators_pastEPi
FNDA:3,_ZNSt3__16vectorIiNS_9allocatorIiEEE27__invalidate_iterators_pastEPi
DA:308,368
DA:352,108858
DA:353,108858
DA:355,0
DA:356,0
DA:358,108508
DA:359,108508
DA:361,4618
DA:362,4618
DA:365,368
DA:374,0
DA:376,4618
DA:377,4618
DA:396,0
DA:398,0
DA:446,3
DA:448,3
DA:449,3
DA:450,0
DA:451,3
DA:452,3
DA:456,368
DA:458,368
DA:459,368
DA:460,368
DA:461,368
DA:462,368
DA:483,0
DA:485,0
DA:487,0
DA:488,0
DA:489,0
DA:490,0
DA:519,1104
DA:520,736
DA:524,736
DA:573,706
DA:574,353
DA:575,353
DA:579,706
DA:653,7
DA:654,7
DA:659,729
DA:660,729
DA:679,6783
DA:680,6783
DA:682,4618
DA:683,4618
DA:721,1424
DA:722,1424
DA:793,0
DA:795,0
DA:796,0
DA:797,0
DA:798,0
DA:799,0
DA:853,3
DA:855,3
DA:856,3
DA:857,3
DA:858,3
DA:859,3
DA:890,356
DA:891,356
DA:894,0
DA:895,0
DA:896,0
DA:897,0
DA:900,353
DA:901,706
DA:902,353
DA:903,353
DA:913,3
DA:915,6
DA:916,3
DA:917,3
DA:920,0
DA:921,0
DA:925,0
DA:926,0
DA:927,0
DA:933,0
DA:946,105302
DA:947,105302
DA:948,210604
DA:949,105302
DA:950,105302
DA:951,105302
DA:972,0
DA:975,0
DA:976,0
DA:977,0
DA:978,0
DA:979,0
DA:980,0
DA:981,0
DA:982,0
DA:983,0
DA:1011,0
DA:1013,0
DA:1014,0
DA:1015,0
DA:1016,0
DA:1017,0
DA:1018,0
DA:1022,0
DA:1024,0
DA:1026,0
DA:1027,0
DA:1028,0
DA:1029,0
DA:1030,0
DA:1034,0
DA:1036,0
DA:1037,0
DA:1044,3556
DA:1046,3556
DA:1047,3556
DA:1048,0
DA:1049,3556
DA:1050,3556
DA:1051,0
DA:1052,3556
DA:1053,3556
DA:1096,350
DA:1098,350
DA:1099,350
DA:1100,350
DA:1460,353
DA:1462,353
DA:1463,353
DA:1465,3
DA:1466,3
DA:1467,3
DA:1469,0
DA:1470,0
DA:1471,0
DA:1472,0
DA:1473,3
DA:1474,3
DA:1475,0
DA:1477,3
DA:1478,3
DA:1481,350
DA:1482,350
DA:1483,350
DA:1485,353
DA:1486,353
DA:1513,1442
DA:1518,1442
DA:1537,1082
DA:1539,1082
DA:1553,360
DA:1555,360
DA:1569,107784
DA:1572,107784
DA:1640,3206
DA:1645,3206
DA:1646,3206
DA:1648,3206
DA:1649,3206
DA:1650,3206
DA:1651,3206
DA:1671,108508
DA:1673,108508
DA:1675,105302
DA:1676,105302
DA:1678,3206
DA:1679,108508
DA:2144,353
DA:2149,353
DA:2155,3
DA:2171,3
FNF:46
FNH:32
LF:173
LH:111
end_of_record
SF:/Library/Developer/CommandLineTools/SDKs/MacOSX12.3.sdk/usr/include/c++/v1/new
FN:223,_ZNSt3__1L24__is_overaligned_for_newEm
FNDA:0,_ZNSt3__1L24__is_overaligned_for_newEm
FN:233,_ZNSt3__1L21__libcpp_operator_newIJmSt11align_val_tEEEPvDpT_
FNDA:0,_ZNSt3__1L21__libcpp_operator_newIJmSt11align_val_tEEEPvDpT_
FN:233,_ZNSt3__1L21__libcpp_operator_newIJmEEEPvDpT_
FNDA:0,_ZNSt3__1L21__libcpp_operator_newIJmEEEPvDpT_
FN:243,_ZNSt3__1L24__libcpp_operator_deleteIJPvSt11align_val_tEEEvDpT_
FNDA:0,_ZNSt3__1L24__libcpp_operator_deleteIJPvSt11align_val_tEEEvDpT_
FN:243,_ZNSt3__1L24__libcpp_operator_deleteIJPvEEEvDpT_
FNDA:0,_ZNSt3__1L24__libcpp_operator_deleteIJPvEEEvDpT_
FN:252,_ZNSt3__1L17__libcpp_allocateEmm
FNDA:0,_ZNSt3__1L17__libcpp_allocateEmm
FN:266,_ZNSt3__1L27__do_deallocate_handle_sizeIJSt11align_val_tEEEvPvmDpT_
FNDA:0,_ZNSt3__1L27__do_deallocate_handle_sizeIJSt11align_val_tEEEvPvmDpT_
FN:266,_ZNSt3__1L27__do_deallocate_handle_sizeIJEEEvPvmDpT_
FNDA:0,_ZNSt3__1L27__do_deallocate_handle_sizeIJEEEvPvmDpT_
FN:276,_ZNSt3__1L19__libcpp_deallocateEPvmm
FNDA:0,_ZNSt3__1L19__libcpp_deallocateEPvmm
DA:223,0
DA:225,0
DA:233,0
DA:235,0
DA:243,0
DA:245,0
DA:249,0
DA:252,0
DA:254,0
DA:255,0
DA:256,0
DA:261,0
DA:262,0
DA:266,0
DA:269,0
DA:276,0
DA:281,0
DA:282,0
DA:283,0
DA:285,0
DA:288,0
FNF:9
FNH:0
LF:21
LH:0
end_of_record
SF:/Library/Developer/CommandLineTools/SDKs/MacOSX12.3.sdk/usr/include/c++/v1/type_traits
FN:4326,_ZNSt3__1L21__convert_to_integralEm
FNDA:0,_ZNSt3__1L21__convert_to_integralEm
DA:4326,0
FNF:1
FNH:0
LF:1
LH:0
end_of_record
SF:/Library/Developer/CommandLineTools/SDKs/MacOSX12.3.sdk/usr/include/c++/v1/__algorithm/reverse.h
FN:42,_ZNSt3__1L9__reverseINS_11__wrap_iterIPcEEEEvT_S4_NS_26random_access_iterator_tagE
FNDA:8,_ZNSt3__1L9__reverseINS_11__wrap_iterIPcEEEEvT_S4_NS_26random_access_iterator_tagE
FN:52,_ZNSt3__1L7reverseINS_11__wrap_iterIPcEEEEvT_S4_
FNDA:8,_ZNSt3__1L7reverseINS_11__wrap_iterIPcEEEEvT_S4_
DA:42,8
DA:44,8
DA:45,16
DA:46,16
DA:47,8
DA:52,8
DA:54,8
DA:55,8
FNF:2
FNH:2
LF:8
LH:8
end_of_record
SF:/Library/Developer/CommandLineTools/SDKs/MacOSX12.3.sdk/usr/include/c++/v1/__utility/swap.h
FN:36,_ZNSt3__1L4swapIcEENS_9enable_ifIXaasr21is_move_constructibleIT_EE5valuesr18is_move_assignableIS2_EE5valueEvE4typeERS2_S5_
FNDA:8,_ZNSt3__1L4swapIcEENS_9enable_ifIXaasr21is_move_constructibleIT_EE5valuesr18is_move_assignableIS2_EE5valueEvE4typeERS2_S5_
FN:36,_ZNSt3__1L4swapIPiEENS_9enable_ifIXaasr21is_move_constructibleIT_EE5valuesr18is_move_assignableIS3_EE5valueEvE4typeERS3_S6_
FNDA:0,_ZNSt3__1L4swapIPiEENS_9enable_ifIXaasr21is_move_constructibleIT_EE5valuesr18is_move_assignableIS3_EE5valueEvE4typeERS3_S6_
DA:36,8
DA:38,8
DA:39,8
DA:40,8
DA:41,8
FNF:2
FNH:1
LF:5
LH:5
end_of_record
SF:/Library/Developer/CommandLineTools/SDKs/MacOSX12.3.sdk/usr/include/c++/v1/__split_buffer
FN:57,_ZNSt3__114__split_bufferIiRNS_9allocatorIiEEE7__allocEv
FNDA:0,_ZNSt3__114__split_bufferIiRNS_9allocatorIiEEE7__allocEv
FN:59,_ZNSt3__114__split_bufferIiRNS_9allocatorIiEEE9__end_capEv
FNDA:0,_ZNSt3__114__split_bufferIiRNS_9allocatorIiEEE9__end_capEv
FN:60,_ZNKSt3__114__split_bufferIiRNS_9allocatorIiEEE9__end_capEv
FNDA:0,_ZNKSt3__114__split_bufferIiRNS_9allocatorIiEEE9__end_capEv
FN:86,_ZNSt3__114__split_bufferIiRNS_9allocatorIiEEE5clearEv
FNDA:0,_ZNSt3__114__split_bufferIiRNS_9allocatorIiEEE5clearEv
FN:90,_ZNKSt3__114__split_bufferIiRNS_9allocatorIiEEE8capacityEv
FNDA:0,_ZNKSt3__114__split_bufferIiRNS_9allocatorIiEEE8capacityEv
FN:137,_ZNSt3__114__split_bufferIiRNS_9allocatorIiEEE17__destruct_at_endEPi
FNDA:0,_ZNSt3__114__split_bufferIiRNS_9allocatorIiEEE17__destruct_at_endEPi
FN:297,_ZNSt3__114__split_bufferIiRNS_9allocatorIiEEE17__destruct_at_endEPiNS_17integral_constantIbLb0EEE
FNDA:0,_ZNSt3__114__split_bufferIiRNS_9allocatorIiEEE17__destruct_at_endEPiNS_17integral_constantIbLb0EEE
FN:312,_ZNSt3__114__split_bufferIiRNS_9allocatorIiEEEC1EmmS3_
FNDA:0,_ZNSt3__114__split_bufferIiRNS_9allocatorIiEEEC1EmmS3_
FN:312,_ZNSt3__114__split_bufferIiRNS_9allocatorIiEEEC2EmmS3_
FNDA:0,_ZNSt3__114__split_bufferIiRNS_9allocatorIiEEEC2EmmS3_
FN:343,_ZNSt3__114__split_bufferIiRNS_9allocatorIiEEED1Ev
FNDA:0,_ZNSt3__114__split_bufferIiRNS_9allocatorIiEEED1Ev
FN:343,_ZNSt3__114__split_bufferIiRNS_9allocatorIiEEED2Ev
FNDA:0,_ZNSt3__114__split_bufferIiRNS_9allocatorIiEEED2Ev
DA:57,0
DA:59,0
DA:60,0
DA:86,0
DA:87,0
DA:90,0
DA:137,0
DA:138,0
DA:297,0
DA:299,0
DA:300,0
DA:301,0
DA:312,0
DA:313,0
DA:314,0
DA:315,0
DA:316,0
DA:317,0
DA:318,0
DA:343,0
DA:344,0
DA:345,0
DA:346,0
DA:347,0
DA:348,0
FNF:11
FNH:0
LF:25
LH:0
end_of_record
SF:/Library/Developer/CommandLineTools/SDKs/MacOSX12.3.sdk/usr/include/c++/v1/__memory/pointer_traits.h
FN:152,_ZNSt3__114pointer_traitsIPcE10pointer_toERc
FNDA:44,_ZNSt3__114pointer_traitsIPcE10pointer_toERc
FN:152,_ZNSt3__114pointer_traitsIPKcE10pointer_toERS1_
FNDA:722,_ZNSt3__114pointer_traitsIPKcE10pointer_toERS1_
FN:173,_ZNSt3__1L12__to_addressIiEEPT_S2_
FNDA:218420,_ZNSt3__1L12__to_addressIiEEPT_S2_
FN:173,_ZNSt3__1L12__to_addressIKcEEPT_S3_
FNDA:722,_ZNSt3__1L12__to_addressIKcEEPT_S3_
DA:152,766
DA:154,766
DA:173,219142
DA:175,219142
FNF:4
FNH:4
LF:4
LH:4
end_of_record
SF:/Library/Developer/CommandLineTools/SDKs/MacOSX12.3.sdk/usr/include/c++/v1/__algorithm/max.h
FN:30,_ZNSt3__1L3maxImNS_6__lessImmEEEERKT_S5_S5_T0_
FNDA:3556,_ZNSt3__1L3maxImNS_6__lessImmEEEERKT_S5_S5_T0_
FN:39,_ZNSt3__1L3maxImEERKT_S3_S3_
FNDA:3556,_ZNSt3__1L3maxImEERKT_S3_S3_
DA:30,3556
DA:32,3556
DA:39,3556
DA:41,3556
FNF:2
FNH:2
LF:4
LH:4
end_of_record
SF:/Library/Developer/CommandLineTools/SDKs/MacOSX12.3.sdk/usr/include/c++/v1/__iterator/reverse_iterator.h
FN:79,_ZNSt3__116reverse_iteratorINS_11__wrap_iterIPiEEEC1ES3_
FNDA:736,_ZNSt3__116reverse_iteratorINS_11__wrap_iterIPiEEEC1ES3_
FN:79,_ZNSt3__116reverse_iteratorINS_11__wrap_iterIPiEEEC2ES3_
FNDA:736,_ZNSt3__116reverse_iteratorINS_11__wrap_iterIPiEEEC2ES3_
FN:126,_ZNKSt3__116reverse_iteratorINS_11__wrap_iterIPiEEE4baseEv
FNDA:1458,_ZNKSt3__116reverse_iteratorINS_11__wrap_iterIPiEEE4baseEv
FN:128,_ZNKSt3__116reverse_iteratorINS_11__wrap_iterIPiEEEdeEv
FNDA:722,_ZNKSt3__116reverse_iteratorINS_11__wrap_iterIPiEEEdeEv
FN:132,_ZNSt3__116reverse_iteratorINS_11__wrap_iterIPiEEEppEv
FNDA:722,_ZNSt3__116reverse_iteratorINS_11__wrap_iterIPiEEEppEv
FN:170,_ZNSt3__1neINS_11__wrap_iterIPiEES3_EEbRKNS_16reverse_iteratorIT_EERKNS4_IT0_EE
FNDA:729,_ZNSt3__1neINS_11__wrap_iterIPiEES3_EEbRKNS_16reverse_iteratorIT_EERKNS4_IT0_EE
DA:79,1472
DA:126,1458
DA:128,722
DA:132,722
DA:170,729
DA:172,729
FNF:6
FNH:6
LF:6
LH:6
end_of_record
SF:/Library/Developer/CommandLineTools/SDKs/MacOSX12.3.sdk/usr/include/c++/v1/__algorithm/comp.h
FN:76,_ZNKSt3__16__lessImmEclERKmS3_
FNDA:3556,_ZNKSt3__16__lessImmEclERKmS3_
DA:76,3556
FNF:1
FNH:1
LF:1
LH:1
end_of_record
SF:/Library/Developer/CommandLineTools/SDKs/MacOSX12.3.sdk/usr/include/c++/v1/__utility/move.h
FN:27,_ZNSt3__1L4moveIRcEEONS_16remove_referenceIT_E4typeEOS3_
FNDA:24,_ZNSt3__1L4moveIRcEEONS_16remove_referenceIT_E4typeEOS3_
FN:27,_ZNSt3__1L4moveIRiEEONS_16remove_referenceIT_E4typeEOS3_
FNDA:108508,_ZNSt3__1L4moveIRiEEONS_16remove_referenceIT_E4typeEOS3_
FN:27,_ZNSt3__1L4moveIRPiEEONS_16remove_referenceIT_E4typeEOS4_
FNDA:0,_ZNSt3__1L4moveIRPiEEONS_16remove_referenceIT_E4typeEOS4_
DA:27,108532
DA:29,108532
FNF:3
FNH:2
LF:2
LH:2
end_of_record
SF:/Users/dogukanarat/Desktop/Workspace/RocketLab/Assessments/LargeExponent/LargeExponent.cpp
FN:17,_ZN9RocketLab13LargeExponentC2Ev
FNDA:15,_ZN9RocketLab13LargeExponentC2Ev
FN:17,_ZN9RocketLab13LargeExponentC1Ev
FNDA:0,_ZN9RocketLab13LargeExponentC1Ev
FN:25,_ZN9RocketLab13LargeExponent7isDigitENSt3__112basic_stringIcNS1_11char_traitsIcEENS1_9allocatorIcEEEE
FNDA:15,_ZN9RocketLab13LargeExponent7isDigitENSt3__112basic_stringIcNS1_11char_traitsIcEENS1_9allocatorIcEEEE
FN:37,_ZZN9RocketLab13LargeExponent7isDigitENSt3__112basic_stringIcNS1_11char_traitsIcEENS1_9allocatorIcEEEEENK3$_0clEc
FNDA:31,_ZZN9RocketLab13LargeExponent7isDigitENSt3__112basic_stringIcNS1_11char_traitsIcEENS1_9allocatorIcEEEEENK3$_0clEc
FN:45,_ZN9RocketLab13LargeExponent7reverseENSt3__112basic_stringIcNS1_11char_traitsIcEENS1_9allocatorIcEEEE
FNDA:8,_ZN9RocketLab13LargeExponent7reverseENSt3__112basic_stringIcNS1_11char_traitsIcEENS1_9allocatorIcEEEE
FN:56,_ZN9RocketLab13LargeExponent5inputENSt3__112basic_stringIcNS1_11char_traitsIcEENS1_9allocatorIcEEEE
FNDA:6,_ZN9RocketLab13LargeExponent5inputENSt3__112basic_stringIcNS1_11char_traitsIcEENS1_9allocatorIcEEEE
FN:94,_ZN9RocketLab13LargeExponent16initialiseBufferEv
FNDA:7,_ZN9RocketLab13LargeExponent16initialiseBufferEv
FN:112,_ZN9RocketLab13LargeExponent14finaliseBufferEv
FNDA:7,_ZN9RocketLab13LargeExponent14finaliseBufferEv
FN:126,_ZN9RocketLab13LargeExponent15calculateBufferEv
FNDA:7,_ZN9RocketLab13LargeExponent15calculateBufferEv
FN:136,_ZN9RocketLab13LargeExponent9calculateEv
FNDA:5,_ZN9RocketLab13LargeExponent9calculateEv
FN:162,_ZN9RocketLab13LargeExponent6outputERNSt3__112basic_stringIcNS1_11char_traitsIcEENS1_9allocatorIcEEEE
FNDA:2,_ZN9RocketLab13LargeExponent6outputERNSt3__112basic_stringIcNS1_11char_traitsIcEENS1_9allocatorIcEEEE
FN:180,_ZN9RocketLab13LargeExponent8multiplyEiRNSt3__16vectorIiNS1_9allocatorIiEEEEi
FNDA:353,_ZN9RocketLab13LargeExponent8multiplyEiRNSt3__16vectorIiNS1_9allocatorIiEEEEi
DA:17,30
DA:18,15
DA:19,15
DA:20,15
DA:21,15
DA:23,15
DA:25,15
DA:27,15
DA:29,15
DA:32,1
DA:33,1
DA:37,45
DA:39,31
DA:42,15
DA:45,8
DA:48,8
DA:51,8
DA:53,8
DA:54,8
DA:56,6
DA:58,6
DA:60,6
DA:63,6
DA:68,6
DA:71,4
DA:74,4
DA:77,4
DA:79,4
DA:80,4
DA:83,2
DA:85,6
DA:88,0
DA:91,6
DA:92,0
DA:94,7
DA:97,7
DA:99,28
DA:102,21
DA:105,21
DA:106,21
DA:109,7
DA:110,7
DA:112,7
DA:114,7
DA:116,729
DA:119,722
DA:120,722
DA:123,7
DA:124,7
DA:126,7
DA:129,358
DA:132,351
DA:133,351
DA:134,7
DA:136,5
DA:138,5
DA:141,5
DA:144,5
DA:147,5
DA:150,5
DA:152,5
DA:153,5
DA:156,0
DA:159,5
DA:162,2
DA:164,2
DA:166,2
DA:169,2
DA:170,2
DA:171,2
DA:174,0
DA:177,2
DA:180,353
DA:183,353
DA:185,353
DA:187,108137
DA:190,107784
DA:193,107784
DA:196,107784
DA:197,107784
DA:200,1056
DA:203,703
DA:206,703
DA:208,703
DA:213,353
DA:215,353
DA:216,353
FNF:12
FNH:11
LF:87
LH:83
end_of_record
SF:/Users/dogukanarat/Desktop/Workspace/RocketLab/Assessments/LargeExponent/LargeExponent/LargeExponent.h
FN:38,_ZN9RocketLab13LargeExponentD1Ev
FNDA:0,_ZN9RocketLab13LargeExponentD1Ev
FN:38,_ZN9RocketLab13LargeExponentD0Ev
FNDA:0,_ZN9RocketLab13LargeExponentD0Ev
FN:38,_ZN9RocketLab13LargeExponentD2Ev
FNDA:0,_ZN9RocketLab13LargeExponentD2Ev
DA:38,0
FNF:3
FNH:0
LF:1
LH:0
end_of_record
SF:/Library/Developer/CommandLineTools/SDKs/MacOSX12.3.sdk/usr/include/c++/v1/__iterator/distance.h
FN:39,_ZNSt3__1L10__distanceINS_11__wrap_iterIPiEEEENS_15iterator_traitsIT_E15difference_typeES5_S5_NS_26random_access_iterator_tagE
FNDA:353,_ZNSt3__1L10__distanceINS_11__wrap_iterIPiEEEENS_15iterator_traitsIT_E15difference_typeES5_S5_NS_26random_access_iterator_tagE
FN:47,_ZNSt3__1L8distanceINS_11__wrap_iterIPiEEEENS_15iterator_traitsIT_E15difference_typeES5_S5_
FNDA:353,_ZNSt3__1L8distanceINS_11__wrap_iterIPiEEEENS_15iterator_traitsIT_E15difference_typeES5_S5_
DA:39,353
DA:41,353
DA:47,353
DA:49,353
FNF:2
FNH:2
LF:4
LH:4
end_of_record
SF:/Library/Developer/CommandLineTools/SDKs/MacOSX12.3.sdk/usr/include/c++/v1/__algorithm/all_of.h
FN:26,_ZNSt3__1L6all_ofINS_11__wrap_iterIPcEEZN9RocketLab13LargeExponent7isDigitENS_12basic_stringIcNS_11char_traitsIcEENS_9allocatorIcEEEEE3$_0EEbT_SD_T0_
FNDA:14,_ZNSt3__1L6all_ofINS_11__wrap_iterIPcEEZN9RocketLab13LargeExponent7isDigitENS_12basic_stringIcNS_11char_traitsIcEENS_9allocatorIcEEEEE3$_0EEbT_SD_T0_
DA:26,14
DA:27,40
DA:28,31
DA:29,5
DA:30,9
DA:31,14
FNF:1
FNH:1
LF:6
LH:6
end_of_record
SF:/Library/Developer/CommandLineTools/SDKs/MacOSX12.3.sdk/usr/include/c++/v1/__algorithm/unwrap_iter.h
FN:54,_ZNSt3__118__unwrap_iter_implINS_11__wrap_iterIPiEELb1EE7__applyES3_
FNDA:6,_ZNSt3__118__unwrap_iter_implINS_11__wrap_iterIPiEELb1EE7__applyES3_
FN:54,_ZNSt3__118__unwrap_iter_implIPiLb1EE7__applyES1_
FNDA:0,_ZNSt3__118__unwrap_iter_implIPiLb1EE7__applyES1_
FN:64,_ZNSt3__1L13__unwrap_iterINS_11__wrap_iterIPiEENS_18__unwrap_iter_implIS3_Lb1EEEEEDTclsrT0_7__applycl7declvalIT_EEEES7_
FNDA:6,_ZNSt3__1L13__unwrap_iterINS_11__wrap_iterIPiEENS_18__unwrap_iter_implIS3_Lb1EEEEEDTclsrT0_7__applycl7declvalIT_EEEES7_
FN:64,_ZNSt3__1L13__unwrap_iterIPiNS_18__unwrap_iter_implIS1_Lb1EEEEEDTclsrT0_7__applycl7declvalIT_EEEES5_
FNDA:3,_ZNSt3__1L13__unwrap_iterIPiNS_18__unwrap_iter_implIS1_Lb1EEEEEDTclsrT0_7__applycl7declvalIT_EEEES5_
FN:71,_ZNSt3__1L13__rewrap_iterIPiEET_S2_S2_
FNDA:3,_ZNSt3__1L13__rewrap_iterIPiEET_S2_S2_
DA:54,6
DA:55,6
DA:64,9
DA:66,9
DA:71,3
DA:73,3
FNF:5
FNH:4
LF:6
LH:6
end_of_record
SF:/Library/Developer/CommandLineTools/SDKs/MacOSX12.3.sdk/usr/include/c++/v1/memory
FN:747,_ZNSt3__1L25__construct_range_forwardINS_9allocatorIiEENS_11__wrap_iterIPiEES4_EEvRT_T0_S8_RT1_
FNDA:350,_ZNSt3__1L25__construct_range_forwardINS_9allocatorIiEENS_11__wrap_iterIPiEES4_EEvRT_T0_S8_RT1_
FN:795,_ZNSt3__1L46__construct_backward_with_exception_guaranteesINS_9allocatorIiEEivEEvRT_PT0_S6_RS6_
FNDA:0,_ZNSt3__1L46__construct_backward_with_exception_guaranteesINS_9allocatorIiEEivEEvRT_PT0_S6_RS6_
DA:747,350
DA:749,108832
DA:750,108482
DA:751,108482
DA:752,350
DA:795,0
DA:796,0
DA:797,0
DA:798,0
DA:799,0
DA:800,0
FNF:2
FNH:1
LF:11
LH:5
end_of_record
SF:/Library/Developer/CommandLineTools/SDKs/MacOSX12.3.sdk/usr/include/c++/v1/__iterator/wrap_iter.h
FN:86,_ZNKSt3__111__wrap_iterIPiEdeEv
FNDA:109204,_ZNKSt3__111__wrap_iterIPiEdeEv
FN:86,_ZNKSt3__111__wrap_iterIPcEdeEv
FNDA:47,_ZNKSt3__111__wrap_iterIPcEdeEv
FN:102,_ZNSt3__111__wrap_iterIPcEppEv
FNDA:34,_ZNSt3__111__wrap_iterIPcEppEv
FN:102,_ZNSt3__111__wrap_iterIPiEppEv
FNDA:108482,_ZNSt3__111__wrap_iterIPiEppEv
FN:114,_ZNSt3__111__wrap_iterIPiEmmEv
FNDA:1444,_ZNSt3__111__wrap_iterIPiEmmEv
FN:114,_ZNSt3__111__wrap_iterIPcEmmEv
FNDA:16,_ZNSt3__111__wrap_iterIPcEmmEv
FN:127,_ZNSt3__111__wrap_iterIPiEpLEl
FNDA:0,_ZNSt3__111__wrap_iterIPiEpLEl
FN:149,_ZNKSt3__111__wrap_iterIPiE4baseEv
FNDA:219834,_ZNKSt3__111__wrap_iterIPiE4baseEv
FN:149,_ZNKSt3__111__wrap_iterIPcE4baseEv
FNDA:128,_ZNKSt3__111__wrap_iterIPcE4baseEv
FN:158,_ZNSt3__111__wrap_iterIPcEC1ES1_
FNDA:44,_ZNSt3__111__wrap_iterIPcEC1ES1_
FN:158,_ZNSt3__111__wrap_iterIPcEC2ES1_
FNDA:44,_ZNSt3__111__wrap_iterIPcEC2ES1_
FN:158,_ZNSt3__111__wrap_iterIPiEC1ES1_
FNDA:1442,_ZNSt3__111__wrap_iterIPiEC1ES1_
FN:158,_ZNSt3__111__wrap_iterIPiEC2ES1_
FNDA:1442,_ZNSt3__111__wrap_iterIPiEC2ES1_
FN:169,_ZNSt3__1eqIPiEEbRKNS_11__wrap_iterIT_EES6_
FNDA:109561,_ZNSt3__1eqIPiEEbRKNS_11__wrap_iterIT_EES6_
FN:169,_ZNSt3__1eqIPcEEbRKNS_11__wrap_iterIT_EES6_
FNDA:48,_ZNSt3__1eqIPcEEbRKNS_11__wrap_iterIT_EES6_
FN:183,_ZNSt3__1ltIPcEEbRKNS_11__wrap_iterIT_EES6_
FNDA:16,_ZNSt3__1ltIPcEEbRKNS_11__wrap_iterIT_EES6_
FN:205,_ZNSt3__1neIPiEEbRKNS_11__wrap_iterIT_EES6_
FNDA:109561,_ZNSt3__1neIPiEEbRKNS_11__wrap_iterIT_EES6_
FN:205,_ZNSt3__1neIPcEEbRKNS_11__wrap_iterIT_EES6_
FNDA:48,_ZNSt3__1neIPcEEbRKNS_11__wrap_iterIT_EES6_
FN:262,_ZNSt3__1miIPiS1_EEDTmicldtfp_4baseEcldtfp0_4baseEERKNS_11__wrap_iterIT_EERKNS3_IT0_EE
FNDA:353,_ZNSt3__1miIPiS1_EEDTmicldtfp_4baseEcldtfp0_4baseEERKNS_11__wrap_iterIT_EERKNS3_IT0_EE
FN:292,_ZNSt3__112__to_addressIPiEEDTclsr3std3__1E12__to_addresscl7declvalIT_EEEENS_11__wrap_iterIS2_EE
FNDA:6,_ZNSt3__112__to_addressIPiEEDTclsr3std3__1E12__to_addresscl7declvalIT_EEEENS_11__wrap_iterIS2_EE
DA:86,109251
DA:92,109251
DA:102,108516
DA:108,108516
DA:109,108516
DA:114,1460
DA:120,1460
DA:121,1460
DA:127,0
DA:133,0
DA:134,0
DA:149,219962
DA:158,2972
DA:169,109609
DA:171,109609
DA:183,16
DA:189,16
DA:205,109609
DA:207,109609
DA:262,353
DA:273,353
DA:292,6
DA:293,6
FNF:20
FNH:19
LF:23
LH:20
end_of_record
SF:/Library/Developer/CommandLineTools/SDKs/MacOSX12.3.sdk/usr/include/c++/v1/__memory/allocator.h
FN:74,_ZNSt3__116__non_trivial_ifILb1ENS_9allocatorIcEEEC2Ev
FNDA:37,_ZNSt3__116__non_trivial_ifILb1ENS_9allocatorIcEEEC2Ev
FN:74,_ZNSt3__116__non_trivial_ifILb1ENS_9allocatorIiEEEC2Ev
FNDA:368,_ZNSt3__116__non_trivial_ifILb1ENS_9allocatorIiEEEC2Ev
FN:94,_ZNSt3__19allocatorIcEC2Ev
FNDA:37,_ZNSt3__19allocatorIcEC2Ev
FN:94,_ZNSt3__19allocatorIiEC2Ev
FNDA:368,_ZNSt3__19allocatorIiEC2Ev
FN:101,_ZNSt3__19allocatorIiE8allocateEm
FNDA:0,_ZNSt3__19allocatorIiE8allocateEm
FN:113,_ZNSt3__19allocatorIiE10deallocateEPim
FNDA:0,_ZNSt3__19allocatorIiE10deallocateEPim
FN:147,_ZNKSt3__19allocatorIiE8max_sizeEv
FNDA:0,_ZNKSt3__19allocatorIiE8max_sizeEv
FN:153,_ZNSt3__19allocatorIiE9constructIiJiEEEvPT_DpOT0_
FNDA:108508,_ZNSt3__19allocatorIiE9constructIiJiEEEvPT_DpOT0_
FN:153,_ZNSt3__19allocatorIiE9constructIiJRiEEEvPT_DpOT0_
FNDA:108482,_ZNSt3__19allocatorIiE9constructIiJRiEEEvPT_DpOT0_
FN:158,_ZNSt3__19allocatorIiE7destroyEPi
FNDA:0,_ZNSt3__19allocatorIiE7destroyEPi
DA:74,405
DA:94,405
DA:101,0
DA:102,0
DA:103,0
DA:108,0
DA:113,0
DA:117,0
DA:119,0
DA:147,0
DA:148,0
DA:153,216990
DA:154,216990
DA:155,216990
DA:158,0
DA:159,0
DA:160,0
FNF:10
FNH:6
LF:17
LH:5
end_of_record
SF:/Library/Developer/CommandLineTools/SDKs/MacOSX12.3.sdk/usr/include/c++/v1/__memory/allocator_traits.h
FN:261,_ZNSt3__116allocator_traitsINS_9allocatorIiEEE8allocateERS2_m
FNDA:0,_ZNSt3__116allocator_traitsINS_9allocatorIiEEE8allocateERS2_m
FN:281,_ZNSt3__116allocator_traitsINS_9allocatorIiEEE10deallocateERS2_Pim
FNDA:0,_ZNSt3__116allocator_traitsINS_9allocatorIiEEE10deallocateERS2_Pim
FN:288,_ZNSt3__116allocator_traitsINS_9allocatorIiEEE9constructIiJiEvEEvRS2_PT_DpOT0_
FNDA:108508,_ZNSt3__116allocator_traitsINS_9allocatorIiEEE9constructIiJiEvEEvRS2_PT_DpOT0_
FN:288,_ZNSt3__116allocator_traitsINS_9allocatorIiEEE9constructIiJRiEvEEvRS2_PT_DpOT0_
FNDA:108482,_ZNSt3__116allocator_traitsINS_9allocatorIiEEE9constructIiJRiEvEEvRS2_PT_DpOT0_
FN:307,_ZNSt3__116allocator_traitsINS_9allocatorIiEEE7destroyIivEEvRS2_PT_
FNDA:0,_ZNSt3__116allocator_traitsINS_9allocatorIiEEE7destroyIivEEvRS2_PT_
FN:326,_ZNSt3__116allocator_traitsINS_9allocatorIiEEE8max_sizeIS2_vEEmRKS2_
FNDA:0,_ZNSt3__116allocator_traitsINS_9allocatorIiEEE8max_sizeIS2_vEEmRKS2_
DA:261,0
DA:262,0
DA:281,0
DA:282,0
DA:283,0
DA:288,216990
DA:290,216990
DA:292,216990
DA:307,0
DA:309,0
DA:311,0
DA:326,0
DA:328,0
FNF:6
FNH:2
LF:13
LH:3
end_of_record
SF:/Library/Developer/CommandLineTools/SDKs/MacOSX12.3.sdk/usr/include/c++/v1/string
FN:939,_ZNSt3__112basic_stringIcNS_11char_traitsIcEENS_9allocatorIcEEE5beginEv
FNDA:22,_ZNSt3__112basic_stringIcNS_11char_traitsIcEENS_9allocatorIcEEE5beginEv
FN:945,_ZNSt3__112basic_stringIcNS_11char_traitsIcEENS_9allocatorIcEEE3endEv
FNDA:22,_ZNSt3__112basic_stringIcNS_11char_traitsIcEENS_9allocatorIcEEE3endEv
FN:977,_ZNKSt3__112basic_stringIcNS_11char_traitsIcEENS_9allocatorIcEEE4sizeEv
FNDA:759,_ZNKSt3__112basic_stringIcNS_11char_traitsIcEENS_9allocatorIcEEE4sizeEv
FN:998,_ZNKSt3__112basic_stringIcNS_11char_traitsIcEENS_9allocatorIcEEE5emptyEv
FNDA:15,_ZNKSt3__112basic_stringIcNS_11char_traitsIcEENS_9allocatorIcEEE5emptyEv
FN:1265,_ZNKSt3__112basic_stringIcNS_11char_traitsIcEENS_9allocatorIcEEE4dataEv
FNDA:722,_ZNKSt3__112basic_stringIcNS_11char_traitsIcEENS_9allocatorIcEEE4dataEv
FN:1458,_ZNKSt3__112basic_stringIcNS_11char_traitsIcEENS_9allocatorIcEEE9__is_longEv
FNDA:1525,_ZNKSt3__112basic_stringIcNS_11char_traitsIcEENS_9allocatorIcEEE9__is_longEv
FN:1489,_ZNKSt3__112basic_stringIcNS_11char_traitsIcEENS_9allocatorIcEEE16__get_short_sizeEv
FNDA:759,_ZNKSt3__112basic_stringIcNS_11char_traitsIcEENS_9allocatorIcEEE16__get_short_sizeEv
FN:1520,_ZNKSt3__112basic_stringIcNS_11char_traitsIcEENS_9allocatorIcEEE15__get_long_sizeEv
FNDA:0,_ZNKSt3__112basic_stringIcNS_11char_traitsIcEENS_9allocatorIcEEE15__get_long_sizeEv
FN:1537,_ZNSt3__112basic_stringIcNS_11char_traitsIcEENS_9allocatorIcEEE18__get_long_pointerEv
FNDA:0,_ZNSt3__112basic_stringIcNS_11char_traitsIcEENS_9allocatorIcEEE18__get_long_pointerEv
FN:1540,_ZNKSt3__112basic_stringIcNS_11char_traitsIcEENS_9allocatorIcEEE18__get_long_pointerEv
FNDA:0,_ZNKSt3__112basic_stringIcNS_11char_traitsIcEENS_9allocatorIcEEE18__get_long_pointerEv
FN:1543,_ZNSt3__112basic_stringIcNS_11char_traitsIcEENS_9allocatorIcEEE19__get_short_pointerEv
FNDA:44,_ZNSt3__112basic_stringIcNS_11char_traitsIcEENS_9allocatorIcEEE19__get_short_pointerEv
FN:1546,_ZNKSt3__112basic_stringIcNS_11char_traitsIcEENS_9allocatorIcEEE19__get_short_pointerEv
FNDA:722,_ZNKSt3__112basic_stringIcNS_11char_traitsIcEENS_9allocatorIcEEE19__get_short_pointerEv
FN:1549,_ZNSt3__112basic_stringIcNS_11char_traitsIcEENS_9allocatorIcEEE13__get_pointerEv
FNDA:44,_ZNSt3__112basic_stringIcNS_11char_traitsIcEENS_9allocatorIcEEE13__get_pointerEv
FN:1552,_ZNKSt3__112basic_stringIcNS_11char_traitsIcEENS_9allocatorIcEEE13__get_pointerEv
FNDA:722,_ZNKSt3__112basic_stringIcNS_11char_traitsIcEENS_9allocatorIcEEE13__get_pointerEv
FN:1556,_ZNSt3__112basic_stringIcNS_11char_traitsIcEENS_9allocatorIcEEE6__zeroEv
FNDA:37,_ZNSt3__112basic_stringIcNS_11char_traitsIcEENS_9allocatorIcEEE6__zeroEv
FN:1829,_ZNSt3__112basic_stringIcNS_11char_traitsIcEENS_9allocatorIcEEEC1Ev
FNDA:37,_ZNSt3__112basic_stringIcNS_11char_traitsIcEENS_9allocatorIcEEEC1Ev
FN:1829,_ZNSt3__112basic_stringIcNS_11char_traitsIcEENS_9allocatorIcEEEC2Ev
FNDA:37,_ZNSt3__112basic_stringIcNS_11char_traitsIcEENS_9allocatorIcEEEC2Ev
FN:2730,_ZNSt3__112basic_stringIcNS_11char_traitsIcEENS_9allocatorIcEEE6appendERKS5_
FNDA:722,_ZNSt3__112basic_stringIcNS_11char_traitsIcEENS_9allocatorIcEEE6appendERKS5_
DA:939,22
DA:940,22
DA:945,22
DA:946,22
DA:977,759
DA:978,759
DA:998,15
DA:1265,722
DA:1458,1525
DA:1459,1525
DA:1489,759
DA:1493,759
DA:1520,0
DA:1521,0
DA:1537,0
DA:1538,0
DA:1540,0
DA:1541,0
DA:1543,44
DA:1544,44
DA:1546,722
DA:1547,722
DA:1549,44
DA:1550,44
DA:1552,722
DA:1553,722
DA:1556,37
DA:1558,37
DA:1559,148
DA:1560,111
DA:1561,37
DA:1829,74
DA:1831,37
DA:1832,74
DA:1836,37
DA:1837,74
DA:2730,722
DA:2732,722
FNF:18
FNH:15
LF:38
LH:32
end_of_record
SF:/Library/Developer/CommandLineTools/SDKs/MacOSX12.3.sdk/usr/include/c++/v1/__algorithm/min.h
FN:30,_ZNSt3__1L3minImNS_6__lessImmEEEERKT_S5_S5_T0_
FNDA:0,_ZNSt3__1L3minImNS_6__lessImmEEEERKT_S5_S5_T0_
FN:39,_ZNSt3__1L3minImEERKT_S3_S3_
FNDA:0,_ZNSt3__1L3minImEERKT_S3_S3_
DA:30,0
DA:32,0
DA:39,0
DA:41,0
FNF:2
FNH:0
LF:4
LH:0
end_of_record
SF:/Library/Developer/CommandLineTools/SDKs/MacOSX12.3.sdk/usr/include/c++/v1/__utility/forward.h
FN:27,_ZNSt3__1L7forwardINS_18__default_init_tagEEEOT_RNS_16remove_referenceIS2_E4typeE
FNDA:442,_ZNSt3__1L7forwardINS_18__default_init_tagEEEOT_RNS_16remove_referenceIS2_E4typeE
FN:27,_ZNSt3__1L7forwardIDnEEOT_RNS_16remove_referenceIS1_E4typeE
FNDA:736,_ZNSt3__1L7forwardIDnEEOT_RNS_16remove_referenceIS1_E4typeE
FN:27,_ZNSt3__1L7forwardIiEEOT_RNS_16remove_referenceIS1_E4typeE
FNDA:325524,_ZNSt3__1L7forwardIiEEOT_RNS_16remove_referenceIS1_E4typeE
FN:27,_ZNSt3__1L7forwardIRNS_9allocatorIiEEEEOT_RNS_16remove_referenceIS4_E4typeE
FNDA:0,_ZNSt3__1L7forwardIRNS_9allocatorIiEEEEOT_RNS_16remove_referenceIS4_E4typeE
FN:27,_ZNSt3__1L7forwardIRiEEOT_RNS_16remove_referenceIS2_E4typeE
FNDA:216964,_ZNSt3__1L7forwardIRiEEOT_RNS_16remove_referenceIS2_E4typeE
DA:27,543666
DA:28,543666
FNF:5
FNH:4
LF:2
LH:2
end_of_record
SF:/Library/Developer/CommandLineTools/SDKs/MacOSX12.3.sdk/usr/include/c++/v1/__memory/addressof.h
FN:30,_ZNSt3__1L9addressofIcEEPT_RS1_
FNDA:44,_ZNSt3__1L9addressofIcEEPT_RS1_
FN:30,_ZNSt3__1L9addressofIKcEEPT_RS2_
FNDA:722,_ZNSt3__1L9addressofIKcEEPT_RS2_
DA:30,766
DA:32,766
FNF:2
FNH:2
LF:2
LH:2
end_of_record
SF:/Library/Developer/CommandLineTools/SDKs/MacOSX12.3.sdk/usr/include/c++/v1/stdexcept
FN:153,_ZNSt12length_errorC1EPKc
FNDA:0,_ZNSt12length_errorC1EPKc
FN:153,_ZNSt12length_errorC2EPKc
FNDA:0,_ZNSt12length_errorC2EPKc
FN:253,_ZNSt3__1L20__throw_length_errorEPKc
FNDA:0,_ZNSt3__1L20__throw_length_errorEPKc
DA:153,0
DA:253,0
DA:256,0
DA:261,0
FNF:3
FNH:0
LF:4
LH:0
end_of_record
SF:/Library/Developer/CommandLineTools/SDKs/MacOSX12.3.sdk/usr/include/c++/v1/limits
FN:214,_ZNSt3__123__libcpp_numeric_limitsIlLb1EE3maxEv
FNDA:0,_ZNSt3__123__libcpp_numeric_limitsIlLb1EE3maxEv
FN:451,_ZNSt3__114numeric_limitsIlE3maxEv
FNDA:0,_ZNSt3__114numeric_limitsIlE3maxEv
DA:214,0
DA:451,0
FNF:2
FNH:0
LF:2
LH:0
end_of_record
SF:/Library/Developer/CommandLineTools/SDKs/MacOSX12.3.sdk/usr/include/c++/v1/__memory/compressed_pair.h
FN:41,_ZNSt3__122__compressed_pair_elemINS_12basic_stringIcNS_11char_traitsIcEENS_9allocatorIcEEE5__repELi0ELb0EEC2ENS_18__default_init_tagE
FNDA:37,_ZNSt3__122__compressed_pair_elemINS_12basic_stringIcNS_11char_traitsIcEENS_9allocatorIcEEE5__repELi0ELb0EEC2ENS_18__default_init_tagE
FN:50,_ZNSt3__122__compressed_pair_elemIPiLi0ELb0EEC2IDnvEEOT_
FNDA:368,_ZNSt3__122__compressed_pair_elemIPiLi0ELb0EEC2IDnvEEOT_
FN:50,_ZNSt3__122__compressed_pair_elemIRNS_9allocatorIiEELi1ELb0EEC2IS3_vEEOT_
FNDA:0,_ZNSt3__122__compressed_pair_elemIRNS_9allocatorIiEELi1ELb0EEC2IS3_vEEOT_
FN:65,_ZNSt3__122__compressed_pair_elemINS_12basic_stringIcNS_11char_traitsIcEENS_9allocatorIcEEE5__repELi0ELb0EE5__getEv
FNDA:81,_ZNSt3__122__compressed_pair_elemINS_12basic_stringIcNS_11char_traitsIcEENS_9allocatorIcEEE5__repELi0ELb0EE5__getEv
FN:65,_ZNSt3__122__compressed_pair_elemIPiLi0ELb0EE5__getEv
FNDA:108508,_ZNSt3__122__compressed_pair_elemIPiLi0ELb0EE5__getEv
FN:65,_ZNSt3__122__compressed_pair_elemIRNS_9allocatorIiEELi1ELb0EE5__getEv
FNDA:0,_ZNSt3__122__compressed_pair_elemIRNS_9allocatorIiEELi1ELb0EE5__getEv
FN:67,_ZNKSt3__122__compressed_pair_elemIPiLi0ELb0EE5__getEv
FNDA:4618,_ZNKSt3__122__compressed_pair_elemIPiLi0ELb0EE5__getEv
FN:67,_ZNKSt3__122__compressed_pair_elemINS_12basic_stringIcNS_11char_traitsIcEENS_9allocatorIcEEE5__repELi0ELb0EE5__getEv
FNDA:3006,_ZNKSt3__122__compressed_pair_elemINS_12basic_stringIcNS_11char_traitsIcEENS_9allocatorIcEEE5__repELi0ELb0EE5__getEv
FN:82,_ZNSt3__122__compressed_pair_elemINS_9allocatorIcEELi1ELb1EEC2ENS_18__default_init_tagE
FNDA:37,_ZNSt3__122__compressed_pair_elemINS_9allocatorIcEELi1ELb1EEC2ENS_18__default_init_tagE
FN:82,_ZNSt3__122__compressed_pair_elemINS_9allocatorIiEELi1ELb1EEC2ENS_18__default_init_tagE
FNDA:368,_ZNSt3__122__compressed_pair_elemINS_9allocatorIiEELi1ELb1EEC2ENS_18__default_init_tagE
FN:103,_ZNSt3__122__compressed_pair_elemINS_9allocatorIiEELi1ELb1EE5__getEv
FNDA:108858,_ZNSt3__122__compressed_pair_elemINS_9allocatorIiEELi1ELb1EE5__getEv
FN:105,_ZNKSt3__122__compressed_pair_elemINS_9allocatorIiEELi1ELb1EE5__getEv
FNDA:0,_ZNKSt3__122__compressed_pair_elemINS_9allocatorIiEELi1ELb1EE5__getEv
FN:135,_ZNSt3__117__compressed_pairINS_12basic_stringIcNS_11char_traitsIcEENS_9allocatorIcEEE5__repES5_EC1INS_18__default_init_tagESA_EEOT_OT0_
FNDA:37,_ZNSt3__117__compressed_pairINS_12basic_stringIcNS_11char_traitsIcEENS_9allocatorIcEEE5__repES5_EC1INS_18__default_init_tagESA_EEOT_OT0_
FN:135,_ZNSt3__117__compressed_pairINS_12basic_stringIcNS_11char_traitsIcEENS_9allocatorIcEEE5__repES5_EC2INS_18__default_init_tagESA_EEOT_OT0_
FNDA:37,_ZNSt3__117__compressed_pairINS_12basic_stringIcNS_11char_traitsIcEENS_9allocatorIcEEE5__repES5_EC2INS_18__default_init_tagESA_EEOT_OT0_
FN:135,_ZNSt3__117__compressed_pairIPiNS_9allocatorIiEEEC1IDnNS_18__default_init_tagEEEOT_OT0_
FNDA:368,_ZNSt3__117__compressed_pairIPiNS_9allocatorIiEEEC1IDnNS_18__default_init_tagEEEOT_OT0_
FN:135,_ZNSt3__117__compressed_pairIPiNS_9allocatorIiEEEC2IDnNS_18__default_init_tagEEEOT_OT0_
FNDA:368,_ZNSt3__117__compressed_pairIPiNS_9allocatorIiEEEC2IDnNS_18__default_init_tagEEEOT_OT0_
FN:135,_ZNSt3__117__compressed_pairIPiRNS_9allocatorIiEEEC1IDnS4_EEOT_OT0_
FNDA:0,_ZNSt3__117__compressed_pairIPiRNS_9allocatorIiEEEC1IDnS4_EEOT_OT0_
FN:135,_ZNSt3__117__compressed_pairIPiRNS_9allocatorIiEEEC2IDnS4_EEOT_OT0_
FNDA:0,_ZNSt3__117__compressed_pairIPiRNS_9allocatorIiEEEC2IDnS4_EEOT_OT0_
FN:150,_ZNSt3__117__compressed_pairINS_12basic_stringIcNS_11char_traitsIcEENS_9allocatorIcEEE5__repES5_E5firstEv
FNDA:81,_ZNSt3__117__compressed_pairINS_12basic_stringIcNS_11char_traitsIcEENS_9allocatorIcEEE5__repES5_E5firstEv
FN:150,_ZNSt3__117__compressed_pairIPiNS_9allocatorIiEEE5firstEv
FNDA:108508,_ZNSt3__117__compressed_pairIPiNS_9allocatorIiEEE5firstEv
FN:150,_ZNSt3__117__compressed_pairIPiRNS_9allocatorIiEEE5firstEv
FNDA:0,_ZNSt3__117__compressed_pairIPiRNS_9allocatorIiEEE5firstEv
FN:155,_ZNKSt3__117__compressed_pairIPiNS_9allocatorIiEEE5firstEv
FNDA:4618,_ZNKSt3__117__compressed_pairIPiNS_9allocatorIiEEE5firstEv
FN:155,_ZNKSt3__117__compressed_pairINS_12basic_stringIcNS_11char_traitsIcEENS_9allocatorIcEEE5__repES5_E5firstEv
FNDA:3006,_ZNKSt3__117__compressed_pairINS_12basic_stringIcNS_11char_traitsIcEENS_9allocatorIcEEE5__repES5_E5firstEv
FN:155,_ZNKSt3__117__compressed_pairIPiRNS_9allocatorIiEEE5firstEv
FNDA:0,_ZNKSt3__117__compressed_pairIPiRNS_9allocatorIiEEE5firstEv
FN:160,_ZNSt3__117__compressed_pairIPiNS_9allocatorIiEEE6secondEv
FNDA:108858,_ZNSt3__117__compressed_pairIPiNS_9allocatorIiEEE6secondEv
FN:160,_ZNSt3__117__compressed_pairIPiRNS_9allocatorIiEEE6secondEv
FNDA:0,_ZNSt3__117__compressed_pairIPiRNS_9allocatorIiEEE6secondEv
FN:165,_ZNKSt3__117__compressed_pairIPiNS_9allocatorIiEEE6secondEv
FNDA:0,_ZNKSt3__117__compressed_pairIPiNS_9allocatorIiEEE6secondEv
DA:41,37
DA:50,368
DA:51,368
DA:53,368
DA:65,108589
DA:67,7624
DA:82,405
DA:103,108858
DA:105,0
DA:135,810
DA:136,810
DA:150,108589
DA:151,108589
DA:155,7624
DA:156,7624
DA:160,108858
DA:161,108858
DA:165,0
DA:166,0
FNF:27
FNH:18
LF:19
LH:16
end_of_record
SF:/Library/Developer/CommandLineTools/SDKs/MacOSX12.3.sdk/usr/include/c++/v1/__algorithm/iter_swap.h
FN:26,_ZNSt3__1L9iter_swapINS_11__wrap_iterIPcEES3_EEvT_T0_
FNDA:8,_ZNSt3__1L9iter_swapINS_11__wrap_iterIPcEES3_EEvT_T0_
DA:26,8
DA:30,8
DA:31,8
FNF:1
FNH:1
LF:3
LH:3
end_of_record
TN:
SF:/Users/dogukanarat/Desktop/Workspace/RocketLab/Binaries/Debug/Intermediate/_deps/googletest-src/googletest/include/gtest/gtest.h
FN:2470,_Z13RUN_ALL_TESTSv
FNDA:20,_Z13RUN_ALL_TESTSv
DA:2470,20
DA:2471,20
FNF:1
FNH:1
LF:2
LH:2
end_of_record
SF:/Users/dogukanarat/Desktop/Workspace/RocketLab/Tests/Main.cpp
FN:10,main
FNDA:20,main
DA:10,20
DA:12,20
DA:13,20
FNF:1
FNH:1
LF:3
LH:3
end_of_record
TN:
SF:/Library/Developer/CommandLineTools/SDKs/MacOSX12.3.sdk/usr/include/c++/v1/locale
FN:1395,_ZNSt3__116__pad_and_outputIcNS_11char_traitsIcEEEENS_19ostreambuf_iteratorIT_T0_EES6_PKS4_S8_S8_RNS_8ios_baseES4_
FNDA:0,_ZNSt3__116__pad_and_outputIcNS_11char_traitsIcEEEENS_19ostreambuf_iteratorIT_T0_EES6_PKS4_S8_S8_RNS_8ios_baseES4_
DA:1395,0
DA:1399,0
DA:1400,0
DA:1401,0
DA:1402,0
DA:1403,0
DA:1404,0
DA:1406,0
DA:1407,0
DA:1408,0
DA:1410,0
DA:1412,0
DA:1413,0
DA:1415,0
DA:1416,0
DA:1418,0
DA:1419,0
DA:1421,0
DA:1422,0
DA:1424,0
DA:1425,0
DA:1426,0
DA:1428,0
DA:1430,0
DA:1431,0
DA:1433,0
DA:1434,0
DA:1435,0
DA:1436,0
FNF:1
FNH:0
LF:29
LH:0
end_of_record
SF:/Library/Developer/CommandLineTools/SDKs/MacOSX12.3.sdk/usr/include/c++/v1/istream
FN:191,_ZNSt3__113basic_istreamIcNS_11char_traitsIcEEEC2EPNS_15basic_streambufIcS2_EE
FNDA:0,_ZNSt3__113basic_istreamIcNS_11char_traitsIcEEEC2EPNS_15basic_streambufIcS2_EE
FN:1405,_ZNSt3__114basic_iostreamIcNS_11char_traitsIcEEEC2EPNS_15basic_streambufIcS2_EE
FNDA:0,_ZNSt3__114basic_iostreamIcNS_11char_traitsIcEEEC2EPNS_15basic_streambufIcS2_EE
DA:191,0
DA:192,0
DA:1405,0
DA:1406,0
DA:1407,0
FNF:2
FNH:0
LF:5
LH:0
end_of_record
SF:/Library/Developer/CommandLineTools/SDKs/MacOSX12.3.sdk/usr/include/c++/v1/sstream
FN:227,_ZNSt3__115basic_stringbufIcNS_11char_traitsIcEENS_9allocatorIcEEEC1Ej
FNDA:0,_ZNSt3__115basic_stringbufIcNS_11char_traitsIcEENS_9allocatorIcEEEC1Ej
FN:227,_ZNSt3__115basic_stringbufIcNS_11char_traitsIcEENS_9allocatorIcEEEC2Ej
FNDA:0,_ZNSt3__115basic_stringbufIcNS_11char_traitsIcEENS_9allocatorIcEEEC2Ej
FN:802,_ZNSt3__118basic_stringstreamIcNS_11char_traitsIcEENS_9allocatorIcEEEC1Ev
FNDA:0,_ZNSt3__118basic_stringstreamIcNS_11char_traitsIcEENS_9allocatorIcEEEC1Ev
FN:842,_ZNKSt3__118basic_stringstreamIcNS_11char_traitsIcEENS_9allocatorIcEEE3strEv
FNDA:0,_ZNKSt3__118basic_stringstreamIcNS_11char_traitsIcEENS_9allocatorIcEEE3strEv
FN:861,_ZNSt3__115basic_stringbufIcNS_11char_traitsIcEENS_9allocatorIcEEED1Ev
FNDA:0,_ZNSt3__115basic_stringbufIcNS_11char_traitsIcEENS_9allocatorIcEEED1Ev
FN:861,_ZNSt3__115basic_stringbufIcNS_11char_traitsIcEENS_9allocatorIcEEED2Ev
FNDA:0,_ZNSt3__115basic_stringbufIcNS_11char_traitsIcEENS_9allocatorIcEEED2Ev
FN:862,_ZNSt3__118basic_stringstreamIcNS_11char_traitsIcEENS_9allocatorIcEEED1Ev
FNDA:0,_ZNSt3__118basic_stringstreamIcNS_11char_traitsIcEENS_9allocatorIcEEED1Ev
FN:862,_ZNSt3__118basic_stringstreamIcNS_11char_traitsIcEENS_9allocatorIcEEED2Ev
FNDA:0,_ZNSt3__118basic_stringstreamIcNS_11char_traitsIcEENS_9allocatorIcEEED2Ev
DA:227,0
DA:228,0
DA:802,0
DA:803,0
DA:842,0
DA:843,0
FNF:8
FNH:0
LF:6
LH:0
end_of_record
SF:/Library/Developer/CommandLineTools/SDKs/MacOSX12.3.sdk/usr/include/c++/v1/__memory/pointer_traits.h
FN:152,_ZNSt3__114pointer_traitsIPKcE10pointer_toERS1_
FNDA:0,_ZNSt3__114pointer_traitsIPKcE10pointer_toERS1_
FN:152,_ZNSt3__114pointer_traitsIPcE10pointer_toERc
FNDA:0,_ZNSt3__114pointer_traitsIPcE10pointer_toERc
FN:173,_ZNSt3__1L12__to_addressIKcEEPT_S3_
FNDA:0,_ZNSt3__1L12__to_addressIKcEEPT_S3_
FN:173,_ZNSt3__1L12__to_addressIcEEPT_S2_
FNDA:0,_ZNSt3__1L12__to_addressIcEEPT_S2_
DA:152,0
DA:154,0
DA:173,0
DA:175,0
FNF:4
FNH:0
LF:4
LH:0
end_of_record
SF:/Library/Developer/CommandLineTools/SDKs/MacOSX12.3.sdk/usr/include/c++/v1/__string
FN:342,_ZNSt3__111char_traitsIcE6lengthEPKc
FNDA:0,_ZNSt3__111char_traitsIcE6lengthEPKc
FN:374,_ZNSt3__111char_traitsIcE11eq_int_typeEii
FNDA:0,_ZNSt3__111char_traitsIcE11eq_int_typeEii
FN:376,_ZNSt3__111char_traitsIcE3eofEv
FNDA:0,_ZNSt3__111char_traitsIcE3eofEv
DA:342,0
DA:374,0
DA:375,0
DA:376,0
DA:377,0
FNF:3
FNH:0
LF:5
LH:0
end_of_record
SF:/Users/dogukanarat/Desktop/Workspace/RocketLab/Tests/UnitTestConversion.cpp
FN:0,__cxx_global_var_init
FNDA:20,__cxx_global_var_init
FN:0,__cxx_global_var_init.7
FNDA:20,__cxx_global_var_init.7
FN:0,__cxx_global_var_init.20
FNDA:20,__cxx_global_var_init.20
FN:0,__cxx_global_var_init.26
FNDA:20,__cxx_global_var_init.26
FN:5,_ZN41TestConversion_CheckSearchBoundaries_Test8TestBodyEv
FNDA:1,_ZN41TestConversion_CheckSearchBoundaries_Test8TestBodyEv
FN:5,_ZN41TestConversion_CheckSearchBoundaries_TestD1Ev
FNDA:1,_ZN41TestConversion_CheckSearchBoundaries_TestD1Ev
FN:5,_ZN41TestConversion_CheckSearchBoundaries_TestD0Ev
FNDA:1,_ZN41TestConversion_CheckSearchBoundaries_TestD0Ev
FN:5,_ZN41TestConversion_CheckSearchBoundaries_TestC1Ev
FNDA:1,_ZN41TestConversion_CheckSearchBoundaries_TestC1Ev
FN:5,_ZN41TestConversion_CheckSearchBoundaries_TestC2Ev
FNDA:1,_ZN41TestConversion_CheckSearchBoundaries_TestC2Ev
FN:5,_ZN41TestConversion_CheckSearchBoundaries_TestD2Ev
FNDA:1,_ZN41TestConversion_CheckSearchBoundaries_TestD2Ev
FN:12,_ZN37TestConversion_CheckSearchResult_Test8TestBodyEv
FNDA:1,_ZN37TestConversion_CheckSearchResult_Test8TestBodyEv
FN:12,_ZN37TestConversion_CheckSearchResult_TestD1Ev
FNDA:1,_ZN37TestConversion_CheckSearchResult_TestD1Ev
FN:12,_ZN37TestConversion_CheckSearchResult_TestD0Ev
FNDA:1,_ZN37TestConversion_CheckSearchResult_TestD0Ev
FN:12,_ZN37TestConversion_CheckSearchResult_TestC1Ev
FNDA:1,_ZN37TestConversion_CheckSearchResult_TestC1Ev
FN:12,_ZN37TestConversion_CheckSearchResult_TestC2Ev
FNDA:1,_ZN37TestConversion_CheckSearchResult_TestC2Ev
FN:12,_ZN37TestConversion_CheckSearchResult_TestD2Ev
FNDA:1,_ZN37TestConversion_CheckSearchResult_TestD2Ev
FN:24,_ZN34TestConversion_CheckNormalize_Test8TestBodyEv
FNDA:1,_ZN34TestConversion_CheckNormalize_Test8TestBodyEv
FN:24,_ZN34TestConversion_CheckNormalize_TestD1Ev
FNDA:1,_ZN34TestConversion_CheckNormalize_TestD1Ev
FN:24,_ZN34TestConversion_CheckNormalize_TestD0Ev
FNDA:1,_ZN34TestConversion_CheckNormalize_TestD0Ev
FN:24,_ZN34TestConversion_CheckNormalize_TestC1Ev
FNDA:1,_ZN34TestConversion_CheckNormalize_TestC1Ev
FN:24,_ZN34TestConversion_CheckNormalize_TestC2Ev
FNDA:1,_ZN34TestConversion_CheckNormalize_TestC2Ev
FN:24,_ZN34TestConversion_CheckNormalize_TestD2Ev
FNDA:1,_ZN34TestConversion_CheckNormalize_TestD2Ev
FN:30,_ZN36TestConversion_CheckGetPressure_Test8TestBodyEv
FNDA:1,_ZN36TestConversion_CheckGetPressure_Test8TestBodyEv
FN:30,_ZN36TestConversion_CheckGetPressure_TestD1Ev
FNDA:1,_ZN36TestConversion_CheckGetPressure_TestD1Ev
FN:30,_ZN36TestConversion_CheckGetPressure_TestD0Ev
FNDA:1,_ZN36TestConversion_CheckGetPressure_TestD0Ev
FN:30,_ZN36TestConversion_CheckGetPressure_TestC1Ev
FNDA:1,_ZN36TestConversion_CheckGetPressure_TestC1Ev
FN:30,_ZN36TestConversion_CheckGetPressure_TestC2Ev
FNDA:1,_ZN36TestConversion_CheckGetPressure_TestC2Ev
FN:30,_ZN36TestConversion_CheckGetPressure_TestD2Ev
FNDA:1,_ZN36TestConversion_CheckGetPressure_TestD2Ev
DA:5,26
DA:7,1
DA:8,1
DA:9,1
DA:10,1
DA:12,26
DA:14,1
DA:15,1
DA:17,1
DA:18,1
DA:20,1
DA:21,1
DA:22,1
DA:24,26
DA:26,1
DA:27,1
DA:28,1
DA:30,26
DA:32,1
DA:33,1
DA:34,1
FNF:28
FNH:28
LF:21
LH:21
end_of_record
SF:/Library/Developer/CommandLineTools/SDKs/MacOSX12.3.sdk/usr/include/c++/v1/ostream
FN:234,_ZNSt3__113basic_ostreamIcNS_11char_traitsIcEEEC2Ev
FNDA:0,_ZNSt3__113basic_ostreamIcNS_11char_traitsIcEEEC2Ev
FN:251,_ZNKSt3__113basic_ostreamIcNS_11char_traitsIcEEE6sentrycvbEv
FNDA:0,_ZNKSt3__113basic_ostreamIcNS_11char_traitsIcEEE6sentrycvbEv
FN:707,_ZNSt3__124__put_character_sequenceIcNS_11char_traitsIcEEEERNS_13basic_ostreamIT_T0_EES7_PKS4_m
FNDA:0,_ZNSt3__124__put_character_sequenceIcNS_11char_traitsIcEEEERNS_13basic_ostreamIT_T0_EES7_PKS4_m
FN:855,_ZNSt3__1lsINS_11char_traitsIcEEEERNS_13basic_ostreamIcT_EES6_PKc
FNDA:0,_ZNSt3__1lsINS_11char_traitsIcEEEERNS_13basic_ostreamIcT_EES6_PKc
FN:1038,_ZNSt3__1lsIcNS_11char_traitsIcEENS_9allocatorIcEEEERNS_13basic_ostreamIT_T0_EES9_RKNS_12basic_stringIS6_S7_T1_EE
FNDA:0,_ZNSt3__1lsIcNS_11char_traitsIcEENS_9allocatorIcEEEERNS_13basic_ostreamIT_T0_EES9_RKNS_12basic_stringIS6_S7_T1_EE
DA:234,0
DA:251,0
DA:707,0
DA:714,0
DA:715,0
DA:718,0
DA:719,0
DA:720,0
DA:721,0
DA:722,0
DA:723,0
DA:724,0
DA:725,0
DA:726,0
DA:727,0
DA:729,0
DA:732,0
DA:733,0
DA:735,0
DA:736,0
DA:855,0
DA:857,0
DA:1038,0
DA:1041,0
FNF:5
FNH:0
LF:24
LH:0
end_of_record
SF:/Library/Developer/CommandLineTools/SDKs/MacOSX12.3.sdk/usr/include/c++/v1/ios
FN:344,_ZNSt3__18ios_baseC2Ev
FNDA:0,_ZNSt3__18ios_baseC2Ev
FN:348,_ZNKSt3__18ios_base5rdbufEv
FNDA:0,_ZNKSt3__18ios_base5rdbufEv
FN:459,_ZNKSt3__18ios_base5flagsEv
FNDA:0,_ZNKSt3__18ios_base5flagsEv
FN:510,_ZNSt3__18ios_base9precisionEl
FNDA:0,_ZNSt3__18ios_base9precisionEl
FN:521,_ZNKSt3__18ios_base5widthEv
FNDA:0,_ZNKSt3__18ios_base5widthEv
FN:528,_ZNSt3__18ios_base5widthEl
FNDA:0,_ZNSt3__18ios_base5widthEl
FN:546,_ZNSt3__18ios_base8setstateEj
FNDA:0,_ZNSt3__18ios_base8setstateEj
FN:623,_ZNSt3__19basic_iosIcNS_11char_traitsIcEEE8setstateEj
FNDA:0,_ZNSt3__19basic_iosIcNS_11char_traitsIcEEE8setstateEj
FN:665,_ZNSt3__19basic_iosIcNS_11char_traitsIcEEEC2Ev
FNDA:0,_ZNSt3__19basic_iosIcNS_11char_traitsIcEEEC2Ev
FN:698,_ZNSt3__19basic_iosIcNS_11char_traitsIcEEE4initEPNS_15basic_streambufIcS2_EE
FNDA:0,_ZNSt3__19basic_iosIcNS_11char_traitsIcEEE4initEPNS_15basic_streambufIcS2_EE
FN:726,_ZNKSt3__19basic_iosIcNS_11char_traitsIcEEE5rdbufEv
FNDA:0,_ZNKSt3__19basic_iosIcNS_11char_traitsIcEEE5rdbufEv
FN:764,_ZNKSt3__19basic_iosIcNS_11char_traitsIcEEE5widenEc
FNDA:0,_ZNKSt3__19basic_iosIcNS_11char_traitsIcEEE5widenEc
FN:772,_ZNKSt3__19basic_iosIcNS_11char_traitsIcEEE4fillEv
FNDA:0,_ZNKSt3__19basic_iosIcNS_11char_traitsIcEEE4fillEv
DA:344,0
DA:345,0
DA:348,0
DA:459,0
DA:461,0
DA:510,0
DA:512,0
DA:513,0
DA:514,0
DA:521,0
DA:523,0
DA:528,0
DA:530,0
DA:531,0
DA:532,0
DA:546,0
DA:548,0
DA:549,0
DA:623,0
DA:665,0
DA:666,0
DA:698,0
DA:700,0
DA:701,0
DA:702,0
DA:703,0
DA:726,0
DA:728,0
DA:764,0
DA:766,0
DA:767,0
DA:772,0
DA:774,0
DA:775,0
DA:776,0
FNF:13
FNH:0
LF:35
LH:0
end_of_record
SF:/Users/dogukanarat/Desktop/Workspace/RocketLab/Binaries/Debug/Intermediate/_deps/googletest-src/googletest/include/gtest/gtest.h
FN:283,_ZN7testing15AssertionResultD1Ev
FNDA:0,_ZN7testing15AssertionResultD1Ev
FN:283,_ZN7testing15AssertionResultD2Ev
FNDA:0,_ZN7testing15AssertionResultD2Ev
FN:324,_ZNK7testing15AssertionResultcvbEv
FNDA:0,_ZNK7testing15AssertionResultcvbEv
FN:333,_ZNK7testing15AssertionResult7messageEv
FNDA:0,_ZNK7testing15AssertionResult7messageEv
FN:337,_ZNK7testing15AssertionResult15failure_messageEv
FNDA:0,_ZNK7testing15AssertionResult15failure_messageEv
FN:340,_ZN7testing15AssertionResultlsIA12_cEERS0_RKT_
FNDA:0,_ZN7testing15AssertionResultlsIA12_cEERS0_RKT_
FN:340,_ZN7testing15AssertionResultlsIPKcEERS0_RKT_
FNDA:0,_ZN7testing15AssertionResultlsIPKcEERS0_RKT_
FN:340,_ZN7testing15AssertionResultlsIA3_cEERS0_RKT_
FNDA:0,_ZN7testing15AssertionResultlsIA3_cEERS0_RKT_
FN:340,_ZN7testing15AssertionResultlsINSt3__112basic_stringIcNS2_11char_traitsIcEENS2_9allocatorIcEEEEEERS0_RKT_
FNDA:0,_ZN7testing15AssertionResultlsINSt3__112basic_stringIcNS2_11char_traitsIcEENS2_9allocatorIcEEEEEERS0_RKT_
FN:340,_ZN7testing15AssertionResultlsIA5_cEERS0_RKT_
FNDA:0,_ZN7testing15AssertionResultlsIA5_cEERS0_RKT_
FN:355,_ZN7testing15AssertionResult13AppendMessageERKNS_7MessageE
FNDA:0,_ZN7testing15AssertionResult13AppendMessageERKNS_7MessageE
FN:427,_ZN7testing4Test14SetUpTestSuiteEv
FNDA:0,_ZN7testing4Test14SetUpTestSuiteEv
FN:435,_ZN7testing4Test17TearDownTestSuiteEv
FNDA:0,_ZN7testing4Test17TearDownTestSuiteEv
FN:440,_ZN7testing4Test16TearDownTestCaseEv
FNDA:0,_ZN7testing4Test16TearDownTestCaseEv
FN:441,_ZN7testing4Test13SetUpTestCaseEv
FNDA:0,_ZN7testing4Test13SetUpTestCaseEv
FN:522,_ZN7testing4Test5SetupEv
FNDA:0,_ZN7testing4Test5SetupEv
FN:1522,_ZN7testing8internal18CmpHelperEQFailureIisEENS_15AssertionResultEPKcS4_RKT_RKT0_
FNDA:0,_ZN7testing8internal18CmpHelperEQFailureIisEENS_15AssertionResultEPKcS4_RKT_RKT0_
FN:1541,_ZN7testing8internal11CmpHelperEQIisEENS_15AssertionResultEPKcS4_RKT_RKT0_
FNDA:8,_ZN7testing8internal11CmpHelperEQIisEENS_15AssertionResultEPKcS4_RKT_RKT0_
FN:1561,_ZN7testing8internal8EqHelper7CompareIisLPv0EEENS_15AssertionResultEPKcS6_RKT_RKT0_
FNDA:8,_ZN7testing8internal8EqHelper7CompareIisLPv0EEENS_15AssertionResultEPKcS6_RKT_RKT0_
FN:1595,_ZN7testing8internal18CmpHelperOpFailureIisEENS_15AssertionResultEPKcS4_RKT_RKT0_S4_
FNDA:0,_ZN7testing8internal18CmpHelperOpFailureIisEENS_15AssertionResultEPKcS4_RKT_RKT0_S4_
FN:1624,_ZN7testing8internal11CmpHelperNEIisEENS_15AssertionResultEPKcS4_RKT_RKT0_
FNDA:1,_ZN7testing8internal11CmpHelperNEIisEENS_15AssertionResultEPKcS4_RKT_RKT0_
FN:1733,_ZN7testing8internal24CmpHelperFloatingPointEQIfEENS_15AssertionResultEPKcS4_T_S5_
FNDA:2,_ZN7testing8internal24CmpHelperFloatingPointEQIfEENS_15AssertionResultEPKcS4_T_S5_
DA:324,0
DA:333,0
DA:334,0
DA:337,0
DA:340,0
DA:341,0
DA:342,0
DA:343,0
DA:355,0
DA:356,0
DA:357,0
DA:358,0
DA:427,0
DA:435,0
DA:440,0
DA:441,0
DA:522,0
DA:1522,0
DA:1525,0
DA:1526,0
DA:1527,0
DA:1528,0
DA:1530,0
DA:1541,8
DA:1545,8
DA:1546,8
DA:1549,0
DA:1550,8
DA:1561,8
DA:1564,8
DA:1595,0
DA:1598,0
DA:1599,0
DA:1600,0
DA:1601,0
DA:1602,0
DA:1624,1
DA:1733,2
DA:1737,2
DA:1739,2
DA:1740,2
DA:1743,0
DA:1744,0
DA:1745,0
DA:1747,0
DA:1748,0
DA:1749,0
DA:1751,0
DA:1752,0
DA:1753,0
DA:1754,0
DA:1756,2
FNF:22
FNH:4
LF:52
LH:12
end_of_record
SF:/Users/dogukanarat/Desktop/Workspace/RocketLab/Tests/UnitTestConversion.h
FN:10,_ZN4Test14TestConversionC2Ev
FNDA:4,_ZN4Test14TestConversionC2Ev
FN:14,_ZN4Test14TestConversionD1Ev
FNDA:0,_ZN4Test14TestConversionD1Ev
FN:14,_ZN4Test14TestConversionD0Ev
FNDA:0,_ZN4Test14TestConversionD0Ev
FN:14,_ZN4Test14TestConversionD2Ev
FNDA:4,_ZN4Test14TestConversionD2Ev
FN:18,_ZN4Test14TestConversion5SetUpEv
FNDA:4,_ZN4Test14TestConversion5SetUpEv
FN:22,_ZN4Test14TestConversion8TearDownEv
FNDA:4,_ZN4Test14TestConversion8TearDownEv
DA:10,8
DA:11,8
DA:12,4
DA:14,4
DA:15,0
DA:16,4
DA:18,4
DA:20,4
DA:22,4
DA:24,4
FNF:6
FNH:4
LF:10
LH:9
end_of_record
SF:/Library/Developer/CommandLineTools/SDKs/MacOSX12.3.sdk/usr/include/c++/v1/__locale
FN:252,_ZNSt3__1L9use_facetINS_5ctypeIcEEEERKT_RKNS_6localeE
FNDA:0,_ZNSt3__1L9use_facetINS_5ctypeIcEEEERKT_RKNS_6localeE
FN:697,_ZNKSt3__15ctypeIcE5widenEc
FNDA:0,_ZNKSt3__15ctypeIcE5widenEc
DA:252,0
DA:254,0
DA:697,0
DA:699,0
FNF:2
FNH:0
LF:4
LH:0
end_of_record
SF:/Library/Developer/CommandLineTools/SDKs/MacOSX12.3.sdk/usr/include/c++/v1/__iterator/ostreambuf_iterator.h
FN:53,_ZNSt3__119ostreambuf_iteratorIcNS_11char_traitsIcEEEC1ERNS_13basic_ostreamIcS2_EE
FNDA:0,_ZNSt3__119ostreambuf_iteratorIcNS_11char_traitsIcEEEC1ERNS_13basic_ostreamIcS2_EE
FN:53,_ZNSt3__119ostreambuf_iteratorIcNS_11char_traitsIcEEEC2ERNS_13basic_ostreamIcS2_EE
FNDA:0,_ZNSt3__119ostreambuf_iteratorIcNS_11char_traitsIcEEEC2ERNS_13basic_ostreamIcS2_EE
FN:66,_ZNKSt3__119ostreambuf_iteratorIcNS_11char_traitsIcEEE6failedEv
FNDA:0,_ZNKSt3__119ostreambuf_iteratorIcNS_11char_traitsIcEEE6failedEv
DA:53,0
DA:54,0
DA:66,0
FNF:3
FNH:0
LF:3
LH:0
end_of_record
SF:/Library/Developer/CommandLineTools/SDKs/MacOSX12.3.sdk/usr/include/c++/v1/__memory/allocator.h
FN:74,_ZNSt3__116__non_trivial_ifILb1ENS_9allocatorIcEEEC2Ev
FNDA:80,_ZNSt3__116__non_trivial_ifILb1ENS_9allocatorIcEEEC2Ev
FN:94,_ZNSt3__19allocatorIcEC2Ev
FNDA:80,_ZNSt3__19allocatorIcEC2Ev
DA:74,80
DA:94,80
FNF:2
FNH:2
LF:2
LH:2
end_of_record
SF:/Library/Developer/CommandLineTools/SDKs/MacOSX12.3.sdk/usr/include/c++/v1/__memory/unique_ptr.h
FN:52,_ZNKSt3__114default_deleteINS_18basic_stringstreamIcNS_11char_traitsIcEENS_9allocatorIcEEEEEclEPS6_
FNDA:0,_ZNKSt3__114default_deleteINS_18basic_stringstreamIcNS_11char_traitsIcEENS_9allocatorIcEEEEEclEPS6_
FN:52,_ZNKSt3__114default_deleteINS_12basic_stringIcNS_11char_traitsIcEENS_9allocatorIcEEEEEclEPS6_
FNDA:0,_ZNKSt3__114default_deleteINS_12basic_stringIcNS_11char_traitsIcEENS_9allocatorIcEEEEEclEPS6_
FN:272,_ZNSt3__110unique_ptrINS_18basic_stringstreamIcNS_11char_traitsIcEENS_9allocatorIcEEEENS_14default_deleteIS6_EEED1Ev
FNDA:0,_ZNSt3__110unique_ptrINS_18basic_stringstreamIcNS_11char_traitsIcEENS_9allocatorIcEEEENS_14default_deleteIS6_EEED1Ev
FN:272,_ZNSt3__110unique_ptrINS_18basic_stringstreamIcNS_11char_traitsIcEENS_9allocatorIcEEEENS_14default_deleteIS6_EEED2Ev
FNDA:0,_ZNSt3__110unique_ptrINS_18basic_stringstreamIcNS_11char_traitsIcEENS_9allocatorIcEEEENS_14default_deleteIS6_EEED2Ev
FN:272,_ZNSt3__110unique_ptrINS_12basic_stringIcNS_11char_traitsIcEENS_9allocatorIcEEEENS_14default_deleteIS6_EEED1Ev
FNDA:0,_ZNSt3__110unique_ptrINS_12basic_stringIcNS_11char_traitsIcEENS_9allocatorIcEEEENS_14default_deleteIS6_EEED1Ev
FN:272,_ZNSt3__110unique_ptrINS_12basic_stringIcNS_11char_traitsIcEENS_9allocatorIcEEEENS_14default_deleteIS6_EEED2Ev
FNDA:0,_ZNSt3__110unique_ptrINS_12basic_stringIcNS_11char_traitsIcEENS_9allocatorIcEEEENS_14default_deleteIS6_EEED2Ev
FN:282,_ZNKSt3__110unique_ptrINS_18basic_stringstreamIcNS_11char_traitsIcEENS_9allocatorIcEEEENS_14default_deleteIS6_EEEdeEv
FNDA:400,_ZNKSt3__110unique_ptrINS_18basic_stringstreamIcNS_11char_traitsIcEENS_9allocatorIcEEEENS_14default_deleteIS6_EEEdeEv
FN:286,_ZNKSt3__110unique_ptrINS_12basic_stringIcNS_11char_traitsIcEENS_9allocatorIcEEEENS_14default_deleteIS6_EEEptEv
FNDA:0,_ZNKSt3__110unique_ptrINS_12basic_stringIcNS_11char_traitsIcEENS_9allocatorIcEEEENS_14default_deleteIS6_EEEptEv
FN:290,_ZNKSt3__110unique_ptrINS_12basic_stringIcNS_11char_traitsIcEENS_9allocatorIcEEEENS_14default_deleteIS6_EEE3getEv
FNDA:0,_ZNKSt3__110unique_ptrINS_12basic_stringIcNS_11char_traitsIcEENS_9allocatorIcEEEENS_14default_deleteIS6_EEE3getEv
FN:314,_ZNSt3__110unique_ptrINS_18basic_stringstreamIcNS_11char_traitsIcEENS_9allocatorIcEEEENS_14default_deleteIS6_EEE5resetEPS6_
FNDA:0,_ZNSt3__110unique_ptrINS_18basic_stringstreamIcNS_11char_traitsIcEENS_9allocatorIcEEEENS_14default_deleteIS6_EEE5resetEPS6_
FN:314,_ZNSt3__110unique_ptrINS_12basic_stringIcNS_11char_traitsIcEENS_9allocatorIcEEEENS_14default_deleteIS6_EEE5resetEPS6_
FNDA:0,_ZNSt3__110unique_ptrINS_12basic_stringIcNS_11char_traitsIcEENS_9allocatorIcEEEENS_14default_deleteIS6_EEE5resetEPS6_
DA:52,0
DA:57,0
DA:58,0
DA:272,0
DA:282,400
DA:283,400
DA:286,0
DA:287,0
DA:290,0
DA:291,0
DA:314,0
DA:315,0
DA:316,0
DA:317,0
DA:318,0
DA:319,0
FNF:11
FNH:1
LF:16
LH:2
end_of_record
SF:/Library/Developer/CommandLineTools/SDKs/MacOSX12.3.sdk/usr/include/c++/v1/iomanip
FN:209,_ZNSt3__18__iom_t5C1Ei
FNDA:0,_ZNSt3__18__iom_t5C1Ei
FN:209,_ZNSt3__18__iom_t5C2Ei
FNDA:0,_ZNSt3__18__iom_t5C2Ei
FN:225,_ZNSt3__1lsIcNS_11char_traitsIcEEEERNS_13basic_ostreamIT_T0_EES7_RKNS_8__iom_t5E
FNDA:0,_ZNSt3__1lsIcNS_11char_traitsIcEEEERNS_13basic_ostreamIT_T0_EES7_RKNS_8__iom_t5E
FN:234,_ZNSt3__1L12setprecisionEi
FNDA:0,_ZNSt3__1L12setprecisionEi
DA:209,0
DA:225,0
DA:227,0
DA:228,0
DA:234,0
DA:236,0
FNF:4
FNH:0
LF:6
LH:0
end_of_record
SF:/Library/Developer/CommandLineTools/SDKs/MacOSX12.3.sdk/usr/include/c++/v1/string
FN:840,_ZNSt3__112basic_stringIcNS_11char_traitsIcEENS_9allocatorIcEEEC1IDnEEPKc
FNDA:80,_ZNSt3__112basic_stringIcNS_11char_traitsIcEENS_9allocatorIcEEEC1IDnEEPKc
FN:840,_ZNSt3__112basic_stringIcNS_11char_traitsIcEENS_9allocatorIcEEEC2IDnEEPKc
FNDA:80,_ZNSt3__112basic_stringIcNS_11char_traitsIcEENS_9allocatorIcEEEC2IDnEEPKc
FN:977,_ZNKSt3__112basic_stringIcNS_11char_traitsIcEENS_9allocatorIcEEE4sizeEv
FNDA:0,_ZNKSt3__112basic_stringIcNS_11char_traitsIcEENS_9allocatorIcEEE4sizeEv
FN:1263,_ZNKSt3__112basic_stringIcNS_11char_traitsIcEENS_9allocatorIcEEE5c_strEv
FNDA:0,_ZNKSt3__112basic_stringIcNS_11char_traitsIcEENS_9allocatorIcEEE5c_strEv
FN:1265,_ZNKSt3__112basic_stringIcNS_11char_traitsIcEENS_9allocatorIcEEE4dataEv
FNDA:0,_ZNKSt3__112basic_stringIcNS_11char_traitsIcEENS_9allocatorIcEEE4dataEv
FN:1268,_ZNSt3__112basic_stringIcNS_11char_traitsIcEENS_9allocatorIcEEE4dataEv
FNDA:0,_ZNSt3__112basic_stringIcNS_11char_traitsIcEENS_9allocatorIcEEE4dataEv
FN:1458,_ZNKSt3__112basic_stringIcNS_11char_traitsIcEENS_9allocatorIcEEE9__is_longEv
FNDA:0,_ZNKSt3__112basic_stringIcNS_11char_traitsIcEENS_9allocatorIcEEE9__is_longEv
FN:1489,_ZNKSt3__112basic_stringIcNS_11char_traitsIcEENS_9allocatorIcEEE16__get_short_sizeEv
FNDA:0,_ZNKSt3__112basic_stringIcNS_11char_traitsIcEENS_9allocatorIcEEE16__get_short_sizeEv
FN:1520,_ZNKSt3__112basic_stringIcNS_11char_traitsIcEENS_9allocatorIcEEE15__get_long_sizeEv
FNDA:0,_ZNKSt3__112basic_stringIcNS_11char_traitsIcEENS_9allocatorIcEEE15__get_long_sizeEv
FN:1537,_ZNSt3__112basic_stringIcNS_11char_traitsIcEENS_9allocatorIcEEE18__get_long_pointerEv
FNDA:0,_ZNSt3__112basic_stringIcNS_11char_traitsIcEENS_9allocatorIcEEE18__get_long_pointerEv
FN:1540,_ZNKSt3__112basic_stringIcNS_11char_traitsIcEENS_9allocatorIcEEE18__get_long_pointerEv
FNDA:0,_ZNKSt3__112basic_stringIcNS_11char_traitsIcEENS_9allocatorIcEEE18__get_long_pointerEv
FN:1543,_ZNSt3__112basic_stringIcNS_11char_traitsIcEENS_9allocatorIcEEE19__get_short_pointerEv
FNDA:0,_ZNSt3__112basic_stringIcNS_11char_traitsIcEENS_9allocatorIcEEE19__get_short_pointerEv
FN:1546,_ZNKSt3__112basic_stringIcNS_11char_traitsIcEENS_9allocatorIcEEE19__get_short_pointerEv
FNDA:0,_ZNKSt3__112basic_stringIcNS_11char_traitsIcEENS_9allocatorIcEEE19__get_short_pointerEv
FN:1549,_ZNSt3__112basic_stringIcNS_11char_traitsIcEENS_9allocatorIcEEE13__get_pointerEv
FNDA:0,_ZNSt3__112basic_stringIcNS_11char_traitsIcEENS_9allocatorIcEEE13__get_pointerEv
FN:1552,_ZNKSt3__112basic_stringIcNS_11char_traitsIcEENS_9allocatorIcEEE13__get_pointerEv
FNDA:0,_ZNKSt3__112basic_stringIcNS_11char_traitsIcEENS_9allocatorIcEEE13__get_pointerEv
FN:1556,_ZNSt3__112basic_stringIcNS_11char_traitsIcEENS_9allocatorIcEEE6__zeroEv
FNDA:0,_ZNSt3__112basic_stringIcNS_11char_traitsIcEENS_9allocatorIcEEE6__zeroEv
FN:1829,_ZNSt3__112basic_stringIcNS_11char_traitsIcEENS_9allocatorIcEEEC1Ev
FNDA:0,_ZNSt3__112basic_stringIcNS_11char_traitsIcEENS_9allocatorIcEEEC1Ev
FN:1829,_ZNSt3__112basic_stringIcNS_11char_traitsIcEENS_9allocatorIcEEEC2Ev
FNDA:0,_ZNSt3__112basic_stringIcNS_11char_traitsIcEENS_9allocatorIcEEEC2Ev
FN:2056,_ZNSt3__112basic_stringIcNS_11char_traitsIcEENS_9allocatorIcEEEC1Emc
FNDA:0,_ZNSt3__112basic_stringIcNS_11char_traitsIcEENS_9allocatorIcEEEC1Emc
FN:2056,_ZNSt3__112basic_stringIcNS_11char_traitsIcEENS_9allocatorIcEEEC2Emc
FNDA:0,_ZNSt3__112basic_stringIcNS_11char_traitsIcEENS_9allocatorIcEEEC2Emc
DA:840,160
DA:842,80
DA:846,160
DA:977,0
DA:978,0
DA:1263,0
DA:1265,0
DA:1268,0
DA:1458,0
DA:1459,0
DA:1489,0
DA:1493,0
DA:1520,0
DA:1521,0
DA:1537,0
DA:1538,0
DA:1540,0
DA:1541,0
DA:1543,0
DA:1544,0
DA:1546,0
DA:1547,0
DA:1549,0
DA:1550,0
DA:1552,0
DA:1553,0
DA:1556,0
DA:1558,0
DA:1559,0
DA:1560,0
DA:1561,0
DA:1829,0
DA:1831,0
DA:1832,0
DA:1836,0
DA:1837,0
DA:2056,0
DA:2057,0
DA:2058,0
DA:2059,0
DA:2063,0
FNF:20
FNH:2
LF:41
LH:3
end_of_record
SF:/Library/Developer/CommandLineTools/SDKs/MacOSX12.3.sdk/usr/include/c++/v1/streambuf
FN:228,_ZNSt3__115basic_streambufIcNS_11char_traitsIcEEE5sputnEPKcl
FNDA:0,_ZNSt3__115basic_streambufIcNS_11char_traitsIcEEE5sputnEPKcl
DA:228,0
DA:229,0
FNF:1
FNH:0
LF:2
LH:0
end_of_record
SF:/Library/Developer/CommandLineTools/SDKs/MacOSX12.3.sdk/usr/include/c++/v1/__memory/addressof.h
FN:30,_ZNSt3__1L9addressofIKcEEPT_RS2_
FNDA:0,_ZNSt3__1L9addressofIKcEEPT_RS2_
FN:30,_ZNSt3__1L9addressofIcEEPT_RS1_
FNDA:0,_ZNSt3__1L9addressofIcEEPT_RS1_
DA:30,0
DA:32,0
FNF:2
FNH:0
LF:2
LH:0
end_of_record
SF:/Users/dogukanarat/Desktop/Workspace/RocketLab/Binaries/Debug/Intermediate/_deps/googletest-src/googletest/include/gtest/internal/gtest-internal.h
FN:298,_ZN7testing8internal13FloatingPointIfEC1ERKf
FNDA:4,_ZN7testing8internal13FloatingPointIfEC1ERKf
FN:298,_ZN7testing8internal13FloatingPointIfEC2ERKf
FNDA:4,_ZN7testing8internal13FloatingPointIfEC2ERKf
FN:325,_ZNK7testing8internal13FloatingPointIfE13exponent_bitsEv
FNDA:4,_ZNK7testing8internal13FloatingPointIfE13exponent_bitsEv
FN:328,_ZNK7testing8internal13FloatingPointIfE13fraction_bitsEv
FNDA:0,_ZNK7testing8internal13FloatingPointIfE13fraction_bitsEv
FN:334,_ZNK7testing8internal13FloatingPointIfE6is_nanEv
FNDA:4,_ZNK7testing8internal13FloatingPointIfE6is_nanEv
FN:346,_ZNK7testing8internal13FloatingPointIfE12AlmostEqualsERKS2_
FNDA:2,_ZNK7testing8internal13FloatingPointIfE12AlmostEqualsERKS2_
FN:377,_ZN7testing8internal13FloatingPointIfE24SignAndMagnitudeToBiasedERKj
FNDA:4,_ZN7testing8internal13FloatingPointIfE24SignAndMagnitudeToBiasedERKj
FN:389,_ZN7testing8internal13FloatingPointIfE38DistanceBetweenSignAndMagnitudeNumbersERKjS4_
FNDA:2,_ZN7testing8internal13FloatingPointIfE38DistanceBetweenSignAndMagnitudeNumbersERKjS4_
FN:435,_ZN7testing8internal9GetTypeIdIN4Test14TestConversionEEEPKvv
FNDA:80,_ZN7testing8internal9GetTypeIdIN4Test14TestConversionEEEPKvv
FN:454,_ZN7testing8internal15TestFactoryBaseD1Ev
FNDA:0,_ZN7testing8internal15TestFactoryBaseD1Ev
FN:454,_ZN7testing8internal15TestFactoryBaseD0Ev
FNDA:0,_ZN7testing8internal15TestFactoryBaseD0Ev
FN:454,_ZN7testing8internal15TestFactoryBaseD2Ev
FNDA:0,_ZN7testing8internal15TestFactoryBaseD2Ev
FN:461,_ZN7testing8internal15TestFactoryBaseC2Ev
FNDA:0,_ZN7testing8internal15TestFactoryBaseC2Ev
FN:470,_ZN7testing8internal15TestFactoryImplI41TestConversion_CheckSearchBoundaries_TestEC1Ev
FNDA:20,_ZN7testing8internal15TestFactoryImplI41TestConversion_CheckSearchBoundaries_TestEC1Ev
FN:470,_ZN7testing8internal15TestFactoryImplI37TestConversion_CheckSearchResult_TestEC1Ev
FNDA:20,_ZN7testing8internal15TestFactoryImplI37TestConversion_CheckSearchResult_TestEC1Ev
FN:470,_ZN7testing8internal15TestFactoryImplI34TestConversion_CheckNormalize_TestEC1Ev
FNDA:20,_ZN7testing8internal15TestFactoryImplI34TestConversion_CheckNormalize_TestEC1Ev
FN:470,_ZN7testing8internal15TestFactoryImplI36TestConversion_CheckGetPressure_TestEC1Ev
FNDA:20,_ZN7testing8internal15TestFactoryImplI36TestConversion_CheckGetPressure_TestEC1Ev
FN:470,_ZN7testing8internal15TestFactoryImplI41TestConversion_CheckSearchBoundaries_TestEC2Ev
FNDA:20,_ZN7testing8internal15TestFactoryImplI41TestConversion_CheckSearchBoundaries_TestEC2Ev
FN:470,_ZN7testing8internal15TestFactoryImplI41TestConversion_CheckSearchBoundaries_TestED1Ev
FNDA:0,_ZN7testing8internal15TestFactoryImplI41TestConversion_CheckSearchBoundaries_TestED1Ev
FN:470,_ZN7testing8internal15TestFactoryImplI41TestConversion_CheckSearchBoundaries_TestED0Ev
FNDA:0,_ZN7testing8internal15TestFactoryImplI41TestConversion_CheckSearchBoundaries_TestED0Ev
FN:470,_ZN7testing8internal15TestFactoryImplI41TestConversion_CheckSearchBoundaries_TestED2Ev
FNDA:0,_ZN7testing8internal15TestFactoryImplI41TestConversion_CheckSearchBoundaries_TestED2Ev
FN:470,_ZN7testing8internal15TestFactoryImplI37TestConversion_CheckSearchResult_TestEC2Ev
FNDA:20,_ZN7testing8internal15TestFactoryImplI37TestConversion_CheckSearchResult_TestEC2Ev
FN:470,_ZN7testing8internal15TestFactoryImplI37TestConversion_CheckSearchResult_TestED1Ev
FNDA:0,_ZN7testing8internal15TestFactoryImplI37TestConversion_CheckSearchResult_TestED1Ev
FN:470,_ZN7testing8internal15TestFactoryImplI37TestConversion_CheckSearchResult_TestED0Ev
FNDA:0,_ZN7testing8internal15TestFactoryImplI37TestConversion_CheckSearchResult_TestED0Ev
FN:470,_ZN7testing8internal15TestFactoryImplI37TestConversion_CheckSearchResult_TestED2Ev
FNDA:0,_ZN7testing8internal15TestFactoryImplI37TestConversion_CheckSearchResult_TestED2Ev
FN:470,_ZN7testing8internal15TestFactoryImplI34TestConversion_CheckNormalize_TestEC2Ev
FNDA:20,_ZN7testing8internal15TestFactoryImplI34TestConversion_CheckNormalize_TestEC2Ev
FN:470,_ZN7testing8internal15TestFactoryImplI34TestConversion_CheckNormalize_TestED1Ev
FNDA:0,_ZN7testing8internal15TestFactoryImplI34TestConversion_CheckNormalize_TestED1Ev
FN:470,_ZN7testing8internal15TestFactoryImplI34TestConversion_CheckNormalize_TestED0Ev
FNDA:0,_ZN7testing8internal15TestFactoryImplI34TestConversion_CheckNormalize_TestED0Ev
FN:470,_ZN7testing8internal15TestFactoryImplI34TestConversion_CheckNormalize_TestED2Ev
FNDA:0,_ZN7testing8internal15TestFactoryImplI34TestConversion_CheckNormalize_TestED2Ev
FN:470,_ZN7testing8internal15TestFactoryImplI36TestConversion_CheckGetPressure_TestEC2Ev
FNDA:20,_ZN7testing8internal15TestFactoryImplI36TestConversion_CheckGetPressure_TestEC2Ev
FN:470,_ZN7testing8internal15TestFactoryImplI36TestConversion_CheckGetPressure_TestED1Ev
FNDA:0,_ZN7testing8internal15TestFactoryImplI36TestConversion_CheckGetPressure_TestED1Ev
FN:470,_ZN7testing8internal15TestFactoryImplI36TestConversion_CheckGetPressure_TestED0Ev
FNDA:0,_ZN7testing8internal15TestFactoryImplI36TestConversion_CheckGetPressure_TestED0Ev
FN:470,_ZN7testing8internal15TestFactoryImplI36TestConversion_CheckGetPressure_TestED2Ev
FNDA:0,_ZN7testing8internal15TestFactoryImplI36TestConversion_CheckGetPressure_TestED2Ev
FN:472,_ZN7testing8internal15TestFactoryImplI41TestConversion_CheckSearchBoundaries_TestE10CreateTestEv
FNDA:1,_ZN7testing8internal15TestFactoryImplI41TestConversion_CheckSearchBoundaries_TestE10CreateTestEv
FN:472,_ZN7testing8internal15TestFactoryImplI37TestConversion_CheckSearchResult_TestE10CreateTestEv
FNDA:1,_ZN7testing8internal15TestFactoryImplI37TestConversion_CheckSearchResult_TestE10CreateTestEv
FN:472,_ZN7testing8internal15TestFactoryImplI34TestConversion_CheckNormalize_TestE10CreateTestEv
FNDA:1,_ZN7testing8internal15TestFactoryImplI34TestConversion_CheckNormalize_TestE10CreateTestEv
FN:472,_ZN7testing8internal15TestFactoryImplI36TestConversion_CheckGetPressure_TestE10CreateTestEv
FNDA:1,_ZN7testing8internal15TestFactoryImplI36TestConversion_CheckGetPressure_TestE10CreateTestEv
FN:492,_ZN7testing8internal12CodeLocationD1Ev
FNDA:0,_ZN7testing8internal12CodeLocationD1Ev
FN:492,_ZN7testing8internal12CodeLocationD2Ev
FNDA:0,_ZN7testing8internal12CodeLocationD2Ev
FN:493,_ZN7testing8internal12CodeLocationC1ERKNSt3__112basic_stringIcNS2_11char_traitsIcEENS2_9allocatorIcEEEEi
FNDA:0,_ZN7testing8internal12CodeLocationC1ERKNSt3__112basic_stringIcNS2_11char_traitsIcEENS2_9allocatorIcEEEEi
FN:493,_ZN7testing8internal12CodeLocationC2ERKNSt3__112basic_stringIcNS2_11char_traitsIcEENS2_9allocatorIcEEEEi
FNDA:0,_ZN7testing8internal12CodeLocationC2ERKNSt3__112basic_stringIcNS2_11char_traitsIcEENS2_9allocatorIcEEEEi
FN:506,_ZN7testing8internal19GetNotDefaultOrNullEPFvvES2_
FNDA:0,_ZN7testing8internal19GetNotDefaultOrNullEPFvvES2_
FN:521,_ZN7testing8internal16SuiteApiResolverIN4Test14TestConversionEE19GetSetUpCaseOrSuiteEPKci
FNDA:80,_ZN7testing8internal16SuiteApiResolverIN4Test14TestConversionEE19GetSetUpCaseOrSuiteEPKci
FN:542,_ZN7testing8internal16SuiteApiResolverIN4Test14TestConversionEE22GetTearDownCaseOrSuiteEPKci
FNDA:80,_ZN7testing8internal16SuiteApiResolverIN4Test14TestConversionEE22GetTearDownCaseOrSuiteEPKci
DA:298,8
DA:325,4
DA:328,0
DA:334,4
DA:337,4
DA:346,2
DA:349,2
DA:351,4
DA:352,2
DA:353,2
DA:377,4
DA:378,4
DA:380,0
DA:383,4
DA:385,4
DA:389,2
DA:391,2
DA:392,2
DA:393,2
DA:435,80
DA:440,80
DA:454,0
DA:461,0
DA:472,4
DA:493,0
DA:494,0
DA:506,0
DA:508,0
DA:521,80
DA:524,80
DA:525,80
DA:526,80
DA:527,80
DA:529,80
DA:530,0
DA:532,0
DA:534,80
DA:540,0
DA:542,80
DA:545,80
DA:546,80
DA:547,80
DA:548,80
DA:550,80
DA:551,0
DA:553,0
DA:555,80
DA:561,0
FNF:44
FNH:22
LF:48
LH:34
end_of_record
SF:/Users/dogukanarat/Desktop/Workspace/RocketLab/Binaries/Debug/Intermediate/_deps/googletest-src/googletest/include/gtest/gtest-message.h
FN:91,_ZN7testing7MessageD1Ev
FNDA:0,_ZN7testing7MessageD1Ev
FN:91,_ZN7testing7MessageD2Ev
FNDA:0,_ZN7testing7MessageD2Ev
FN:113,_ZN7testing7MessagelsIA12_cEERS0_RKT_
FNDA:0,_ZN7testing7MessagelsIA12_cEERS0_RKT_
FN:113,_ZN7testing7MessagelsIA3_cEERS0_RKT_
FNDA:0,_ZN7testing7MessagelsIA3_cEERS0_RKT_
FN:113,_ZN7testing7MessagelsINSt3__112basic_stringIcNS2_11char_traitsIcEENS2_9allocatorIcEEEEEERS0_RKT_
FNDA:0,_ZN7testing7MessagelsINSt3__112basic_stringIcNS2_11char_traitsIcEENS2_9allocatorIcEEEEEERS0_RKT_
FN:113,_ZN7testing7MessagelsIA5_cEERS0_RKT_
FNDA:0,_ZN7testing7MessagelsIA5_cEERS0_RKT_
FN:147,_ZN7testing7MessagelsIKcEERS0_RKPT_
FNDA:400,_ZN7testing7MessagelsIKcEERS0_RKPT_
DA:113,0
DA:129,0
DA:130,0
DA:147,400
DA:148,400
DA:149,0
DA:150,0
DA:151,400
DA:153,400
FNF:7
FNH:1
LF:9
LH:4
end_of_record
SF:/Library/Developer/CommandLineTools/SDKs/MacOSX12.3.sdk/usr/include/c++/v1/__utility/forward.h
FN:27,_ZNSt3__1L7forwardINS_18__default_init_tagEEEOT_RNS_16remove_referenceIS2_E4typeE
FNDA:160,_ZNSt3__1L7forwardINS_18__default_init_tagEEEOT_RNS_16remove_referenceIS2_E4typeE
DA:27,160
DA:28,160
FNF:1
FNH:1
LF:2
LH:2
end_of_record
SF:/Users/dogukanarat/Desktop/Workspace/RocketLab/Binaries/Debug/Intermediate/_deps/googletest-src/googletest/include/gtest/internal/gtest-port.h
FN:970,_ZN7testing8internal8GTestLog9GetStreamEv
FNDA:0,_ZN7testing8internal8GTestLog9GetStreamEv
DA:970,0
FNF:1
FNH:0
LF:1
LH:0
end_of_record
SF:/Users/dogukanarat/Desktop/Workspace/RocketLab/Binaries/Debug/Intermediate/_deps/googletest-src/googletest/include/gtest/gtest-printers.h
FN:212,_ZN7testing8internal52internal_stream_operator_without_lexical_name_lookup13StreamPrinter10PrintValueIivRNSt3__113basic_ostreamIcNS4_11char_traitsIcEEEEEEvRKT_PS8_
FNDA:0,_ZN7testing8internal52internal_stream_operator_without_lexical_name_lookup13StreamPrinter10PrintValueIivRNSt3__113basic_ostreamIcNS4_11char_traitsIcEEEEEEvRKT_PS8_
FN:212,_ZN7testing8internal52internal_stream_operator_without_lexical_name_lookup13StreamPrinter10PrintValueIsvRNSt3__113basic_ostreamIcNS4_11char_traitsIcEEEEEEvRKT_PS8_
FNDA:0,_ZN7testing8internal52internal_stream_operator_without_lexical_name_lookup13StreamPrinter10PrintValueIsvRNSt3__113basic_ostreamIcNS4_11char_traitsIcEEEEEEvRKT_PS8_
FN:306,_ZN7testing8internal17PrintWithFallbackIiEEvRKT_PNSt3__113basic_ostreamIcNS5_11char_traitsIcEEEE
FNDA:0,_ZN7testing8internal17PrintWithFallbackIiEEvRKT_PNSt3__113basic_ostreamIcNS5_11char_traitsIcEEEE
FN:306,_ZN7testing8internal17PrintWithFallbackIsEEvRKT_PNSt3__113basic_ostreamIcNS5_11char_traitsIcEEEE
FNDA:0,_ZN7testing8internal17PrintWithFallbackIsEEvRKT_PNSt3__113basic_ostreamIcNS5_11char_traitsIcEEEE
FN:333,_ZN7testing8internal19FormatForComparisonIisE6FormatERKi
FNDA:0,_ZN7testing8internal19FormatForComparisonIisE6FormatERKi
FN:333,_ZN7testing8internal19FormatForComparisonIsiE6FormatERKs
FNDA:0,_ZN7testing8internal19FormatForComparisonIsiE6FormatERKs
FN:413,_ZN7testing8internal33FormatForComparisonFailureMessageIisEENSt3__112basic_stringIcNS2_11char_traitsIcEENS2_9allocatorIcEEEERKT_RKT0_
FNDA:0,_ZN7testing8internal33FormatForComparisonFailureMessageIisEENSt3__112basic_stringIcNS2_11char_traitsIcEENS2_9allocatorIcEEEERKT_RKT0_
FN:413,_ZN7testing8internal33FormatForComparisonFailureMessageIsiEENSt3__112basic_stringIcNS2_11char_traitsIcEENS2_9allocatorIcEEEERKT_RKT0_
FNDA:0,_ZN7testing8internal33FormatForComparisonFailureMessageIsiEENSt3__112basic_stringIcNS2_11char_traitsIcEENS2_9allocatorIcEEEERKT_RKT0_
FN:440,_ZN7testing8internal7PrintToIiEEvRKT_PNSt3__113basic_ostreamIcNS5_11char_traitsIcEEEE
FNDA:0,_ZN7testing8internal7PrintToIiEEvRKT_PNSt3__113basic_ostreamIcNS5_11char_traitsIcEEEE
FN:440,_ZN7testing8internal7PrintToIsEEvRKT_PNSt3__113basic_ostreamIcNS5_11char_traitsIcEEEE
FNDA:0,_ZN7testing8internal7PrintToIsEEvRKT_PNSt3__113basic_ostreamIcNS5_11char_traitsIcEEEE
FN:665,_ZN7testing8internal16UniversalPrinterIiE5PrintERKiPNSt3__113basic_ostreamIcNS5_11char_traitsIcEEEE
FNDA:0,_ZN7testing8internal16UniversalPrinterIiE5PrintERKiPNSt3__113basic_ostreamIcNS5_11char_traitsIcEEEE
FN:665,_ZN7testing8internal16UniversalPrinterIsE5PrintERKsPNSt3__113basic_ostreamIcNS5_11char_traitsIcEEEE
FNDA:0,_ZN7testing8internal16UniversalPrinterIsE5PrintERKsPNSt3__113basic_ostreamIcNS5_11char_traitsIcEEEE
FN:833,_ZN7testing8internal21UniversalTersePrinterIiE5PrintERKiPNSt3__113basic_ostreamIcNS5_11char_traitsIcEEEE
FNDA:0,_ZN7testing8internal21UniversalTersePrinterIiE5PrintERKiPNSt3__113basic_ostreamIcNS5_11char_traitsIcEEEE
FN:833,_ZN7testing8internal21UniversalTersePrinterIsE5PrintERKsPNSt3__113basic_ostreamIcNS5_11char_traitsIcEEEE
FNDA:0,_ZN7testing8internal21UniversalTersePrinterIsE5PrintERKsPNSt3__113basic_ostreamIcNS5_11char_traitsIcEEEE
FN:902,_ZN7testing8internal14UniversalPrintIiEEvRKT_PNSt3__113basic_ostreamIcNS5_11char_traitsIcEEEE
FNDA:0,_ZN7testing8internal14UniversalPrintIiEEvRKT_PNSt3__113basic_ostreamIcNS5_11char_traitsIcEEEE
FN:902,_ZN7testing8internal14UniversalPrintIsEEvRKT_PNSt3__113basic_ostreamIcNS5_11char_traitsIcEEEE
FNDA:0,_ZN7testing8internal14UniversalPrintIsEEvRKT_PNSt3__113basic_ostreamIcNS5_11char_traitsIcEEEE
FN:942,_ZN7testing13PrintToStringIiEENSt3__112basic_stringIcNS1_11char_traitsIcEENS1_9allocatorIcEEEERKT_
FNDA:0,_ZN7testing13PrintToStringIiEENSt3__112basic_stringIcNS1_11char_traitsIcEENS1_9allocatorIcEEEERKT_
FN:942,_ZN7testing13PrintToStringIsEENSt3__112basic_stringIcNS1_11char_traitsIcEENS1_9allocatorIcEEEERKT_
FNDA:0,_ZN7testing13PrintToStringIsEENSt3__112basic_stringIcNS1_11char_traitsIcEENS1_9allocatorIcEEEERKT_
DA:212,0
DA:215,0
DA:216,0
DA:306,0
DA:312,0
DA:313,0
DA:333,0
DA:334,0
DA:413,0
DA:415,0
DA:440,0
DA:441,0
DA:442,0
DA:665,0
DA:674,0
DA:675,0
DA:833,0
DA:834,0
DA:835,0
DA:902,0
DA:906,0
DA:907,0
DA:942,0
DA:943,0
DA:944,0
DA:945,0
DA:946,0
FNF:18
FNH:0
LF:27
LH:0
end_of_record
SF:/Library/Developer/CommandLineTools/SDKs/MacOSX12.3.sdk/usr/include/c++/v1/__memory/compressed_pair.h
FN:41,_ZNSt3__122__compressed_pair_elemINS_12basic_stringIcNS_11char_traitsIcEENS_9allocatorIcEEE5__repELi0ELb0EEC2ENS_18__default_init_tagE
FNDA:80,_ZNSt3__122__compressed_pair_elemINS_12basic_stringIcNS_11char_traitsIcEENS_9allocatorIcEEE5__repELi0ELb0EEC2ENS_18__default_init_tagE
FN:65,_ZNSt3__122__compressed_pair_elemIPNS_18basic_stringstreamIcNS_11char_traitsIcEENS_9allocatorIcEEEELi0ELb0EE5__getEv
FNDA:0,_ZNSt3__122__compressed_pair_elemIPNS_18basic_stringstreamIcNS_11char_traitsIcEENS_9allocatorIcEEEELi0ELb0EE5__getEv
FN:65,_ZNSt3__122__compressed_pair_elemIPNS_12basic_stringIcNS_11char_traitsIcEENS_9allocatorIcEEEELi0ELb0EE5__getEv
FNDA:0,_ZNSt3__122__compressed_pair_elemIPNS_12basic_stringIcNS_11char_traitsIcEENS_9allocatorIcEEEELi0ELb0EE5__getEv
FN:65,_ZNSt3__122__compressed_pair_elemINS_12basic_stringIcNS_11char_traitsIcEENS_9allocatorIcEEE5__repELi0ELb0EE5__getEv
FNDA:0,_ZNSt3__122__compressed_pair_elemINS_12basic_stringIcNS_11char_traitsIcEENS_9allocatorIcEEE5__repELi0ELb0EE5__getEv
FN:67,_ZNKSt3__122__compressed_pair_elemIPNS_12basic_stringIcNS_11char_traitsIcEENS_9allocatorIcEEEELi0ELb0EE5__getEv
FNDA:0,_ZNKSt3__122__compressed_pair_elemIPNS_12basic_stringIcNS_11char_traitsIcEENS_9allocatorIcEEEELi0ELb0EE5__getEv
FN:67,_ZNKSt3__122__compressed_pair_elemINS_12basic_stringIcNS_11char_traitsIcEENS_9allocatorIcEEE5__repELi0ELb0EE5__getEv
FNDA:0,_ZNKSt3__122__compressed_pair_elemINS_12basic_stringIcNS_11char_traitsIcEENS_9allocatorIcEEE5__repELi0ELb0EE5__getEv
FN:67,_ZNKSt3__122__compressed_pair_elemIPNS_18basic_stringstreamIcNS_11char_traitsIcEENS_9allocatorIcEEEELi0ELb0EE5__getEv
FNDA:400,_ZNKSt3__122__compressed_pair_elemIPNS_18basic_stringstreamIcNS_11char_traitsIcEENS_9allocatorIcEEEELi0ELb0EE5__getEv
FN:82,_ZNSt3__122__compressed_pair_elemINS_9allocatorIcEELi1ELb1EEC2ENS_18__default_init_tagE
FNDA:80,_ZNSt3__122__compressed_pair_elemINS_9allocatorIcEELi1ELb1EEC2ENS_18__default_init_tagE
FN:103,_ZNSt3__122__compressed_pair_elemINS_14default_deleteINS_18basic_stringstreamIcNS_11char_traitsIcEENS_9allocatorIcEEEEEELi1ELb1EE5__getEv
FNDA:0,_ZNSt3__122__compressed_pair_elemINS_14default_deleteINS_18basic_stringstreamIcNS_11char_traitsIcEENS_9allocatorIcEEEEEELi1ELb1EE5__getEv
FN:103,_ZNSt3__122__compressed_pair_elemINS_14default_deleteINS_12basic_stringIcNS_11char_traitsIcEENS_9allocatorIcEEEEEELi1ELb1EE5__getEv
FNDA:0,_ZNSt3__122__compressed_pair_elemINS_14default_deleteINS_12basic_stringIcNS_11char_traitsIcEENS_9allocatorIcEEEEEELi1ELb1EE5__getEv
FN:135,_ZNSt3__117__compressed_pairINS_12basic_stringIcNS_11char_traitsIcEENS_9allocatorIcEEE5__repES5_EC1INS_18__default_init_tagESA_EEOT_OT0_
FNDA:80,_ZNSt3__117__compressed_pairINS_12basic_stringIcNS_11char_traitsIcEENS_9allocatorIcEEE5__repES5_EC1INS_18__default_init_tagESA_EEOT_OT0_
FN:135,_ZNSt3__117__compressed_pairINS_12basic_stringIcNS_11char_traitsIcEENS_9allocatorIcEEE5__repES5_EC2INS_18__default_init_tagESA_EEOT_OT0_
FNDA:80,_ZNSt3__117__compressed_pairINS_12basic_stringIcNS_11char_traitsIcEENS_9allocatorIcEEE5__repES5_EC2INS_18__default_init_tagESA_EEOT_OT0_
FN:150,_ZNSt3__117__compressed_pairIPNS_18basic_stringstreamIcNS_11char_traitsIcEENS_9allocatorIcEEEENS_14default_deleteIS6_EEE5firstEv
FNDA:0,_ZNSt3__117__compressed_pairIPNS_18basic_stringstreamIcNS_11char_traitsIcEENS_9allocatorIcEEEENS_14default_deleteIS6_EEE5firstEv
FN:150,_ZNSt3__117__compressed_pairIPNS_12basic_stringIcNS_11char_traitsIcEENS_9allocatorIcEEEENS_14default_deleteIS6_EEE5firstEv
FNDA:0,_ZNSt3__117__compressed_pairIPNS_12basic_stringIcNS_11char_traitsIcEENS_9allocatorIcEEEENS_14default_deleteIS6_EEE5firstEv
FN:150,_ZNSt3__117__compressed_pairINS_12basic_stringIcNS_11char_traitsIcEENS_9allocatorIcEEE5__repES5_E5firstEv
FNDA:0,_ZNSt3__117__compressed_pairINS_12basic_stringIcNS_11char_traitsIcEENS_9allocatorIcEEE5__repES5_E5firstEv
FN:155,_ZNKSt3__117__compressed_pairIPNS_12basic_stringIcNS_11char_traitsIcEENS_9allocatorIcEEEENS_14default_deleteIS6_EEE5firstEv
FNDA:0,_ZNKSt3__117__compressed_pairIPNS_12basic_stringIcNS_11char_traitsIcEENS_9allocatorIcEEEENS_14default_deleteIS6_EEE5firstEv
FN:155,_ZNKSt3__117__compressed_pairINS_12basic_stringIcNS_11char_traitsIcEENS_9allocatorIcEEE5__repES5_E5firstEv
FNDA:0,_ZNKSt3__117__compressed_pairINS_12basic_stringIcNS_11char_traitsIcEENS_9allocatorIcEEE5__repES5_E5firstEv
FN:155,_ZNKSt3__117__compressed_pairIPNS_18basic_stringstreamIcNS_11char_traitsIcEENS_9allocatorIcEEEENS_14default_deleteIS6_EEE5firstEv
FNDA:400,_ZNKSt3__117__compressed_pairIPNS_18basic_stringstreamIcNS_11char_traitsIcEENS_9allocatorIcEEEENS_14default_deleteIS6_EEE5firstEv
FN:160,_ZNSt3__117__compressed_pairIPNS_18basic_stringstreamIcNS_11char_traitsIcEENS_9allocatorIcEEEENS_14default_deleteIS6_EEE6secondEv
FNDA:0,_ZNSt3__117__compressed_pairIPNS_18basic_stringstreamIcNS_11char_traitsIcEENS_9allocatorIcEEEENS_14default_deleteIS6_EEE6secondEv
FN:160,_ZNSt3__117__compressed_pairIPNS_12basic_stringIcNS_11char_traitsIcEENS_9allocatorIcEEEENS_14default_deleteIS6_EEE6secondEv
FNDA:0,_ZNSt3__117__compressed_pairIPNS_12basic_stringIcNS_11char_traitsIcEENS_9allocatorIcEEEENS_14default_deleteIS6_EEE6secondEv
DA:41,80
DA:65,0
DA:67,400
DA:82,80
DA:103,0
DA:135,160
DA:136,160
DA:150,0
DA:151,0
DA:155,400
DA:156,400
DA:160,0
DA:161,0
FNF:20
FNH:6
LF:13
LH:7
end_of_record
TN:
SF:/Library/Developer/CommandLineTools/SDKs/MacOSX12.3.sdk/usr/include/c++/v1/__memory/unique_ptr.h
FN:52,_ZNKSt3__114default_deleteINS_18basic_stringstreamIcNS_11char_traitsIcEENS_9allocatorIcEEEEEclEPS6_
FNDA:1088,_ZNKSt3__114default_deleteINS_18basic_stringstreamIcNS_11char_traitsIcEENS_9allocatorIcEEEEEclEPS6_
FN:52,_ZNKSt3__114default_deleteINS_12basic_stringIcNS_11char_traitsIcEENS_9allocatorIcEEEEEclEPS6_
FNDA:0,_ZNKSt3__114default_deleteINS_12basic_stringIcNS_11char_traitsIcEENS_9allocatorIcEEEEEclEPS6_
FN:180,_ZNSt3__110unique_ptrINS_12basic_stringIcNS_11char_traitsIcEENS_9allocatorIcEEEENS_14default_deleteIS6_EEEC1ILb1EvEEv
FNDA:54,_ZNSt3__110unique_ptrINS_12basic_stringIcNS_11char_traitsIcEENS_9allocatorIcEEEENS_14default_deleteIS6_EEEC1ILb1EvEEv
FN:180,_ZNSt3__110unique_ptrINS_12basic_stringIcNS_11char_traitsIcEENS_9allocatorIcEEEENS_14default_deleteIS6_EEEC2ILb1EvEEv
FNDA:54,_ZNSt3__110unique_ptrINS_12basic_stringIcNS_11char_traitsIcEENS_9allocatorIcEEEENS_14default_deleteIS6_EEEC2ILb1EvEEv
FN:272,_ZNSt3__110unique_ptrINS_18basic_stringstreamIcNS_11char_traitsIcEENS_9allocatorIcEEEENS_14default_deleteIS6_EEED1Ev
FNDA:1088,_ZNSt3__110unique_ptrINS_18basic_stringstreamIcNS_11char_traitsIcEENS_9allocatorIcEEEENS_14default_deleteIS6_EEED1Ev
FN:272,_ZNSt3__110unique_ptrINS_18basic_stringstreamIcNS_11char_traitsIcEENS_9allocatorIcEEEENS_14default_deleteIS6_EEED2Ev
FNDA:1088,_ZNSt3__110unique_ptrINS_18basic_stringstreamIcNS_11char_traitsIcEENS_9allocatorIcEEEENS_14default_deleteIS6_EEED2Ev
FN:272,_ZNSt3__110unique_ptrINS_12basic_stringIcNS_11char_traitsIcEENS_9allocatorIcEEEENS_14default_deleteIS6_EEED1Ev
FNDA:54,_ZNSt3__110unique_ptrINS_12basic_stringIcNS_11char_traitsIcEENS_9allocatorIcEEEENS_14default_deleteIS6_EEED1Ev
FN:272,_ZNSt3__110unique_ptrINS_12basic_stringIcNS_11char_traitsIcEENS_9allocatorIcEEEENS_14default_deleteIS6_EEED2Ev
FNDA:54,_ZNSt3__110unique_ptrINS_12basic_stringIcNS_11char_traitsIcEENS_9allocatorIcEEEENS_14default_deleteIS6_EEED2Ev
FN:286,_ZNKSt3__110unique_ptrINS_12basic_stringIcNS_11char_traitsIcEENS_9allocatorIcEEEENS_14default_deleteIS6_EEEptEv
FNDA:0,_ZNKSt3__110unique_ptrINS_12basic_stringIcNS_11char_traitsIcEENS_9allocatorIcEEEENS_14default_deleteIS6_EEEptEv
FN:290,_ZNKSt3__110unique_ptrINS_12basic_stringIcNS_11char_traitsIcEENS_9allocatorIcEEEENS_14default_deleteIS6_EEE3getEv
FNDA:0,_ZNKSt3__110unique_ptrINS_12basic_stringIcNS_11char_traitsIcEENS_9allocatorIcEEEENS_14default_deleteIS6_EEE3getEv
FN:314,_ZNSt3__110unique_ptrINS_18basic_stringstreamIcNS_11char_traitsIcEENS_9allocatorIcEEEENS_14default_deleteIS6_EEE5resetEPS6_
FNDA:1088,_ZNSt3__110unique_ptrINS_18basic_stringstreamIcNS_11char_traitsIcEENS_9allocatorIcEEEENS_14default_deleteIS6_EEE5resetEPS6_
FN:314,_ZNSt3__110unique_ptrINS_12basic_stringIcNS_11char_traitsIcEENS_9allocatorIcEEEENS_14default_deleteIS6_EEE5resetEPS6_
FNDA:54,_ZNSt3__110unique_ptrINS_12basic_stringIcNS_11char_traitsIcEENS_9allocatorIcEEEENS_14default_deleteIS6_EEE5resetEPS6_
DA:52,1088
DA:57,1088
DA:58,1088
DA:180,108
DA:272,2284
DA:286,0
DA:287,0
DA:290,0
DA:291,0
DA:314,1142
DA:315,1142
DA:316,1142
DA:317,1142
DA:318,1088
DA:319,1142
FNF:12
FNH:9
LF:15
LH:11
end_of_record
SF:/Library/Developer/CommandLineTools/SDKs/MacOSX12.3.sdk/usr/include/c++/v1/__memory/allocator_traits.h
FN:261,_ZNSt3__116allocator_traitsINS_9allocatorIiEEE8allocateERS2_m
FNDA:362,_ZNSt3__116allocator_traitsINS_9allocatorIiEEE8allocateERS2_m
FN:281,_ZNSt3__116allocator_traitsINS_9allocatorIiEEE10deallocateERS2_Pim
FNDA:722,_ZNSt3__116allocator_traitsINS_9allocatorIiEEE10deallocateERS2_Pim
FN:307,_ZNSt3__116allocator_traitsINS_9allocatorIiEEE7destroyIivEEvRS2_PT_
FNDA:217024,_ZNSt3__116allocator_traitsINS_9allocatorIiEEE7destroyIivEEvRS2_PT_
FN:326,_ZNSt3__116allocator_traitsINS_9allocatorIiEEE8max_sizeIS2_vEEmRKS2_
FNDA:4483,_ZNSt3__116allocator_traitsINS_9allocatorIiEEE8max_sizeIS2_vEEmRKS2_
DA:261,362
DA:262,362
DA:281,722
DA:282,722
DA:283,722
DA:307,217024
DA:309,217024
DA:311,217024
DA:326,4483
DA:328,4483
FNF:4
FNH:4
LF:10
LH:10
end_of_record
SF:/Users/dogukanarat/Desktop/Workspace/RocketLab/Tests/UnitTestLargeExponent.h
FN:10,_ZN4Test17TestLargeExponentC2Ev
FNDA:15,_ZN4Test17TestLargeExponentC2Ev
FN:14,_ZN4Test17TestLargeExponentD1Ev
FNDA:0,_ZN4Test17TestLargeExponentD1Ev
FN:14,_ZN4Test17TestLargeExponentD0Ev
FNDA:0,_ZN4Test17TestLargeExponentD0Ev
FN:14,_ZN4Test17TestLargeExponentD2Ev
FNDA:15,_ZN4Test17TestLargeExponentD2Ev
FN:18,_ZN4Test17TestLargeExponent5SetUpEv
FNDA:15,_ZN4Test17TestLargeExponent5SetUpEv
FN:22,_ZN4Test17TestLargeExponent8TearDownEv
FNDA:15,_ZN4Test17TestLargeExponent8TearDownEv
DA:10,45
DA:11,30
DA:12,15
DA:14,15
DA:15,0
DA:16,15
DA:18,15
DA:20,15
DA:22,15
DA:24,15
FNF:6
FNH:4
LF:10
LH:9
end_of_record
SF:/Library/Developer/CommandLineTools/SDKs/MacOSX12.3.sdk/usr/include/c++/v1/string
FN:840,_ZNSt3__112basic_stringIcNS_11char_traitsIcEENS_9allocatorIcEEEC1IDnEEPKc
FNDA:319,_ZNSt3__112basic_stringIcNS_11char_traitsIcEENS_9allocatorIcEEEC1IDnEEPKc
FN:840,_ZNSt3__112basic_stringIcNS_11char_traitsIcEENS_9allocatorIcEEEC2IDnEEPKc
FNDA:319,_ZNSt3__112basic_stringIcNS_11char_traitsIcEENS_9allocatorIcEEEC2IDnEEPKc
FN:977,_ZNKSt3__112basic_stringIcNS_11char_traitsIcEENS_9allocatorIcEEE4sizeEv
FNDA:11,_ZNKSt3__112basic_stringIcNS_11char_traitsIcEENS_9allocatorIcEEE4sizeEv
FN:1263,_ZNKSt3__112basic_stringIcNS_11char_traitsIcEENS_9allocatorIcEEE5c_strEv
FNDA:0,_ZNKSt3__112basic_stringIcNS_11char_traitsIcEENS_9allocatorIcEEE5c_strEv
FN:1265,_ZNKSt3__112basic_stringIcNS_11char_traitsIcEENS_9allocatorIcEEE4dataEv
FNDA:0,_ZNKSt3__112basic_stringIcNS_11char_traitsIcEENS_9allocatorIcEEE4dataEv
FN:1268,_ZNSt3__112basic_stringIcNS_11char_traitsIcEENS_9allocatorIcEEE4dataEv
FNDA:0,_ZNSt3__112basic_stringIcNS_11char_traitsIcEENS_9allocatorIcEEE4dataEv
FN:1458,_ZNKSt3__112basic_stringIcNS_11char_traitsIcEENS_9allocatorIcEEE9__is_longEv
FNDA:11,_ZNKSt3__112basic_stringIcNS_11char_traitsIcEENS_9allocatorIcEEE9__is_longEv
FN:1489,_ZNKSt3__112basic_stringIcNS_11char_traitsIcEENS_9allocatorIcEEE16__get_short_sizeEv
FNDA:9,_ZNKSt3__112basic_stringIcNS_11char_traitsIcEENS_9allocatorIcEEE16__get_short_sizeEv
FN:1520,_ZNKSt3__112basic_stringIcNS_11char_traitsIcEENS_9allocatorIcEEE15__get_long_sizeEv
FNDA:2,_ZNKSt3__112basic_stringIcNS_11char_traitsIcEENS_9allocatorIcEEE15__get_long_sizeEv
FN:1537,_ZNSt3__112basic_stringIcNS_11char_traitsIcEENS_9allocatorIcEEE18__get_long_pointerEv
FNDA:0,_ZNSt3__112basic_stringIcNS_11char_traitsIcEENS_9allocatorIcEEE18__get_long_pointerEv
FN:1540,_ZNKSt3__112basic_stringIcNS_11char_traitsIcEENS_9allocatorIcEEE18__get_long_pointerEv
FNDA:0,_ZNKSt3__112basic_stringIcNS_11char_traitsIcEENS_9allocatorIcEEE18__get_long_pointerEv
FN:1543,_ZNSt3__112basic_stringIcNS_11char_traitsIcEENS_9allocatorIcEEE19__get_short_pointerEv
FNDA:0,_ZNSt3__112basic_stringIcNS_11char_traitsIcEENS_9allocatorIcEEE19__get_short_pointerEv
FN:1546,_ZNKSt3__112basic_stringIcNS_11char_traitsIcEENS_9allocatorIcEEE19__get_short_pointerEv
FNDA:0,_ZNKSt3__112basic_stringIcNS_11char_traitsIcEENS_9allocatorIcEEE19__get_short_pointerEv
FN:1549,_ZNSt3__112basic_stringIcNS_11char_traitsIcEENS_9allocatorIcEEE13__get_pointerEv
FNDA:0,_ZNSt3__112basic_stringIcNS_11char_traitsIcEENS_9allocatorIcEEE13__get_pointerEv
FN:1552,_ZNKSt3__112basic_stringIcNS_11char_traitsIcEENS_9allocatorIcEEE13__get_pointerEv
FNDA:0,_ZNKSt3__112basic_stringIcNS_11char_traitsIcEENS_9allocatorIcEEE13__get_pointerEv
FN:1556,_ZNSt3__112basic_stringIcNS_11char_traitsIcEENS_9allocatorIcEEE6__zeroEv
FNDA:2,_ZNSt3__112basic_stringIcNS_11char_traitsIcEENS_9allocatorIcEEE6__zeroEv
FN:1829,_ZNSt3__112basic_stringIcNS_11char_traitsIcEENS_9allocatorIcEEEC1Ev
FNDA:2,_ZNSt3__112basic_stringIcNS_11char_traitsIcEENS_9allocatorIcEEEC1Ev
FN:1829,_ZNSt3__112basic_stringIcNS_11char_traitsIcEENS_9allocatorIcEEEC2Ev
FNDA:2,_ZNSt3__112basic_stringIcNS_11char_traitsIcEENS_9allocatorIcEEEC2Ev
FN:2056,_ZNSt3__112basic_stringIcNS_11char_traitsIcEENS_9allocatorIcEEEC1Emc
FNDA:0,_ZNSt3__112basic_stringIcNS_11char_traitsIcEENS_9allocatorIcEEEC1Emc
FN:2056,_ZNSt3__112basic_stringIcNS_11char_traitsIcEENS_9allocatorIcEEEC2Emc
FNDA:0,_ZNSt3__112basic_stringIcNS_11char_traitsIcEENS_9allocatorIcEEEC2Emc
FN:4099,_ZNSt3__1eqIcNS_11char_traitsIcEENS_9allocatorIcEEEEbPKT_RKNS_12basic_stringIS5_T0_T1_EE
FNDA:9,_ZNSt3__1eqIcNS_11char_traitsIcEENS_9allocatorIcEEEEbPKT_RKNS_12basic_stringIS5_T0_T1_EE
FN:4112,_ZNSt3__1eqIcNS_11char_traitsIcEENS_9allocatorIcEEEEbRKNS_12basic_stringIT_T0_T1_EEPKS6_
FNDA:2,_ZNSt3__1eqIcNS_11char_traitsIcEENS_9allocatorIcEEEEbRKNS_12basic_stringIT_T0_T1_EEPKS6_
DA:840,638
DA:842,319
DA:846,638
DA:977,11
DA:978,11
DA:1263,0
DA:1265,0
DA:1268,0
DA:1458,11
DA:1459,11
DA:1489,9
DA:1493,9
DA:1520,2
DA:1521,2
DA:1537,0
DA:1538,0
DA:1540,0
DA:1541,0
DA:1543,0
DA:1544,0
DA:1546,0
DA:1547,0
DA:1549,0
DA:1550,0
DA:1552,0
DA:1553,0
DA:1556,2
DA:1558,2
DA:1559,8
DA:1560,6
DA:1561,2
DA:1829,4
DA:1831,2
DA:1832,4
DA:1836,2
DA:1837,4
DA:2056,0
DA:2057,0
DA:2058,0
DA:2059,0
DA:2063,0
DA:4099,9
DA:4104,9
DA:4105,9
DA:4106,9
DA:4107,9
DA:4112,2
DA:4117,2
DA:4118,2
DA:4119,2
DA:4120,2
FNF:22
FNH:11
LF:51
LH:31
end_of_record
SF:/Library/Developer/CommandLineTools/SDKs/MacOSX12.3.sdk/usr/include/c++/v1/streambuf
FN:228,_ZNSt3__115basic_streambufIcNS_11char_traitsIcEEE5sputnEPKcl
FNDA:8338,_ZNSt3__115basic_streambufIcNS_11char_traitsIcEEE5sputnEPKcl
DA:228,8338
DA:229,8338
FNF:1
FNH:1
LF:2
LH:2
end_of_record
SF:/Library/Developer/CommandLineTools/SDKs/MacOSX12.3.sdk/usr/include/c++/v1/__algorithm/unwrap_iter.h
FN:54,_ZNSt3__118__unwrap_iter_implIPKiLb1EE7__applyES2_
FNDA:0,_ZNSt3__118__unwrap_iter_implIPKiLb1EE7__applyES2_
FN:54,_ZNSt3__118__unwrap_iter_implIPiLb1EE7__applyES1_
FNDA:3,_ZNSt3__118__unwrap_iter_implIPiLb1EE7__applyES1_
FN:64,_ZNSt3__1L13__unwrap_iterIPKiNS_18__unwrap_iter_implIS2_Lb1EEEEEDTclsrT0_7__applycl7declvalIT_EEEES6_
FNDA:0,_ZNSt3__1L13__unwrap_iterIPKiNS_18__unwrap_iter_implIS2_Lb1EEEEEDTclsrT0_7__applycl7declvalIT_EEEES6_
FN:64,_ZNSt3__1L13__unwrap_iterIPiNS_18__unwrap_iter_implIS1_Lb1EEEEEDTclsrT0_7__applycl7declvalIT_EEEES5_
FNDA:0,_ZNSt3__1L13__unwrap_iterIPiNS_18__unwrap_iter_implIS1_Lb1EEEEEDTclsrT0_7__applycl7declvalIT_EEEES5_
FN:71,_ZNSt3__1L13__rewrap_iterIPiEET_S2_S2_
FNDA:0,_ZNSt3__1L13__rewrap_iterIPiEET_S2_S2_
DA:54,3
DA:55,3
DA:64,0
DA:66,0
DA:71,0
DA:73,0
FNF:5
FNH:1
LF:6
LH:2
end_of_record
SF:/Library/Developer/CommandLineTools/SDKs/MacOSX12.3.sdk/usr/include/c++/v1/__iterator/ostreambuf_iterator.h
FN:53,_ZNSt3__119ostreambuf_iteratorIcNS_11char_traitsIcEEEC1ERNS_13basic_ostreamIcS2_EE
FNDA:8338,_ZNSt3__119ostreambuf_iteratorIcNS_11char_traitsIcEEEC1ERNS_13basic_ostreamIcS2_EE
FN:53,_ZNSt3__119ostreambuf_iteratorIcNS_11char_traitsIcEEEC2ERNS_13basic_ostreamIcS2_EE
FNDA:8338,_ZNSt3__119ostreambuf_iteratorIcNS_11char_traitsIcEEEC2ERNS_13basic_ostreamIcS2_EE
FN:66,_ZNKSt3__119ostreambuf_iteratorIcNS_11char_traitsIcEEE6failedEv
FNDA:8338,_ZNKSt3__119ostreambuf_iteratorIcNS_11char_traitsIcEEE6failedEv
DA:53,16676
DA:54,16676
DA:66,8338
FNF:3
FNH:3
LF:3
LH:3
end_of_record
SF:/Library/Developer/CommandLineTools/SDKs/MacOSX12.3.sdk/usr/include/c++/v1/memory
FN:764,_ZNSt3__1L25__construct_range_forwardINS_9allocatorIiEEKiiiivEEvRT_PT0_S7_RPT1_
FNDA:10,_ZNSt3__1L25__construct_range_forwardINS_9allocatorIiEEKiiiivEEvRT_PT0_S7_RPT1_
FN:764,_ZNSt3__1L25__construct_range_forwardINS_9allocatorIiEEiiiivEEvRT_PT0_S6_RPT1_
FNDA:2,_ZNSt3__1L25__construct_range_forwardINS_9allocatorIiEEiiiivEEvRT_PT0_S6_RPT1_
DA:764,12
DA:765,12
DA:766,12
DA:767,12
DA:768,12
DA:769,12
DA:770,12
FNF:2
FNH:2
LF:7
LH:7
end_of_record
SF:/Library/Developer/CommandLineTools/SDKs/MacOSX12.3.sdk/usr/include/c++/v1/__iterator/wrap_iter.h
FN:86,_ZNKSt3__111__wrap_iterIPKiEdeEv
FNDA:32,_ZNKSt3__111__wrap_iterIPKiEdeEv
FN:102,_ZNSt3__111__wrap_iterIPKiEppEv
FNDA:32,_ZNSt3__111__wrap_iterIPKiEppEv
FN:149,_ZNKSt3__111__wrap_iterIPKiE4baseEv
FNDA:42,_ZNKSt3__111__wrap_iterIPKiE4baseEv
FN:158,_ZNSt3__111__wrap_iterIPKiEC1ES2_
FNDA:15,_ZNSt3__111__wrap_iterIPKiEC1ES2_
FN:158,_ZNSt3__111__wrap_iterIPKiEC2ES2_
FNDA:15,_ZNSt3__111__wrap_iterIPKiEC2ES2_
FN:169,_ZNSt3__1eqIPKiEEbRKNS_11__wrap_iterIT_EES7_
FNDA:21,_ZNSt3__1eqIPKiEEbRKNS_11__wrap_iterIT_EES7_
FN:205,_ZNSt3__1neIPKiEEbRKNS_11__wrap_iterIT_EES7_
FNDA:21,_ZNSt3__1neIPKiEEbRKNS_11__wrap_iterIT_EES7_
DA:86,32
DA:92,32
DA:102,32
DA:108,32
DA:109,32
DA:149,42
DA:158,30
DA:169,21
DA:171,21
DA:205,21
DA:207,21
FNF:7
FNH:7
LF:11
LH:11
end_of_record
SF:/Library/Developer/CommandLineTools/SDKs/MacOSX12.3.sdk/usr/include/c++/v1/__memory/allocator.h
FN:74,_ZNSt3__116__non_trivial_ifILb1ENS_9allocatorIcEEEC2Ev
FNDA:321,_ZNSt3__116__non_trivial_ifILb1ENS_9allocatorIcEEEC2Ev
FN:74,_ZNSt3__116__non_trivial_ifILb1ENS_9allocatorIiEEEC2Ev
FNDA:9,_ZNSt3__116__non_trivial_ifILb1ENS_9allocatorIiEEEC2Ev
FN:94,_ZNSt3__19allocatorIcEC2Ev
FNDA:321,_ZNSt3__19allocatorIcEC2Ev
FN:94,_ZNSt3__19allocatorIiEC2Ev
FNDA:9,_ZNSt3__19allocatorIiEC2Ev
FN:101,_ZNSt3__19allocatorIiE8allocateEm
FNDA:362,_ZNSt3__19allocatorIiE8allocateEm
FN:113,_ZNSt3__19allocatorIiE10deallocateEPim
FNDA:722,_ZNSt3__19allocatorIiE10deallocateEPim
FN:147,_ZNKSt3__19allocatorIiE8max_sizeEv
FNDA:4483,_ZNKSt3__19allocatorIiE8max_sizeEv
FN:158,_ZNSt3__19allocatorIiE7destroyEPi
FNDA:217024,_ZNSt3__19allocatorIiE7destroyEPi
DA:74,330
DA:94,330
DA:101,362
DA:102,362
DA:103,0
DA:108,362
DA:113,722
DA:117,722
DA:119,722
DA:147,4483
DA:148,4483
DA:158,217024
DA:159,217024
DA:160,217024
FNF:8
FNH:8
LF:14
LH:13
end_of_record
SF:/Library/Developer/CommandLineTools/SDKs/MacOSX12.3.sdk/usr/include/c++/v1/__memory/compressed_pair.h
FN:41,_ZNSt3__122__compressed_pair_elemINS_12basic_stringIcNS_11char_traitsIcEENS_9allocatorIcEEE5__repELi0ELb0EEC2ENS_18__default_init_tagE
FNDA:321,_ZNSt3__122__compressed_pair_elemINS_12basic_stringIcNS_11char_traitsIcEENS_9allocatorIcEEE5__repELi0ELb0EEC2ENS_18__default_init_tagE
FN:50,_ZNSt3__122__compressed_pair_elemIPNS_12basic_stringIcNS_11char_traitsIcEENS_9allocatorIcEEEELi0ELb0EEC2IS7_vEEOT_
FNDA:54,_ZNSt3__122__compressed_pair_elemIPNS_12basic_stringIcNS_11char_traitsIcEENS_9allocatorIcEEEELi0ELb0EEC2IS7_vEEOT_
FN:50,_ZNSt3__122__compressed_pair_elemIPiLi0ELb0EEC2IDnvEEOT_
FNDA:9,_ZNSt3__122__compressed_pair_elemIPiLi0ELb0EEC2IDnvEEOT_
FN:65,_ZNSt3__122__compressed_pair_elemIPNS_18basic_stringstreamIcNS_11char_traitsIcEENS_9allocatorIcEEEELi0ELb0EE5__getEv
FNDA:2176,_ZNSt3__122__compressed_pair_elemIPNS_18basic_stringstreamIcNS_11char_traitsIcEENS_9allocatorIcEEEELi0ELb0EE5__getEv
FN:65,_ZNSt3__122__compressed_pair_elemIPNS_12basic_stringIcNS_11char_traitsIcEENS_9allocatorIcEEEELi0ELb0EE5__getEv
FNDA:108,_ZNSt3__122__compressed_pair_elemIPNS_12basic_stringIcNS_11char_traitsIcEENS_9allocatorIcEEEELi0ELb0EE5__getEv
FN:65,_ZNSt3__122__compressed_pair_elemINS_12basic_stringIcNS_11char_traitsIcEENS_9allocatorIcEEE5__repELi0ELb0EE5__getEv
FNDA:2,_ZNSt3__122__compressed_pair_elemINS_12basic_stringIcNS_11char_traitsIcEENS_9allocatorIcEEE5__repELi0ELb0EE5__getEv
FN:65,_ZNSt3__122__compressed_pair_elemIPiLi0ELb0EE5__getEv
FNDA:712,_ZNSt3__122__compressed_pair_elemIPiLi0ELb0EE5__getEv
FN:67,_ZNKSt3__122__compressed_pair_elemIPNS_12basic_stringIcNS_11char_traitsIcEENS_9allocatorIcEEEELi0ELb0EE5__getEv
FNDA:0,_ZNKSt3__122__compressed_pair_elemIPNS_12basic_stringIcNS_11char_traitsIcEENS_9allocatorIcEEEELi0ELb0EE5__getEv
FN:67,_ZNKSt3__122__compressed_pair_elemINS_12basic_stringIcNS_11char_traitsIcEENS_9allocatorIcEEE5__repELi0ELb0EE5__getEv
FNDA:22,_ZNKSt3__122__compressed_pair_elemINS_12basic_stringIcNS_11char_traitsIcEENS_9allocatorIcEEE5__repELi0ELb0EE5__getEv
FN:67,_ZNKSt3__122__compressed_pair_elemIPiLi0ELb0EE5__getEv
FNDA:1850,_ZNKSt3__122__compressed_pair_elemIPiLi0ELb0EE5__getEv
FN:82,_ZNSt3__122__compressed_pair_elemINS_9allocatorIcEELi1ELb1EEC2ENS_18__default_init_tagE
FNDA:321,_ZNSt3__122__compressed_pair_elemINS_9allocatorIcEELi1ELb1EEC2ENS_18__default_init_tagE
FN:82,_ZNSt3__122__compressed_pair_elemINS_14default_deleteINS_12basic_stringIcNS_11char_traitsIcEENS_9allocatorIcEEEEEELi1ELb1EEC2ENS_18__default_init_tagE
FNDA:54,_ZNSt3__122__compressed_pair_elemINS_14default_deleteINS_12basic_stringIcNS_11char_traitsIcEENS_9allocatorIcEEEEEELi1ELb1EEC2ENS_18__default_init_tagE
FN:82,_ZNSt3__122__compressed_pair_elemINS_9allocatorIiEELi1ELb1EEC2ENS_18__default_init_tagE
FNDA:9,_ZNSt3__122__compressed_pair_elemINS_9allocatorIiEELi1ELb1EEC2ENS_18__default_init_tagE
FN:103,_ZNSt3__122__compressed_pair_elemINS_14default_deleteINS_18basic_stringstreamIcNS_11char_traitsIcEENS_9allocatorIcEEEEEELi1ELb1EE5__getEv
FNDA:1088,_ZNSt3__122__compressed_pair_elemINS_14default_deleteINS_18basic_stringstreamIcNS_11char_traitsIcEENS_9allocatorIcEEEEEELi1ELb1EE5__getEv
FN:103,_ZNSt3__122__compressed_pair_elemINS_14default_deleteINS_12basic_stringIcNS_11char_traitsIcEENS_9allocatorIcEEEEEELi1ELb1EE5__getEv
FNDA:0,_ZNSt3__122__compressed_pair_elemINS_14default_deleteINS_12basic_stringIcNS_11char_traitsIcEENS_9allocatorIcEEEEEELi1ELb1EE5__getEv
FN:103,_ZNSt3__122__compressed_pair_elemINS_9allocatorIiEELi1ELb1EE5__getEv
FNDA:218120,_ZNSt3__122__compressed_pair_elemINS_9allocatorIiEELi1ELb1EE5__getEv
FN:105,_ZNKSt3__122__compressed_pair_elemINS_9allocatorIiEELi1ELb1EE5__getEv
FNDA:4121,_ZNKSt3__122__compressed_pair_elemINS_9allocatorIiEELi1ELb1EE5__getEv
FN:135,_ZNSt3__117__compressed_pairINS_12basic_stringIcNS_11char_traitsIcEENS_9allocatorIcEEE5__repES5_EC1INS_18__default_init_tagESA_EEOT_OT0_
FNDA:321,_ZNSt3__117__compressed_pairINS_12basic_stringIcNS_11char_traitsIcEENS_9allocatorIcEEE5__repES5_EC1INS_18__default_init_tagESA_EEOT_OT0_
FN:135,_ZNSt3__117__compressed_pairINS_12basic_stringIcNS_11char_traitsIcEENS_9allocatorIcEEE5__repES5_EC2INS_18__default_init_tagESA_EEOT_OT0_
FNDA:321,_ZNSt3__117__compressed_pairINS_12basic_stringIcNS_11char_traitsIcEENS_9allocatorIcEEE5__repES5_EC2INS_18__default_init_tagESA_EEOT_OT0_
FN:135,_ZNSt3__117__compressed_pairIPNS_12basic_stringIcNS_11char_traitsIcEENS_9allocatorIcEEEENS_14default_deleteIS6_EEEC1IS7_NS_18__default_init_tagEEEOT_OT0_
FNDA:54,_ZNSt3__117__compressed_pairIPNS_12basic_stringIcNS_11char_traitsIcEENS_9allocatorIcEEEENS_14default_deleteIS6_EEEC1IS7_NS_18__default_init_tagEEEOT_OT0_
FN:135,_ZNSt3__117__compressed_pairIPNS_12basic_stringIcNS_11char_traitsIcEENS_9allocatorIcEEEENS_14default_deleteIS6_EEEC2IS7_NS_18__default_init_tagEEEOT_OT0_
FNDA:54,_ZNSt3__117__compressed_pairIPNS_12basic_stringIcNS_11char_traitsIcEENS_9allocatorIcEEEENS_14default_deleteIS6_EEEC2IS7_NS_18__default_init_tagEEEOT_OT0_
FN:135,_ZNSt3__117__compressed_pairIPiNS_9allocatorIiEEEC1IDnNS_18__default_init_tagEEEOT_OT0_
FNDA:9,_ZNSt3__117__compressed_pairIPiNS_9allocatorIiEEEC1IDnNS_18__default_init_tagEEEOT_OT0_
FN:135,_ZNSt3__117__compressed_pairIPiNS_9allocatorIiEEEC2IDnNS_18__default_init_tagEEEOT_OT0_
FNDA:9,_ZNSt3__117__compressed_pairIPiNS_9allocatorIiEEEC2IDnNS_18__default_init_tagEEEOT_OT0_
FN:150,_ZNSt3__117__compressed_pairIPNS_18basic_stringstreamIcNS_11char_traitsIcEENS_9allocatorIcEEEENS_14default_deleteIS6_EEE5firstEv
FNDA:2176,_ZNSt3__117__compressed_pairIPNS_18basic_stringstreamIcNS_11char_traitsIcEENS_9allocatorIcEEEENS_14default_deleteIS6_EEE5firstEv
FN:150,_ZNSt3__117__compressed_pairIPNS_12basic_stringIcNS_11char_traitsIcEENS_9allocatorIcEEEENS_14default_deleteIS6_EEE5firstEv
FNDA:108,_ZNSt3__117__compressed_pairIPNS_12basic_stringIcNS_11char_traitsIcEENS_9allocatorIcEEEENS_14default_deleteIS6_EEE5firstEv
FN:150,_ZNSt3__117__compressed_pairINS_12basic_stringIcNS_11char_traitsIcEENS_9allocatorIcEEE5__repES5_E5firstEv
FNDA:2,_ZNSt3__117__compressed_pairINS_12basic_stringIcNS_11char_traitsIcEENS_9allocatorIcEEE5__repES5_E5firstEv
FN:150,_ZNSt3__117__compressed_pairIPiNS_9allocatorIiEEE5firstEv
FNDA:712,_ZNSt3__117__compressed_pairIPiNS_9allocatorIiEEE5firstEv
FN:155,_ZNKSt3__117__compressed_pairIPNS_12basic_stringIcNS_11char_traitsIcEENS_9allocatorIcEEEENS_14default_deleteIS6_EEE5firstEv
FNDA:0,_ZNKSt3__117__compressed_pairIPNS_12basic_stringIcNS_11char_traitsIcEENS_9allocatorIcEEEENS_14default_deleteIS6_EEE5firstEv
FN:155,_ZNKSt3__117__compressed_pairINS_12basic_stringIcNS_11char_traitsIcEENS_9allocatorIcEEE5__repES5_E5firstEv
FNDA:22,_ZNKSt3__117__compressed_pairINS_12basic_stringIcNS_11char_traitsIcEENS_9allocatorIcEEE5__repES5_E5firstEv
FN:155,_ZNKSt3__117__compressed_pairIPiNS_9allocatorIiEEE5firstEv
FNDA:1850,_ZNKSt3__117__compressed_pairIPiNS_9allocatorIiEEE5firstEv
FN:160,_ZNSt3__117__compressed_pairIPNS_18basic_stringstreamIcNS_11char_traitsIcEENS_9allocatorIcEEEENS_14default_deleteIS6_EEE6secondEv
FNDA:1088,_ZNSt3__117__compressed_pairIPNS_18basic_stringstreamIcNS_11char_traitsIcEENS_9allocatorIcEEEENS_14default_deleteIS6_EEE6secondEv
FN:160,_ZNSt3__117__compressed_pairIPNS_12basic_stringIcNS_11char_traitsIcEENS_9allocatorIcEEEENS_14default_deleteIS6_EEE6secondEv
FNDA:0,_ZNSt3__117__compressed_pairIPNS_12basic_stringIcNS_11char_traitsIcEENS_9allocatorIcEEEENS_14default_deleteIS6_EEE6secondEv
FN:160,_ZNSt3__117__compressed_pairIPiNS_9allocatorIiEEE6secondEv
FNDA:218120,_ZNSt3__117__compressed_pairIPiNS_9allocatorIiEEE6secondEv
FN:165,_ZNKSt3__117__compressed_pairIPiNS_9allocatorIiEEE6secondEv
FNDA:4121,_ZNKSt3__117__compressed_pairIPiNS_9allocatorIiEEE6secondEv
DA:41,321
DA:50,63
DA:51,63
DA:53,63
DA:65,2998
DA:67,1872
DA:82,384
DA:103,219208
DA:105,4121
DA:135,768
DA:136,768
DA:150,2998
DA:151,2998
DA:155,1872
DA:156,1872
DA:160,219208
DA:161,219208
DA:165,4121
DA:166,4121
FNF:34
FNH:30
LF:19
LH:19
end_of_record
SF:/Users/dogukanarat/Desktop/Workspace/RocketLab/Binaries/Debug/Intermediate/_deps/googletest-src/googletest/include/gtest/internal/gtest-internal.h
FN:435,_ZN7testing8internal9GetTypeIdIN4Test17TestLargeExponentEEEPKvv
FNDA:300,_ZN7testing8internal9GetTypeIdIN4Test17TestLargeExponentEEEPKvv
FN:454,_ZN7testing8internal15TestFactoryBaseD1Ev
FNDA:0,_ZN7testing8internal15TestFactoryBaseD1Ev
FN:454,_ZN7testing8internal15TestFactoryBaseD0Ev
FNDA:0,_ZN7testing8internal15TestFactoryBaseD0Ev
FN:454,_ZN7testing8internal15TestFactoryBaseD2Ev
FNDA:0,_ZN7testing8internal15TestFactoryBaseD2Ev
FN:461,_ZN7testing8internal15TestFactoryBaseC2Ev
FNDA:380,_ZN7testing8internal15TestFactoryBaseC2Ev
FN:470,_ZN7testing8internal15TestFactoryImplI41TestLargeExponent_CheckIsDigitMethod_TestEC1Ev
FNDA:20,_ZN7testing8internal15TestFactoryImplI41TestLargeExponent_CheckIsDigitMethod_TestEC1Ev
FN:470,_ZN7testing8internal15TestFactoryImplI39TestLargeExponent_CheckInputMethod_TestEC1Ev
FNDA:20,_ZN7testing8internal15TestFactoryImplI39TestLargeExponent_CheckInputMethod_TestEC1Ev
FN:470,_ZN7testing8internal15TestFactoryImplI41TestLargeExponent_CheckReverseMethod_TestEC1Ev
FNDA:20,_ZN7testing8internal15TestFactoryImplI41TestLargeExponent_CheckReverseMethod_TestEC1Ev
FN:470,_ZN7testing8internal15TestFactoryImplI50TestLargeExponent_CheckInitialiseBufferMethod_TestEC1Ev
FNDA:20,_ZN7testing8internal15TestFactoryImplI50TestLargeExponent_CheckInitialiseBufferMethod_TestEC1Ev
FN:470,_ZN7testing8internal15TestFactoryImplI48TestLargeExponent_CheckFinaliseBufferMethod_TestEC1Ev
FNDA:20,_ZN7testing8internal15TestFactoryImplI48TestLargeExponent_CheckFinaliseBufferMethod_TestEC1Ev
FN:470,_ZN7testing8internal15TestFactoryImplI44TestLargeExponent_CheckBufferTransition_TestEC1Ev
FNDA:20,_ZN7testing8internal15TestFactoryImplI44TestLargeExponent_CheckBufferTransition_TestEC1Ev
FN:470,_ZN7testing8internal15TestFactoryImplI55TestLargeExponent_CheckMultiplyMethodDifferentSize_TestEC1Ev
FNDA:20,_ZN7testing8internal15TestFactoryImplI55TestLargeExponent_CheckMultiplyMethodDifferentSize_TestEC1Ev
FN:470,_ZN7testing8internal15TestFactoryImplI47TestLargeExponent_CheckMultiplyMethodBasic_TestEC1Ev
FNDA:20,_ZN7testing8internal15TestFactoryImplI47TestLargeExponent_CheckMultiplyMethodBasic_TestEC1Ev
FN:470,_ZN7testing8internal15TestFactoryImplI57TestLargeExponent_CheckCalculateBufferMethodSameSize_TestEC1Ev
FNDA:20,_ZN7testing8internal15TestFactoryImplI57TestLargeExponent_CheckCalculateBufferMethodSameSize_TestEC1Ev
FN:470,_ZN7testing8internal15TestFactoryImplI62TestLargeExponent_CheckCalculateBufferMethodDifferentSize_TestEC1Ev
FNDA:20,_ZN7testing8internal15TestFactoryImplI62TestLargeExponent_CheckCalculateBufferMethodDifferentSize_TestEC1Ev
FN:470,_ZN7testing8internal15TestFactoryImplI46TestLargeExponent_CheckCalculationMethod1_TestEC1Ev
FNDA:20,_ZN7testing8internal15TestFactoryImplI46TestLargeExponent_CheckCalculationMethod1_TestEC1Ev
FN:470,_ZN7testing8internal15TestFactoryImplI46TestLargeExponent_CheckCalculationMethod2_TestEC1Ev
FNDA:20,_ZN7testing8internal15TestFactoryImplI46TestLargeExponent_CheckCalculationMethod2_TestEC1Ev
FN:470,_ZN7testing8internal15TestFactoryImplI46TestLargeExponent_CheckCalculationMethod3_TestEC1Ev
FNDA:20,_ZN7testing8internal15TestFactoryImplI46TestLargeExponent_CheckCalculationMethod3_TestEC1Ev
FN:470,_ZN7testing8internal15TestFactoryImplI33TestLargeExponent_CheckClass_TestEC1Ev
FNDA:20,_ZN7testing8internal15TestFactoryImplI33TestLargeExponent_CheckClass_TestEC1Ev
FN:470,_ZN7testing8internal15TestFactoryImplI38TestLargeExponent_CheckClassFinal_TestEC1Ev
FNDA:20,_ZN7testing8internal15TestFactoryImplI38TestLargeExponent_CheckClassFinal_TestEC1Ev
FN:470,_ZN7testing8internal15TestFactoryImplI41TestLargeExponent_CheckIsDigitMethod_TestEC2Ev
FNDA:20,_ZN7testing8internal15TestFactoryImplI41TestLargeExponent_CheckIsDigitMethod_TestEC2Ev
FN:470,_ZN7testing8internal15TestFactoryImplI41TestLargeExponent_CheckIsDigitMethod_TestED1Ev
FNDA:0,_ZN7testing8internal15TestFactoryImplI41TestLargeExponent_CheckIsDigitMethod_TestED1Ev
FN:470,_ZN7testing8internal15TestFactoryImplI41TestLargeExponent_CheckIsDigitMethod_TestED0Ev
FNDA:0,_ZN7testing8internal15TestFactoryImplI41TestLargeExponent_CheckIsDigitMethod_TestED0Ev
FN:470,_ZN7testing8internal15TestFactoryImplI41TestLargeExponent_CheckIsDigitMethod_TestED2Ev
FNDA:0,_ZN7testing8internal15TestFactoryImplI41TestLargeExponent_CheckIsDigitMethod_TestED2Ev
FN:470,_ZN7testing8internal15TestFactoryImplI39TestLargeExponent_CheckInputMethod_TestEC2Ev
FNDA:20,_ZN7testing8internal15TestFactoryImplI39TestLargeExponent_CheckInputMethod_TestEC2Ev
FN:470,_ZN7testing8internal15TestFactoryImplI39TestLargeExponent_CheckInputMethod_TestED1Ev
FNDA:0,_ZN7testing8internal15TestFactoryImplI39TestLargeExponent_CheckInputMethod_TestED1Ev
FN:470,_ZN7testing8internal15TestFactoryImplI39TestLargeExponent_CheckInputMethod_TestED0Ev
FNDA:0,_ZN7testing8internal15TestFactoryImplI39TestLargeExponent_CheckInputMethod_TestED0Ev
FN:470,_ZN7testing8internal15TestFactoryImplI39TestLargeExponent_CheckInputMethod_TestED2Ev
FNDA:0,_ZN7testing8internal15TestFactoryImplI39TestLargeExponent_CheckInputMethod_TestED2Ev
FN:470,_ZN7testing8internal15TestFactoryImplI41TestLargeExponent_CheckReverseMethod_TestEC2Ev
FNDA:20,_ZN7testing8internal15TestFactoryImplI41TestLargeExponent_CheckReverseMethod_TestEC2Ev
FN:470,_ZN7testing8internal15TestFactoryImplI41TestLargeExponent_CheckReverseMethod_TestED1Ev
FNDA:0,_ZN7testing8internal15TestFactoryImplI41TestLargeExponent_CheckReverseMethod_TestED1Ev
FN:470,_ZN7testing8internal15TestFactoryImplI41TestLargeExponent_CheckReverseMethod_TestED0Ev
FNDA:0,_ZN7testing8internal15TestFactoryImplI41TestLargeExponent_CheckReverseMethod_TestED0Ev
FN:470,_ZN7testing8internal15TestFactoryImplI41TestLargeExponent_CheckReverseMethod_TestED2Ev
FNDA:0,_ZN7testing8internal15TestFactoryImplI41TestLargeExponent_CheckReverseMethod_TestED2Ev
FN:470,_ZN7testing8internal15TestFactoryImplI50TestLargeExponent_CheckInitialiseBufferMethod_TestEC2Ev
FNDA:20,_ZN7testing8internal15TestFactoryImplI50TestLargeExponent_CheckInitialiseBufferMethod_TestEC2Ev
FN:470,_ZN7testing8internal15TestFactoryImplI50TestLargeExponent_CheckInitialiseBufferMethod_TestED1Ev
FNDA:0,_ZN7testing8internal15TestFactoryImplI50TestLargeExponent_CheckInitialiseBufferMethod_TestED1Ev
FN:470,_ZN7testing8internal15TestFactoryImplI50TestLargeExponent_CheckInitialiseBufferMethod_TestED0Ev
FNDA:0,_ZN7testing8internal15TestFactoryImplI50TestLargeExponent_CheckInitialiseBufferMethod_TestED0Ev
FN:470,_ZN7testing8internal15TestFactoryImplI50TestLargeExponent_CheckInitialiseBufferMethod_TestED2Ev
FNDA:0,_ZN7testing8internal15TestFactoryImplI50TestLargeExponent_CheckInitialiseBufferMethod_TestED2Ev
FN:470,_ZN7testing8internal15TestFactoryImplI48TestLargeExponent_CheckFinaliseBufferMethod_TestEC2Ev
FNDA:20,_ZN7testing8internal15TestFactoryImplI48TestLargeExponent_CheckFinaliseBufferMethod_TestEC2Ev
FN:470,_ZN7testing8internal15TestFactoryImplI48TestLargeExponent_CheckFinaliseBufferMethod_TestED1Ev
FNDA:0,_ZN7testing8internal15TestFactoryImplI48TestLargeExponent_CheckFinaliseBufferMethod_TestED1Ev
FN:470,_ZN7testing8internal15TestFactoryImplI48TestLargeExponent_CheckFinaliseBufferMethod_TestED0Ev
FNDA:0,_ZN7testing8internal15TestFactoryImplI48TestLargeExponent_CheckFinaliseBufferMethod_TestED0Ev
FN:470,_ZN7testing8internal15TestFactoryImplI48TestLargeExponent_CheckFinaliseBufferMethod_TestED2Ev
FNDA:0,_ZN7testing8internal15TestFactoryImplI48TestLargeExponent_CheckFinaliseBufferMethod_TestED2Ev
FN:470,_ZN7testing8internal15TestFactoryImplI44TestLargeExponent_CheckBufferTransition_TestEC2Ev
FNDA:20,_ZN7testing8internal15TestFactoryImplI44TestLargeExponent_CheckBufferTransition_TestEC2Ev
FN:470,_ZN7testing8internal15TestFactoryImplI44TestLargeExponent_CheckBufferTransition_TestED1Ev
FNDA:0,_ZN7testing8internal15TestFactoryImplI44TestLargeExponent_CheckBufferTransition_TestED1Ev
FN:470,_ZN7testing8internal15TestFactoryImplI44TestLargeExponent_CheckBufferTransition_TestED0Ev
FNDA:0,_ZN7testing8internal15TestFactoryImplI44TestLargeExponent_CheckBufferTransition_TestED0Ev
FN:470,_ZN7testing8internal15TestFactoryImplI44TestLargeExponent_CheckBufferTransition_TestED2Ev
FNDA:0,_ZN7testing8internal15TestFactoryImplI44TestLargeExponent_CheckBufferTransition_TestED2Ev
FN:470,_ZN7testing8internal15TestFactoryImplI55TestLargeExponent_CheckMultiplyMethodDifferentSize_TestEC2Ev
FNDA:20,_ZN7testing8internal15TestFactoryImplI55TestLargeExponent_CheckMultiplyMethodDifferentSize_TestEC2Ev
FN:470,_ZN7testing8internal15TestFactoryImplI55TestLargeExponent_CheckMultiplyMethodDifferentSize_TestED1Ev
FNDA:0,_ZN7testing8internal15TestFactoryImplI55TestLargeExponent_CheckMultiplyMethodDifferentSize_TestED1Ev
FN:470,_ZN7testing8internal15TestFactoryImplI55TestLargeExponent_CheckMultiplyMethodDifferentSize_TestED0Ev
FNDA:0,_ZN7testing8internal15TestFactoryImplI55TestLargeExponent_CheckMultiplyMethodDifferentSize_TestED0Ev
FN:470,_ZN7testing8internal15TestFactoryImplI55TestLargeExponent_CheckMultiplyMethodDifferentSize_TestED2Ev
FNDA:0,_ZN7testing8internal15TestFactoryImplI55TestLargeExponent_CheckMultiplyMethodDifferentSize_TestED2Ev
FN:470,_ZN7testing8internal15TestFactoryImplI47TestLargeExponent_CheckMultiplyMethodBasic_TestEC2Ev
FNDA:20,_ZN7testing8internal15TestFactoryImplI47TestLargeExponent_CheckMultiplyMethodBasic_TestEC2Ev
FN:470,_ZN7testing8internal15TestFactoryImplI47TestLargeExponent_CheckMultiplyMethodBasic_TestED1Ev
FNDA:0,_ZN7testing8internal15TestFactoryImplI47TestLargeExponent_CheckMultiplyMethodBasic_TestED1Ev
FN:470,_ZN7testing8internal15TestFactoryImplI47TestLargeExponent_CheckMultiplyMethodBasic_TestED0Ev
FNDA:0,_ZN7testing8internal15TestFactoryImplI47TestLargeExponent_CheckMultiplyMethodBasic_TestED0Ev
FN:470,_ZN7testing8internal15TestFactoryImplI47TestLargeExponent_CheckMultiplyMethodBasic_TestED2Ev
FNDA:0,_ZN7testing8internal15TestFactoryImplI47TestLargeExponent_CheckMultiplyMethodBasic_TestED2Ev
FN:470,_ZN7testing8internal15TestFactoryImplI57TestLargeExponent_CheckCalculateBufferMethodSameSize_TestEC2Ev
FNDA:20,_ZN7testing8internal15TestFactoryImplI57TestLargeExponent_CheckCalculateBufferMethodSameSize_TestEC2Ev
FN:470,_ZN7testing8internal15TestFactoryImplI57TestLargeExponent_CheckCalculateBufferMethodSameSize_TestED1Ev
FNDA:0,_ZN7testing8internal15TestFactoryImplI57TestLargeExponent_CheckCalculateBufferMethodSameSize_TestED1Ev
FN:470,_ZN7testing8internal15TestFactoryImplI57TestLargeExponent_CheckCalculateBufferMethodSameSize_TestED0Ev
FNDA:0,_ZN7testing8internal15TestFactoryImplI57TestLargeExponent_CheckCalculateBufferMethodSameSize_TestED0Ev
FN:470,_ZN7testing8internal15TestFactoryImplI57TestLargeExponent_CheckCalculateBufferMethodSameSize_TestED2Ev
FNDA:0,_ZN7testing8internal15TestFactoryImplI57TestLargeExponent_CheckCalculateBufferMethodSameSize_TestED2Ev
FN:470,_ZN7testing8internal15TestFactoryImplI62TestLargeExponent_CheckCalculateBufferMethodDifferentSize_TestEC2Ev
FNDA:20,_ZN7testing8internal15TestFactoryImplI62TestLargeExponent_CheckCalculateBufferMethodDifferentSize_TestEC2Ev
FN:470,_ZN7testing8internal15TestFactoryImplI62TestLargeExponent_CheckCalculateBufferMethodDifferentSize_TestED1Ev
FNDA:0,_ZN7testing8internal15TestFactoryImplI62TestLargeExponent_CheckCalculateBufferMethodDifferentSize_TestED1Ev
FN:470,_ZN7testing8internal15TestFactoryImplI62TestLargeExponent_CheckCalculateBufferMethodDifferentSize_TestED0Ev
FNDA:0,_ZN7testing8internal15TestFactoryImplI62TestLargeExponent_CheckCalculateBufferMethodDifferentSize_TestED0Ev
FN:470,_ZN7testing8internal15TestFactoryImplI62TestLargeExponent_CheckCalculateBufferMethodDifferentSize_TestED2Ev
FNDA:0,_ZN7testing8internal15TestFactoryImplI62TestLargeExponent_CheckCalculateBufferMethodDifferentSize_TestED2Ev
FN:470,_ZN7testing8internal15TestFactoryImplI46TestLargeExponent_CheckCalculationMethod1_TestEC2Ev
FNDA:20,_ZN7testing8internal15TestFactoryImplI46TestLargeExponent_CheckCalculationMethod1_TestEC2Ev
FN:470,_ZN7testing8internal15TestFactoryImplI46TestLargeExponent_CheckCalculationMethod1_TestED1Ev
FNDA:0,_ZN7testing8internal15TestFactoryImplI46TestLargeExponent_CheckCalculationMethod1_TestED1Ev
FN:470,_ZN7testing8internal15TestFactoryImplI46TestLargeExponent_CheckCalculationMethod1_TestED0Ev
FNDA:0,_ZN7testing8internal15TestFactoryImplI46TestLargeExponent_CheckCalculationMethod1_TestED0Ev
FN:470,_ZN7testing8internal15TestFactoryImplI46TestLargeExponent_CheckCalculationMethod1_TestED2Ev
FNDA:0,_ZN7testing8internal15TestFactoryImplI46TestLargeExponent_CheckCalculationMethod1_TestED2Ev
FN:470,_ZN7testing8internal15TestFactoryImplI46TestLargeExponent_CheckCalculationMethod2_TestEC2Ev
FNDA:20,_ZN7testing8internal15TestFactoryImplI46TestLargeExponent_CheckCalculationMethod2_TestEC2Ev
FN:470,_ZN7testing8internal15TestFactoryImplI46TestLargeExponent_CheckCalculationMethod2_TestED1Ev
FNDA:0,_ZN7testing8internal15TestFactoryImplI46TestLargeExponent_CheckCalculationMethod2_TestED1Ev
FN:470,_ZN7testing8internal15TestFactoryImplI46TestLargeExponent_CheckCalculationMethod2_TestED0Ev
FNDA:0,_ZN7testing8internal15TestFactoryImplI46TestLargeExponent_CheckCalculationMethod2_TestED0Ev
FN:470,_ZN7testing8internal15TestFactoryImplI46TestLargeExponent_CheckCalculationMethod2_TestED2Ev
FNDA:0,_ZN7testing8internal15TestFactoryImplI46TestLargeExponent_CheckCalculationMethod2_TestED2Ev
FN:470,_ZN7testing8internal15TestFactoryImplI46TestLargeExponent_CheckCalculationMethod3_TestEC2Ev
FNDA:20,_ZN7testing8internal15TestFactoryImplI46TestLargeExponent_CheckCalculationMethod3_TestEC2Ev
FN:470,_ZN7testing8internal15TestFactoryImplI46TestLargeExponent_CheckCalculationMethod3_TestED1Ev
FNDA:0,_ZN7testing8internal15TestFactoryImplI46TestLargeExponent_CheckCalculationMethod3_TestED1Ev
FN:470,_ZN7testing8internal15TestFactoryImplI46TestLargeExponent_CheckCalculationMethod3_TestED0Ev
FNDA:0,_ZN7testing8internal15TestFactoryImplI46TestLargeExponent_CheckCalculationMethod3_TestED0Ev
FN:470,_ZN7testing8internal15TestFactoryImplI46TestLargeExponent_CheckCalculationMethod3_TestED2Ev
FNDA:0,_ZN7testing8internal15TestFactoryImplI46TestLargeExponent_CheckCalculationMethod3_TestED2Ev
FN:470,_ZN7testing8internal15TestFactoryImplI33TestLargeExponent_CheckClass_TestEC2Ev
FNDA:20,_ZN7testing8internal15TestFactoryImplI33TestLargeExponent_CheckClass_TestEC2Ev
FN:470,_ZN7testing8internal15TestFactoryImplI33TestLargeExponent_CheckClass_TestED1Ev
FNDA:0,_ZN7testing8internal15TestFactoryImplI33TestLargeExponent_CheckClass_TestED1Ev
FN:470,_ZN7testing8internal15TestFactoryImplI33TestLargeExponent_CheckClass_TestED0Ev
FNDA:0,_ZN7testing8internal15TestFactoryImplI33TestLargeExponent_CheckClass_TestED0Ev
FN:470,_ZN7testing8internal15TestFactoryImplI33TestLargeExponent_CheckClass_TestED2Ev
FNDA:0,_ZN7testing8internal15TestFactoryImplI33TestLargeExponent_CheckClass_TestED2Ev
FN:470,_ZN7testing8internal15TestFactoryImplI38TestLargeExponent_CheckClassFinal_TestEC2Ev
FNDA:20,_ZN7testing8internal15TestFactoryImplI38TestLargeExponent_CheckClassFinal_TestEC2Ev
FN:470,_ZN7testing8internal15TestFactoryImplI38TestLargeExponent_CheckClassFinal_TestED1Ev
FNDA:0,_ZN7testing8internal15TestFactoryImplI38TestLargeExponent_CheckClassFinal_TestED1Ev
FN:470,_ZN7testing8internal15TestFactoryImplI38TestLargeExponent_CheckClassFinal_TestED0Ev
FNDA:0,_ZN7testing8internal15TestFactoryImplI38TestLargeExponent_CheckClassFinal_TestED0Ev
FN:470,_ZN7testing8internal15TestFactoryImplI38TestLargeExponent_CheckClassFinal_TestED2Ev
FNDA:0,_ZN7testing8internal15TestFactoryImplI38TestLargeExponent_CheckClassFinal_TestED2Ev
FN:472,_ZN7testing8internal15TestFactoryImplI41TestLargeExponent_CheckIsDigitMethod_TestE10CreateTestEv
FNDA:1,_ZN7testing8internal15TestFactoryImplI41TestLargeExponent_CheckIsDigitMethod_TestE10CreateTestEv
FN:472,_ZN7testing8internal15TestFactoryImplI39TestLargeExponent_CheckInputMethod_TestE10CreateTestEv
FNDA:1,_ZN7testing8internal15TestFactoryImplI39TestLargeExponent_CheckInputMethod_TestE10CreateTestEv
FN:472,_ZN7testing8internal15TestFactoryImplI41TestLargeExponent_CheckReverseMethod_TestE10CreateTestEv
FNDA:1,_ZN7testing8internal15TestFactoryImplI41TestLargeExponent_CheckReverseMethod_TestE10CreateTestEv
FN:472,_ZN7testing8internal15TestFactoryImplI50TestLargeExponent_CheckInitialiseBufferMethod_TestE10CreateTestEv
FNDA:1,_ZN7testing8internal15TestFactoryImplI50TestLargeExponent_CheckInitialiseBufferMethod_TestE10CreateTestEv
FN:472,_ZN7testing8internal15TestFactoryImplI48TestLargeExponent_CheckFinaliseBufferMethod_TestE10CreateTestEv
FNDA:1,_ZN7testing8internal15TestFactoryImplI48TestLargeExponent_CheckFinaliseBufferMethod_TestE10CreateTestEv
FN:472,_ZN7testing8internal15TestFactoryImplI44TestLargeExponent_CheckBufferTransition_TestE10CreateTestEv
FNDA:1,_ZN7testing8internal15TestFactoryImplI44TestLargeExponent_CheckBufferTransition_TestE10CreateTestEv
FN:472,_ZN7testing8internal15TestFactoryImplI55TestLargeExponent_CheckMultiplyMethodDifferentSize_TestE10CreateTestEv
FNDA:1,_ZN7testing8internal15TestFactoryImplI55TestLargeExponent_CheckMultiplyMethodDifferentSize_TestE10CreateTestEv
FN:472,_ZN7testing8internal15TestFactoryImplI47TestLargeExponent_CheckMultiplyMethodBasic_TestE10CreateTestEv
FNDA:1,_ZN7testing8internal15TestFactoryImplI47TestLargeExponent_CheckMultiplyMethodBasic_TestE10CreateTestEv
FN:472,_ZN7testing8internal15TestFactoryImplI57TestLargeExponent_CheckCalculateBufferMethodSameSize_TestE10CreateTestEv
FNDA:1,_ZN7testing8internal15TestFactoryImplI57TestLargeExponent_CheckCalculateBufferMethodSameSize_TestE10CreateTestEv
FN:472,_ZN7testing8internal15TestFactoryImplI62TestLargeExponent_CheckCalculateBufferMethodDifferentSize_TestE10CreateTestEv
FNDA:1,_ZN7testing8internal15TestFactoryImplI62TestLargeExponent_CheckCalculateBufferMethodDifferentSize_TestE10CreateTestEv
FN:472,_ZN7testing8internal15TestFactoryImplI46TestLargeExponent_CheckCalculationMethod1_TestE10CreateTestEv
FNDA:1,_ZN7testing8internal15TestFactoryImplI46TestLargeExponent_CheckCalculationMethod1_TestE10CreateTestEv
FN:472,_ZN7testing8internal15TestFactoryImplI46TestLargeExponent_CheckCalculationMethod2_TestE10CreateTestEv
FNDA:1,_ZN7testing8internal15TestFactoryImplI46TestLargeExponent_CheckCalculationMethod2_TestE10CreateTestEv
FN:472,_ZN7testing8internal15TestFactoryImplI46TestLargeExponent_CheckCalculationMethod3_TestE10CreateTestEv
FNDA:1,_ZN7testing8internal15TestFactoryImplI46TestLargeExponent_CheckCalculationMethod3_TestE10CreateTestEv
FN:472,_ZN7testing8internal15TestFactoryImplI33TestLargeExponent_CheckClass_TestE10CreateTestEv
FNDA:1,_ZN7testing8internal15TestFactoryImplI33TestLargeExponent_CheckClass_TestE10CreateTestEv
FN:472,_ZN7testing8internal15TestFactoryImplI38TestLargeExponent_CheckClassFinal_TestE10CreateTestEv
FNDA:1,_ZN7testing8internal15TestFactoryImplI38TestLargeExponent_CheckClassFinal_TestE10CreateTestEv
FN:492,_ZN7testing8internal12CodeLocationD1Ev
FNDA:760,_ZN7testing8internal12CodeLocationD1Ev
FN:492,_ZN7testing8internal12CodeLocationD2Ev
FNDA:760,_ZN7testing8internal12CodeLocationD2Ev
FN:493,_ZN7testing8internal12CodeLocationC1ERKNSt3__112basic_stringIcNS2_11char_traitsIcEENS2_9allocatorIcEEEEi
FNDA:380,_ZN7testing8internal12CodeLocationC1ERKNSt3__112basic_stringIcNS2_11char_traitsIcEENS2_9allocatorIcEEEEi
FN:493,_ZN7testing8internal12CodeLocationC2ERKNSt3__112basic_stringIcNS2_11char_traitsIcEENS2_9allocatorIcEEEEi
FNDA:380,_ZN7testing8internal12CodeLocationC2ERKNSt3__112basic_stringIcNS2_11char_traitsIcEENS2_9allocatorIcEEEEi
FN:506,_ZN7testing8internal19GetNotDefaultOrNullEPFvvES2_
FNDA:1520,_ZN7testing8internal19GetNotDefaultOrNullEPFvvES2_
FN:521,_ZN7testing8internal16SuiteApiResolverIN4Test17TestLargeExponentEE19GetSetUpCaseOrSuiteEPKci
FNDA:300,_ZN7testing8internal16SuiteApiResolverIN4Test17TestLargeExponentEE19GetSetUpCaseOrSuiteEPKci
FN:542,_ZN7testing8internal16SuiteApiResolverIN4Test17TestLargeExponentEE22GetTearDownCaseOrSuiteEPKci
FNDA:300,_ZN7testing8internal16SuiteApiResolverIN4Test17TestLargeExponentEE22GetTearDownCaseOrSuiteEPKci
DA:435,300
DA:440,300
DA:454,0
DA:461,380
DA:472,15
DA:493,760
DA:494,760
DA:506,1520
DA:508,1520
DA:521,300
DA:524,300
DA:525,300
DA:526,300
DA:527,300
DA:529,300
DA:530,0
DA:532,0
DA:534,300
DA:540,0
DA:542,300
DA:545,300
DA:546,300
DA:547,300
DA:548,300
DA:550,300
DA:551,0
DA:553,0
DA:555,300
DA:561,0
FNF:102
FNH:54
LF:29
LH:22
end_of_record
SF:/Library/Developer/CommandLineTools/SDKs/MacOSX12.3.sdk/usr/include/c++/v1/__memory/addressof.h
FN:30,_ZNSt3__1L9addressofIKcEEPT_RS2_
FNDA:0,_ZNSt3__1L9addressofIKcEEPT_RS2_
FN:30,_ZNSt3__1L9addressofIcEEPT_RS1_
FNDA:0,_ZNSt3__1L9addressofIcEEPT_RS1_
DA:30,0
DA:32,0
FNF:2
FNH:0
LF:2
LH:0
end_of_record
SF:/Library/Developer/CommandLineTools/SDKs/MacOSX12.3.sdk/usr/include/c++/v1/__algorithm/min.h
FN:30,_ZNSt3__1L3minImNS_6__lessImmEEEERKT_S5_S5_T0_
FNDA:4121,_ZNSt3__1L3minImNS_6__lessImmEEEERKT_S5_S5_T0_
FN:39,_ZNSt3__1L3minImEERKT_S3_S3_
FNDA:4121,_ZNSt3__1L3minImEERKT_S3_S3_
DA:30,4121
DA:32,4121
DA:39,4121
DA:41,4121
FNF:2
FNH:2
LF:4
LH:4
end_of_record
SF:/Users/dogukanarat/Desktop/Workspace/RocketLab/Binaries/Debug/Intermediate/_deps/googletest-src/googletest/include/gtest/gtest-message.h
FN:91,_ZN7testing7MessageD1Ev
FNDA:1088,_ZN7testing7MessageD1Ev
FN:91,_ZN7testing7MessageD2Ev
FNDA:1088,_ZN7testing7MessageD2Ev
FNF:2
FNH:2
LF:0
LH:0
end_of_record
SF:/Library/Developer/CommandLineTools/SDKs/MacOSX12.3.sdk/usr/include/c++/v1/__utility/forward.h
FN:27,_ZNSt3__1L7forwardINS_18__default_init_tagEEEOT_RNS_16remove_referenceIS2_E4typeE
FNDA:705,_ZNSt3__1L7forwardINS_18__default_init_tagEEEOT_RNS_16remove_referenceIS2_E4typeE
FN:27,_ZNSt3__1L7forwardIPNS_12basic_stringIcNS_11char_traitsIcEENS_9allocatorIcEEEEEEOT_RNS_16remove_referenceIS8_E4typeE
FNDA:108,_ZNSt3__1L7forwardIPNS_12basic_stringIcNS_11char_traitsIcEENS_9allocatorIcEEEEEEOT_RNS_16remove_referenceIS8_E4typeE
FN:27,_ZNSt3__1L7forwardIDnEEOT_RNS_16remove_referenceIS1_E4typeE
FNDA:18,_ZNSt3__1L7forwardIDnEEOT_RNS_16remove_referenceIS1_E4typeE
DA:27,831
DA:28,831
FNF:3
FNH:3
LF:2
LH:2
end_of_record
SF:/Library/Developer/CommandLineTools/SDKs/MacOSX12.3.sdk/usr/include/c++/v1/stdexcept
FN:153,_ZNSt12length_errorC1EPKc
FNDA:0,_ZNSt12length_errorC1EPKc
FN:153,_ZNSt12length_errorC2EPKc
FNDA:0,_ZNSt12length_errorC2EPKc
FN:253,_ZNSt3__1L20__throw_length_errorEPKc
FNDA:0,_ZNSt3__1L20__throw_length_errorEPKc
DA:153,0
DA:253,0
DA:256,0
DA:261,0
FNF:3
FNH:0
LF:4
LH:0
end_of_record
SF:/Users/dogukanarat/Desktop/Workspace/RocketLab/Binaries/Debug/Intermediate/_deps/googletest-src/googletest/include/gtest/internal/gtest-port.h
FN:970,_ZN7testing8internal8GTestLog9GetStreamEv
FNDA:0,_ZN7testing8internal8GTestLog9GetStreamEv
DA:970,0
FNF:1
FNH:0
LF:1
LH:0
end_of_record
SF:/Library/Developer/CommandLineTools/SDKs/MacOSX12.3.sdk/usr/include/c++/v1/limits
FN:214,_ZNSt3__123__libcpp_numeric_limitsIlLb1EE3maxEv
FNDA:4121,_ZNSt3__123__libcpp_numeric_limitsIlLb1EE3maxEv
FN:451,_ZNSt3__114numeric_limitsIlE3maxEv
FNDA:4121,_ZNSt3__114numeric_limitsIlE3maxEv
DA:214,4121
DA:451,4121
FNF:2
FNH:2
LF:2
LH:2
end_of_record
SF:/Users/dogukanarat/Desktop/Workspace/RocketLab/Binaries/Debug/Intermediate/_deps/googletest-src/googletest/include/gtest/gtest-printers.h
FN:132,_ZN7testing8internal16ContainerPrinter10PrintValueINSt3__16vectorIiNS3_9allocatorIiEEEEvEEvRKT_PNS3_13basic_ostreamIcNS3_11char_traitsIcEEEE
FNDA:0,_ZN7testing8internal16ContainerPrinter10PrintValueINSt3__16vectorIiNS3_9allocatorIiEEEEvEEvRKT_PNS3_13basic_ostreamIcNS3_11char_traitsIcEEEE
FN:212,_ZN7testing8internal52internal_stream_operator_without_lexical_name_lookup13StreamPrinter10PrintValueIivRNSt3__113basic_ostreamIcNS4_11char_traitsIcEEEEEEvRKT_PS8_
FNDA:0,_ZN7testing8internal52internal_stream_operator_without_lexical_name_lookup13StreamPrinter10PrintValueIivRNSt3__113basic_ostreamIcNS4_11char_traitsIcEEEEEEvRKT_PS8_
FN:306,_ZN7testing8internal17PrintWithFallbackINSt3__16vectorIiNS2_9allocatorIiEEEEEEvRKT_PNS2_13basic_ostreamIcNS2_11char_traitsIcEEEE
FNDA:0,_ZN7testing8internal17PrintWithFallbackINSt3__16vectorIiNS2_9allocatorIiEEEEEEvRKT_PNS2_13basic_ostreamIcNS2_11char_traitsIcEEEE
FN:306,_ZN7testing8internal17PrintWithFallbackIiEEvRKT_PNSt3__113basic_ostreamIcNS5_11char_traitsIcEEEE
FNDA:0,_ZN7testing8internal17PrintWithFallbackIiEEvRKT_PNSt3__113basic_ostreamIcNS5_11char_traitsIcEEEE
FN:333,_ZN7testing8internal19FormatForComparisonINSt3__112basic_stringIcNS2_11char_traitsIcEENS2_9allocatorIcEEEEA4_cE6FormatERKS8_
FNDA:0,_ZN7testing8internal19FormatForComparisonINSt3__112basic_stringIcNS2_11char_traitsIcEENS2_9allocatorIcEEEEA4_cE6FormatERKS8_
FN:333,_ZN7testing8internal19FormatForComparisonINSt3__112basic_stringIcNS2_11char_traitsIcEENS2_9allocatorIcEEEEA2_cE6FormatERKS8_
FNDA:0,_ZN7testing8internal19FormatForComparisonINSt3__112basic_stringIcNS2_11char_traitsIcEENS2_9allocatorIcEEEEA2_cE6FormatERKS8_
FN:333,_ZN7testing8internal19FormatForComparisonINSt3__112basic_stringIcNS2_11char_traitsIcEENS2_9allocatorIcEEEEA5_cE6FormatERKS8_
FNDA:0,_ZN7testing8internal19FormatForComparisonINSt3__112basic_stringIcNS2_11char_traitsIcEENS2_9allocatorIcEEEEA5_cE6FormatERKS8_
FN:333,_ZN7testing8internal19FormatForComparisonINSt3__16vectorIiNS2_9allocatorIiEEEES6_E6FormatERKS6_
FNDA:0,_ZN7testing8internal19FormatForComparisonINSt3__16vectorIiNS2_9allocatorIiEEEES6_E6FormatERKS6_
FN:333,_ZN7testing8internal19FormatForComparisonIiiE6FormatERKi
FNDA:0,_ZN7testing8internal19FormatForComparisonIiiE6FormatERKi
FN:333,_ZN7testing8internal19FormatForComparisonINSt3__112basic_stringIcNS2_11char_traitsIcEENS2_9allocatorIcEEEEA6_cE6FormatERKS8_
FNDA:0,_ZN7testing8internal19FormatForComparisonINSt3__112basic_stringIcNS2_11char_traitsIcEENS2_9allocatorIcEEEEA6_cE6FormatERKS8_
FN:333,_ZN7testing8internal19FormatForComparisonINSt3__112basic_stringIcNS2_11char_traitsIcEENS2_9allocatorIcEEEEA7_cE6FormatERKS8_
FNDA:0,_ZN7testing8internal19FormatForComparisonINSt3__112basic_stringIcNS2_11char_traitsIcEENS2_9allocatorIcEEEEA7_cE6FormatERKS8_
FN:333,_ZN7testing8internal19FormatForComparisonINSt3__112basic_stringIcNS2_11char_traitsIcEENS2_9allocatorIcEEEEA12_cE6FormatERKS8_
FNDA:0,_ZN7testing8internal19FormatForComparisonINSt3__112basic_stringIcNS2_11char_traitsIcEENS2_9allocatorIcEEEEA12_cE6FormatERKS8_
FN:333,_ZN7testing8internal19FormatForComparisonINSt3__112basic_stringIcNS2_11char_traitsIcEENS2_9allocatorIcEEEEA24_cE6FormatERKS8_
FNDA:0,_ZN7testing8internal19FormatForComparisonINSt3__112basic_stringIcNS2_11char_traitsIcEENS2_9allocatorIcEEEEA24_cE6FormatERKS8_
FN:333,_ZN7testing8internal19FormatForComparisonINSt3__112basic_stringIcNS2_11char_traitsIcEENS2_9allocatorIcEEEEA672_cE6FormatERKS8_
FNDA:0,_ZN7testing8internal19FormatForComparisonINSt3__112basic_stringIcNS2_11char_traitsIcEENS2_9allocatorIcEEEEA672_cE6FormatERKS8_
FN:342,_ZN7testing8internal19FormatForComparisonIA4_cNSt3__112basic_stringIcNS3_11char_traitsIcEENS3_9allocatorIcEEEEE6FormatEPKc
FNDA:0,_ZN7testing8internal19FormatForComparisonIA4_cNSt3__112basic_stringIcNS3_11char_traitsIcEENS3_9allocatorIcEEEEE6FormatEPKc
FN:342,_ZN7testing8internal19FormatForComparisonIA2_cNSt3__112basic_stringIcNS3_11char_traitsIcEENS3_9allocatorIcEEEEE6FormatEPKc
FNDA:0,_ZN7testing8internal19FormatForComparisonIA2_cNSt3__112basic_stringIcNS3_11char_traitsIcEENS3_9allocatorIcEEEEE6FormatEPKc
FN:342,_ZN7testing8internal19FormatForComparisonIA5_cNSt3__112basic_stringIcNS3_11char_traitsIcEENS3_9allocatorIcEEEEE6FormatEPKc
FNDA:0,_ZN7testing8internal19FormatForComparisonIA5_cNSt3__112basic_stringIcNS3_11char_traitsIcEENS3_9allocatorIcEEEEE6FormatEPKc
FN:342,_ZN7testing8internal19FormatForComparisonIA6_cNSt3__112basic_stringIcNS3_11char_traitsIcEENS3_9allocatorIcEEEEE6FormatEPKc
FNDA:0,_ZN7testing8internal19FormatForComparisonIA6_cNSt3__112basic_stringIcNS3_11char_traitsIcEENS3_9allocatorIcEEEEE6FormatEPKc
FN:342,_ZN7testing8internal19FormatForComparisonIA7_cNSt3__112basic_stringIcNS3_11char_traitsIcEENS3_9allocatorIcEEEEE6FormatEPKc
FNDA:0,_ZN7testing8internal19FormatForComparisonIA7_cNSt3__112basic_stringIcNS3_11char_traitsIcEENS3_9allocatorIcEEEEE6FormatEPKc
FN:342,_ZN7testing8internal19FormatForComparisonIA12_cNSt3__112basic_stringIcNS3_11char_traitsIcEENS3_9allocatorIcEEEEE6FormatEPKc
FNDA:0,_ZN7testing8internal19FormatForComparisonIA12_cNSt3__112basic_stringIcNS3_11char_traitsIcEENS3_9allocatorIcEEEEE6FormatEPKc
FN:342,_ZN7testing8internal19FormatForComparisonIA24_cNSt3__112basic_stringIcNS3_11char_traitsIcEENS3_9allocatorIcEEEEE6FormatEPKc
FNDA:0,_ZN7testing8internal19FormatForComparisonIA24_cNSt3__112basic_stringIcNS3_11char_traitsIcEENS3_9allocatorIcEEEEE6FormatEPKc
FN:342,_ZN7testing8internal19FormatForComparisonIA672_cNSt3__112basic_stringIcNS3_11char_traitsIcEENS3_9allocatorIcEEEEE6FormatEPKc
FNDA:0,_ZN7testing8internal19FormatForComparisonIA672_cNSt3__112basic_stringIcNS3_11char_traitsIcEENS3_9allocatorIcEEEEE6FormatEPKc
FN:387,_ZN7testing8internal19FormatForComparisonIPKcNSt3__112basic_stringIcNS4_11char_traitsIcEENS4_9allocatorIcEEEEE6FormatES3_
FNDA:0,_ZN7testing8internal19FormatForComparisonIPKcNSt3__112basic_stringIcNS4_11char_traitsIcEENS4_9allocatorIcEEEEE6FormatES3_
FN:413,_ZN7testing8internal33FormatForComparisonFailureMessageIA4_cNSt3__112basic_stringIcNS3_11char_traitsIcEENS3_9allocatorIcEEEEEES9_RKT_RKT0_
FNDA:0,_ZN7testing8internal33FormatForComparisonFailureMessageIA4_cNSt3__112basic_stringIcNS3_11char_traitsIcEENS3_9allocatorIcEEEEEES9_RKT_RKT0_
FN:413,_ZN7testing8internal33FormatForComparisonFailureMessageINSt3__112basic_stringIcNS2_11char_traitsIcEENS2_9allocatorIcEEEEA4_cEES8_RKT_RKT0_
FNDA:0,_ZN7testing8internal33FormatForComparisonFailureMessageINSt3__112basic_stringIcNS2_11char_traitsIcEENS2_9allocatorIcEEEEA4_cEES8_RKT_RKT0_
FN:413,_ZN7testing8internal33FormatForComparisonFailureMessageIA2_cNSt3__112basic_stringIcNS3_11char_traitsIcEENS3_9allocatorIcEEEEEES9_RKT_RKT0_
FNDA:0,_ZN7testing8internal33FormatForComparisonFailureMessageIA2_cNSt3__112basic_stringIcNS3_11char_traitsIcEENS3_9allocatorIcEEEEEES9_RKT_RKT0_
FN:413,_ZN7testing8internal33FormatForComparisonFailureMessageINSt3__112basic_stringIcNS2_11char_traitsIcEENS2_9allocatorIcEEEEA2_cEES8_RKT_RKT0_
FNDA:0,_ZN7testing8internal33FormatForComparisonFailureMessageINSt3__112basic_stringIcNS2_11char_traitsIcEENS2_9allocatorIcEEEEA2_cEES8_RKT_RKT0_
FN:413,_ZN7testing8internal33FormatForComparisonFailureMessageIA5_cNSt3__112basic_stringIcNS3_11char_traitsIcEENS3_9allocatorIcEEEEEES9_RKT_RKT0_
FNDA:0,_ZN7testing8internal33FormatForComparisonFailureMessageIA5_cNSt3__112basic_stringIcNS3_11char_traitsIcEENS3_9allocatorIcEEEEEES9_RKT_RKT0_
FN:413,_ZN7testing8internal33FormatForComparisonFailureMessageINSt3__112basic_stringIcNS2_11char_traitsIcEENS2_9allocatorIcEEEEA5_cEES8_RKT_RKT0_
FNDA:0,_ZN7testing8internal33FormatForComparisonFailureMessageINSt3__112basic_stringIcNS2_11char_traitsIcEENS2_9allocatorIcEEEEA5_cEES8_RKT_RKT0_
FN:413,_ZN7testing8internal33FormatForComparisonFailureMessageINSt3__16vectorIiNS2_9allocatorIiEEEES6_EENS2_12basic_stringIcNS2_11char_traitsIcEENS4_IcEEEERKT_RKT0_
FNDA:0,_ZN7testing8internal33FormatForComparisonFailureMessageINSt3__16vectorIiNS2_9allocatorIiEEEES6_EENS2_12basic_stringIcNS2_11char_traitsIcEENS4_IcEEEERKT_RKT0_
FN:413,_ZN7testing8internal33FormatForComparisonFailureMessageIiiEENSt3__112basic_stringIcNS2_11char_traitsIcEENS2_9allocatorIcEEEERKT_RKT0_
FNDA:0,_ZN7testing8internal33FormatForComparisonFailureMessageIiiEENSt3__112basic_stringIcNS2_11char_traitsIcEENS2_9allocatorIcEEEERKT_RKT0_
FN:413,_ZN7testing8internal33FormatForComparisonFailureMessageIA6_cNSt3__112basic_stringIcNS3_11char_traitsIcEENS3_9allocatorIcEEEEEES9_RKT_RKT0_
FNDA:0,_ZN7testing8internal33FormatForComparisonFailureMessageIA6_cNSt3__112basic_stringIcNS3_11char_traitsIcEENS3_9allocatorIcEEEEEES9_RKT_RKT0_
FN:413,_ZN7testing8internal33FormatForComparisonFailureMessageINSt3__112basic_stringIcNS2_11char_traitsIcEENS2_9allocatorIcEEEEA6_cEES8_RKT_RKT0_
FNDA:0,_ZN7testing8internal33FormatForComparisonFailureMessageINSt3__112basic_stringIcNS2_11char_traitsIcEENS2_9allocatorIcEEEEA6_cEES8_RKT_RKT0_
FN:413,_ZN7testing8internal33FormatForComparisonFailureMessageIA7_cNSt3__112basic_stringIcNS3_11char_traitsIcEENS3_9allocatorIcEEEEEES9_RKT_RKT0_
FNDA:0,_ZN7testing8internal33FormatForComparisonFailureMessageIA7_cNSt3__112basic_stringIcNS3_11char_traitsIcEENS3_9allocatorIcEEEEEES9_RKT_RKT0_
FN:413,_ZN7testing8internal33FormatForComparisonFailureMessageINSt3__112basic_stringIcNS2_11char_traitsIcEENS2_9allocatorIcEEEEA7_cEES8_RKT_RKT0_
FNDA:0,_ZN7testing8internal33FormatForComparisonFailureMessageINSt3__112basic_stringIcNS2_11char_traitsIcEENS2_9allocatorIcEEEEA7_cEES8_RKT_RKT0_
FN:413,_ZN7testing8internal33FormatForComparisonFailureMessageIA12_cNSt3__112basic_stringIcNS3_11char_traitsIcEENS3_9allocatorIcEEEEEES9_RKT_RKT0_
FNDA:0,_ZN7testing8internal33FormatForComparisonFailureMessageIA12_cNSt3__112basic_stringIcNS3_11char_traitsIcEENS3_9allocatorIcEEEEEES9_RKT_RKT0_
FN:413,_ZN7testing8internal33FormatForComparisonFailureMessageINSt3__112basic_stringIcNS2_11char_traitsIcEENS2_9allocatorIcEEEEA12_cEES8_RKT_RKT0_
FNDA:0,_ZN7testing8internal33FormatForComparisonFailureMessageINSt3__112basic_stringIcNS2_11char_traitsIcEENS2_9allocatorIcEEEEA12_cEES8_RKT_RKT0_
FN:413,_ZN7testing8internal33FormatForComparisonFailureMessageINSt3__112basic_stringIcNS2_11char_traitsIcEENS2_9allocatorIcEEEEA24_cEES8_RKT_RKT0_
FNDA:0,_ZN7testing8internal33FormatForComparisonFailureMessageINSt3__112basic_stringIcNS2_11char_traitsIcEENS2_9allocatorIcEEEEA24_cEES8_RKT_RKT0_
FN:413,_ZN7testing8internal33FormatForComparisonFailureMessageIA24_cNSt3__112basic_stringIcNS3_11char_traitsIcEENS3_9allocatorIcEEEEEES9_RKT_RKT0_
FNDA:0,_ZN7testing8internal33FormatForComparisonFailureMessageIA24_cNSt3__112basic_stringIcNS3_11char_traitsIcEENS3_9allocatorIcEEEEEES9_RKT_RKT0_
FN:413,_ZN7testing8internal33FormatForComparisonFailureMessageINSt3__112basic_stringIcNS2_11char_traitsIcEENS2_9allocatorIcEEEEA672_cEES8_RKT_RKT0_
FNDA:0,_ZN7testing8internal33FormatForComparisonFailureMessageINSt3__112basic_stringIcNS2_11char_traitsIcEENS2_9allocatorIcEEEEA672_cEES8_RKT_RKT0_
FN:413,_ZN7testing8internal33FormatForComparisonFailureMessageIA672_cNSt3__112basic_stringIcNS3_11char_traitsIcEENS3_9allocatorIcEEEEEES9_RKT_RKT0_
FNDA:0,_ZN7testing8internal33FormatForComparisonFailureMessageIA672_cNSt3__112basic_stringIcNS3_11char_traitsIcEENS3_9allocatorIcEEEEEES9_RKT_RKT0_
FN:440,_ZN7testing8internal7PrintToINSt3__16vectorIiNS2_9allocatorIiEEEEEEvRKT_PNS2_13basic_ostreamIcNS2_11char_traitsIcEEEE
FNDA:0,_ZN7testing8internal7PrintToINSt3__16vectorIiNS2_9allocatorIiEEEEEEvRKT_PNS2_13basic_ostreamIcNS2_11char_traitsIcEEEE
FN:440,_ZN7testing8internal7PrintToIiEEvRKT_PNSt3__113basic_ostreamIcNS5_11char_traitsIcEEEE
FNDA:0,_ZN7testing8internal7PrintToIiEEvRKT_PNSt3__113basic_ostreamIcNS5_11char_traitsIcEEEE
FN:552,_ZN7testing8internal7PrintToERKNSt3__112basic_stringIcNS1_11char_traitsIcEENS1_9allocatorIcEEEEPNS1_13basic_ostreamIcS4_EE
FNDA:0,_ZN7testing8internal7PrintToERKNSt3__112basic_stringIcNS1_11char_traitsIcEENS1_9allocatorIcEEEEPNS1_13basic_ostreamIcS4_EE
FN:665,_ZN7testing8internal16UniversalPrinterINSt3__112basic_stringIcNS2_11char_traitsIcEENS2_9allocatorIcEEEEE5PrintERKS8_PNS2_13basic_ostreamIcS5_EE
FNDA:0,_ZN7testing8internal16UniversalPrinterINSt3__112basic_stringIcNS2_11char_traitsIcEENS2_9allocatorIcEEEEE5PrintERKS8_PNS2_13basic_ostreamIcS5_EE
FN:665,_ZN7testing8internal16UniversalPrinterINSt3__16vectorIiNS2_9allocatorIiEEEEE5PrintERKS6_PNS2_13basic_ostreamIcNS2_11char_traitsIcEEEE
FNDA:0,_ZN7testing8internal16UniversalPrinterINSt3__16vectorIiNS2_9allocatorIiEEEEE5PrintERKS6_PNS2_13basic_ostreamIcNS2_11char_traitsIcEEEE
FN:665,_ZN7testing8internal16UniversalPrinterIiE5PrintERKiPNSt3__113basic_ostreamIcNS5_11char_traitsIcEEEE
FNDA:0,_ZN7testing8internal16UniversalPrinterIiE5PrintERKiPNSt3__113basic_ostreamIcNS5_11char_traitsIcEEEE
FN:833,_ZN7testing8internal21UniversalTersePrinterINSt3__112basic_stringIcNS2_11char_traitsIcEENS2_9allocatorIcEEEEE5PrintERKS8_PNS2_13basic_ostreamIcS5_EE
FNDA:0,_ZN7testing8internal21UniversalTersePrinterINSt3__112basic_stringIcNS2_11char_traitsIcEENS2_9allocatorIcEEEEE5PrintERKS8_PNS2_13basic_ostreamIcS5_EE
FN:833,_ZN7testing8internal21UniversalTersePrinterINSt3__16vectorIiNS2_9allocatorIiEEEEE5PrintERKS6_PNS2_13basic_ostreamIcNS2_11char_traitsIcEEEE
FNDA:0,_ZN7testing8internal21UniversalTersePrinterINSt3__16vectorIiNS2_9allocatorIiEEEEE5PrintERKS6_PNS2_13basic_ostreamIcNS2_11char_traitsIcEEEE
FN:833,_ZN7testing8internal21UniversalTersePrinterIiE5PrintERKiPNSt3__113basic_ostreamIcNS5_11char_traitsIcEEEE
FNDA:0,_ZN7testing8internal21UniversalTersePrinterIiE5PrintERKiPNSt3__113basic_ostreamIcNS5_11char_traitsIcEEEE
FN:854,_ZN7testing8internal21UniversalTersePrinterIPKcE5PrintES3_PNSt3__113basic_ostreamIcNS5_11char_traitsIcEEEE
FNDA:0,_ZN7testing8internal21UniversalTersePrinterIPKcE5PrintES3_PNSt3__113basic_ostreamIcNS5_11char_traitsIcEEEE
FN:902,_ZN7testing8internal14UniversalPrintINSt3__112basic_stringIcNS2_11char_traitsIcEENS2_9allocatorIcEEEEEEvRKT_PNS2_13basic_ostreamIcS5_EE
FNDA:0,_ZN7testing8internal14UniversalPrintINSt3__112basic_stringIcNS2_11char_traitsIcEENS2_9allocatorIcEEEEEEvRKT_PNS2_13basic_ostreamIcS5_EE
FN:902,_ZN7testing8internal14UniversalPrintINSt3__16vectorIiNS2_9allocatorIiEEEEEEvRKT_PNS2_13basic_ostreamIcNS2_11char_traitsIcEEEE
FNDA:0,_ZN7testing8internal14UniversalPrintINSt3__16vectorIiNS2_9allocatorIiEEEEEEvRKT_PNS2_13basic_ostreamIcNS2_11char_traitsIcEEEE
FN:902,_ZN7testing8internal14UniversalPrintIiEEvRKT_PNSt3__113basic_ostreamIcNS5_11char_traitsIcEEEE
FNDA:0,_ZN7testing8internal14UniversalPrintIiEEvRKT_PNSt3__113basic_ostreamIcNS5_11char_traitsIcEEEE
FN:942,_ZN7testing13PrintToStringIPKcEENSt3__112basic_stringIcNS3_11char_traitsIcEENS3_9allocatorIcEEEERKT_
FNDA:0,_ZN7testing13PrintToStringIPKcEENSt3__112basic_stringIcNS3_11char_traitsIcEENS3_9allocatorIcEEEERKT_
FN:942,_ZN7testing13PrintToStringINSt3__112basic_stringIcNS1_11char_traitsIcEENS1_9allocatorIcEEEEEES7_RKT_
FNDA:0,_ZN7testing13PrintToStringINSt3__112basic_stringIcNS1_11char_traitsIcEENS1_9allocatorIcEEEEEES7_RKT_
FN:942,_ZN7testing13PrintToStringINSt3__16vectorIiNS1_9allocatorIiEEEEEENS1_12basic_stringIcNS1_11char_traitsIcEENS3_IcEEEERKT_
FNDA:0,_ZN7testing13PrintToStringINSt3__16vectorIiNS1_9allocatorIiEEEEEENS1_12basic_stringIcNS1_11char_traitsIcEENS3_IcEEEERKT_
FN:942,_ZN7testing13PrintToStringIiEENSt3__112basic_stringIcNS1_11char_traitsIcEENS1_9allocatorIcEEEERKT_
FNDA:0,_ZN7testing13PrintToStringIiEENSt3__112basic_stringIcNS1_11char_traitsIcEENS1_9allocatorIcEEEERKT_
DA:132,0
DA:133,0
DA:134,0
DA:135,0
DA:136,0
DA:137,0
DA:138,0
DA:139,0
DA:140,0
DA:141,0
DA:143,0
DA:144,0
DA:147,0
DA:148,0
DA:151,0
DA:152,0
DA:153,0
DA:154,0
DA:155,0
DA:212,0
DA:215,0
DA:216,0
DA:306,0
DA:312,0
DA:313,0
DA:333,0
DA:334,0
DA:342,0
DA:343,0
DA:387,0
DA:413,0
DA:415,0
DA:440,0
DA:441,0
DA:442,0
DA:552,0
DA:553,0
DA:554,0
DA:665,0
DA:674,0
DA:675,0
DA:833,0
DA:834,0
DA:835,0
DA:854,0
DA:855,0
DA:856,0
DA:857,0
DA:858,0
DA:860,0
DA:902,0
DA:906,0
DA:907,0
DA:942,0
DA:943,0
DA:944,0
DA:945,0
DA:946,0
FNF:58
FNH:0
LF:58
LH:0
end_of_record
SF:/Library/Developer/CommandLineTools/SDKs/MacOSX12.3.sdk/usr/include/c++/v1/__memory/pointer_traits.h
FN:152,_ZNSt3__114pointer_traitsIPKcE10pointer_toERS1_
FNDA:0,_ZNSt3__114pointer_traitsIPKcE10pointer_toERS1_
FN:152,_ZNSt3__114pointer_traitsIPcE10pointer_toERc
FNDA:0,_ZNSt3__114pointer_traitsIPcE10pointer_toERc
FN:173,_ZNSt3__1L12__to_addressIKcEEPT_S3_
FNDA:0,_ZNSt3__1L12__to_addressIKcEEPT_S3_
FN:173,_ZNSt3__1L12__to_addressIiEEPT_S2_
FNDA:219971,_ZNSt3__1L12__to_addressIiEEPT_S2_
FN:173,_ZNSt3__1L12__to_addressIcEEPT_S2_
FNDA:0,_ZNSt3__1L12__to_addressIcEEPT_S2_
FN:173,_ZNSt3__1L12__to_addressIKiEEPT_S3_
FNDA:0,_ZNSt3__1L12__to_addressIKiEEPT_S3_
DA:152,0
DA:154,0
DA:173,219971
DA:175,219971
FNF:6
FNH:1
LF:4
LH:2
end_of_record
SF:/Library/Developer/CommandLineTools/SDKs/MacOSX12.3.sdk/usr/include/c++/v1/sstream
FN:227,_ZNSt3__115basic_stringbufIcNS_11char_traitsIcEENS_9allocatorIcEEEC1Ej
FNDA:0,_ZNSt3__115basic_stringbufIcNS_11char_traitsIcEENS_9allocatorIcEEEC1Ej
FN:227,_ZNSt3__115basic_stringbufIcNS_11char_traitsIcEENS_9allocatorIcEEEC2Ej
FNDA:0,_ZNSt3__115basic_stringbufIcNS_11char_traitsIcEENS_9allocatorIcEEEC2Ej
FN:802,_ZNSt3__118basic_stringstreamIcNS_11char_traitsIcEENS_9allocatorIcEEEC1Ev
FNDA:0,_ZNSt3__118basic_stringstreamIcNS_11char_traitsIcEENS_9allocatorIcEEEC1Ev
FN:842,_ZNKSt3__118basic_stringstreamIcNS_11char_traitsIcEENS_9allocatorIcEEE3strEv
FNDA:0,_ZNKSt3__118basic_stringstreamIcNS_11char_traitsIcEENS_9allocatorIcEEE3strEv
FN:861,_ZNSt3__115basic_stringbufIcNS_11char_traitsIcEENS_9allocatorIcEEED1Ev
FNDA:0,_ZNSt3__115basic_stringbufIcNS_11char_traitsIcEENS_9allocatorIcEEED1Ev
FN:861,_ZNSt3__115basic_stringbufIcNS_11char_traitsIcEENS_9allocatorIcEEED2Ev
FNDA:0,_ZNSt3__115basic_stringbufIcNS_11char_traitsIcEENS_9allocatorIcEEED2Ev
FN:862,_ZNSt3__118basic_stringstreamIcNS_11char_traitsIcEENS_9allocatorIcEEED1Ev
FNDA:0,_ZNSt3__118basic_stringstreamIcNS_11char_traitsIcEENS_9allocatorIcEEED1Ev
FN:862,_ZNSt3__118basic_stringstreamIcNS_11char_traitsIcEENS_9allocatorIcEEED2Ev
FNDA:0,_ZNSt3__118basic_stringstreamIcNS_11char_traitsIcEENS_9allocatorIcEEED2Ev
DA:227,0
DA:228,0
DA:802,0
DA:803,0
DA:842,0
DA:843,0
FNF:8
FNH:0
LF:6
LH:0
end_of_record
SF:/Library/Developer/CommandLineTools/SDKs/MacOSX12.3.sdk/usr/include/c++/v1/__string
FN:342,_ZNSt3__111char_traitsIcE6lengthEPKc
FNDA:3832,_ZNSt3__111char_traitsIcE6lengthEPKc
FN:374,_ZNSt3__111char_traitsIcE11eq_int_typeEii
FNDA:8338,_ZNSt3__111char_traitsIcE11eq_int_typeEii
FN:376,_ZNSt3__111char_traitsIcE3eofEv
FNDA:9426,_ZNSt3__111char_traitsIcE3eofEv
DA:342,3832
DA:374,8338
DA:375,8338
DA:376,9426
DA:377,9426
FNF:3
FNH:3
LF:5
LH:5
end_of_record
SF:/Users/dogukanarat/Desktop/Workspace/RocketLab/Tests/UnitTestLargeExponent.cpp
FN:0,__cxx_global_var_init
FNDA:20,__cxx_global_var_init
FN:0,__cxx_global_var_init.23
FNDA:20,__cxx_global_var_init.23
FN:0,__cxx_global_var_init.32
FNDA:20,__cxx_global_var_init.32
FN:0,__cxx_global_var_init.45
FNDA:20,__cxx_global_var_init.45
FN:0,__cxx_global_var_init.51
FNDA:20,__cxx_global_var_init.51
FN:0,__cxx_global_var_init.57
FNDA:20,__cxx_global_var_init.57
FN:0,__cxx_global_var_init.61
FNDA:20,__cxx_global_var_init.61
FN:0,__cxx_global_var_init.67
FNDA:20,__cxx_global_var_init.67
FN:0,__cxx_global_var_init.70
FNDA:20,__cxx_global_var_init.70
FN:0,__cxx_global_var_init.72
FNDA:20,__cxx_global_var_init.72
FN:0,__cxx_global_var_init.74
FNDA:20,__cxx_global_var_init.74
FN:0,__cxx_global_var_init.79
FNDA:20,__cxx_global_var_init.79
FN:0,__cxx_global_var_init.82
FNDA:20,__cxx_global_var_init.82
FN:0,__cxx_global_var_init.86
FNDA:20,__cxx_global_var_init.86
FN:0,__cxx_global_var_init.94
FNDA:20,__cxx_global_var_init.94
FN:6,_ZN41TestLargeExponent_CheckIsDigitMethod_Test8TestBodyEv
FNDA:1,_ZN41TestLargeExponent_CheckIsDigitMethod_Test8TestBodyEv
FN:6,_ZN41TestLargeExponent_CheckIsDigitMethod_TestD1Ev
FNDA:1,_ZN41TestLargeExponent_CheckIsDigitMethod_TestD1Ev
FN:6,_ZN41TestLargeExponent_CheckIsDigitMethod_TestD0Ev
FNDA:1,_ZN41TestLargeExponent_CheckIsDigitMethod_TestD0Ev
FN:6,_ZN41TestLargeExponent_CheckIsDigitMethod_TestC1Ev
FNDA:1,_ZN41TestLargeExponent_CheckIsDigitMethod_TestC1Ev
FN:6,_ZN41TestLargeExponent_CheckIsDigitMethod_TestC2Ev
FNDA:1,_ZN41TestLargeExponent_CheckIsDigitMethod_TestC2Ev
FN:6,_ZN41TestLargeExponent_CheckIsDigitMethod_TestD2Ev
FNDA:1,_ZN41TestLargeExponent_CheckIsDigitMethod_TestD2Ev
FN:19,_ZN39TestLargeExponent_CheckInputMethod_Test8TestBodyEv
FNDA:1,_ZN39TestLargeExponent_CheckInputMethod_Test8TestBodyEv
FN:19,_ZN39TestLargeExponent_CheckInputMethod_TestD1Ev
FNDA:1,_ZN39TestLargeExponent_CheckInputMethod_TestD1Ev
FN:19,_ZN39TestLargeExponent_CheckInputMethod_TestD0Ev
FNDA:1,_ZN39TestLargeExponent_CheckInputMethod_TestD0Ev
FN:19,_ZN39TestLargeExponent_CheckInputMethod_TestC1Ev
FNDA:1,_ZN39TestLargeExponent_CheckInputMethod_TestC1Ev
FN:19,_ZN39TestLargeExponent_CheckInputMethod_TestC2Ev
FNDA:1,_ZN39TestLargeExponent_CheckInputMethod_TestC2Ev
FN:19,_ZN39TestLargeExponent_CheckInputMethod_TestD2Ev
FNDA:1,_ZN39TestLargeExponent_CheckInputMethod_TestD2Ev
FN:27,_ZN41TestLargeExponent_CheckReverseMethod_Test8TestBodyEv
FNDA:1,_ZN41TestLargeExponent_CheckReverseMethod_Test8TestBodyEv
FN:27,_ZN41TestLargeExponent_CheckReverseMethod_TestD1Ev
FNDA:1,_ZN41TestLargeExponent_CheckReverseMethod_TestD1Ev
FN:27,_ZN41TestLargeExponent_CheckReverseMethod_TestD0Ev
FNDA:1,_ZN41TestLargeExponent_CheckReverseMethod_TestD0Ev
FN:27,_ZN41TestLargeExponent_CheckReverseMethod_TestC1Ev
FNDA:1,_ZN41TestLargeExponent_CheckReverseMethod_TestC1Ev
FN:27,_ZN41TestLargeExponent_CheckReverseMethod_TestC2Ev
FNDA:1,_ZN41TestLargeExponent_CheckReverseMethod_TestC2Ev
FN:27,_ZN41TestLargeExponent_CheckReverseMethod_TestD2Ev
FNDA:1,_ZN41TestLargeExponent_CheckReverseMethod_TestD2Ev
FN:35,_ZN50TestLargeExponent_CheckInitialiseBufferMethod_Test8TestBodyEv
FNDA:1,_ZN50TestLargeExponent_CheckInitialiseBufferMethod_Test8TestBodyEv
FN:35,_ZN50TestLargeExponent_CheckInitialiseBufferMethod_TestD1Ev
FNDA:1,_ZN50TestLargeExponent_CheckInitialiseBufferMethod_TestD1Ev
FN:35,_ZN50TestLargeExponent_CheckInitialiseBufferMethod_TestD0Ev
FNDA:1,_ZN50TestLargeExponent_CheckInitialiseBufferMethod_TestD0Ev
FN:35,_ZN50TestLargeExponent_CheckInitialiseBufferMethod_TestC1Ev
FNDA:1,_ZN50TestLargeExponent_CheckInitialiseBufferMethod_TestC1Ev
FN:35,_ZN50TestLargeExponent_CheckInitialiseBufferMethod_TestC2Ev
FNDA:1,_ZN50TestLargeExponent_CheckInitialiseBufferMethod_TestC2Ev
FN:35,_ZN50TestLargeExponent_CheckInitialiseBufferMethod_TestD2Ev
FNDA:1,_ZN50TestLargeExponent_CheckInitialiseBufferMethod_TestD2Ev
FN:47,_ZN48TestLargeExponent_CheckFinaliseBufferMethod_Test8TestBodyEv
FNDA:1,_ZN48TestLargeExponent_CheckFinaliseBufferMethod_Test8TestBodyEv
FN:47,_ZN48TestLargeExponent_CheckFinaliseBufferMethod_TestD1Ev
FNDA:1,_ZN48TestLargeExponent_CheckFinaliseBufferMethod_TestD1Ev
FN:47,_ZN48TestLargeExponent_CheckFinaliseBufferMethod_TestD0Ev
FNDA:1,_ZN48TestLargeExponent_CheckFinaliseBufferMethod_TestD0Ev
FN:47,_ZN48TestLargeExponent_CheckFinaliseBufferMethod_TestC1Ev
FNDA:1,_ZN48TestLargeExponent_CheckFinaliseBufferMethod_TestC1Ev
FN:47,_ZN48TestLargeExponent_CheckFinaliseBufferMethod_TestC2Ev
FNDA:1,_ZN48TestLargeExponent_CheckFinaliseBufferMethod_TestC2Ev
FN:47,_ZN48TestLargeExponent_CheckFinaliseBufferMethod_TestD2Ev
FNDA:1,_ZN48TestLargeExponent_CheckFinaliseBufferMethod_TestD2Ev
FN:56,_ZN44TestLargeExponent_CheckBufferTransition_Test8TestBodyEv
FNDA:1,_ZN44TestLargeExponent_CheckBufferTransition_Test8TestBodyEv
FN:56,_ZN44TestLargeExponent_CheckBufferTransition_TestD1Ev
FNDA:1,_ZN44TestLargeExponent_CheckBufferTransition_TestD1Ev
FN:56,_ZN44TestLargeExponent_CheckBufferTransition_TestD0Ev
FNDA:1,_ZN44TestLargeExponent_CheckBufferTransition_TestD0Ev
FN:56,_ZN44TestLargeExponent_CheckBufferTransition_TestC1Ev
FNDA:1,_ZN44TestLargeExponent_CheckBufferTransition_TestC1Ev
FN:56,_ZN44TestLargeExponent_CheckBufferTransition_TestC2Ev
FNDA:1,_ZN44TestLargeExponent_CheckBufferTransition_TestC2Ev
FN:56,_ZN44TestLargeExponent_CheckBufferTransition_TestD2Ev
FNDA:1,_ZN44TestLargeExponent_CheckBufferTransition_TestD2Ev
FN:66,_ZN55TestLargeExponent_CheckMultiplyMethodDifferentSize_Test8TestBodyEv
FNDA:1,_ZN55TestLargeExponent_CheckMultiplyMethodDifferentSize_Test8TestBodyEv
FN:66,_ZN55TestLargeExponent_CheckMultiplyMethodDifferentSize_TestD1Ev
FNDA:1,_ZN55TestLargeExponent_CheckMultiplyMethodDifferentSize_TestD1Ev
FN:66,_ZN55TestLargeExponent_CheckMultiplyMethodDifferentSize_TestD0Ev
FNDA:1,_ZN55TestLargeExponent_CheckMultiplyMethodDifferentSize_TestD0Ev
FN:66,_ZN55TestLargeExponent_CheckMultiplyMethodDifferentSize_TestC1Ev
FNDA:1,_ZN55TestLargeExponent_CheckMultiplyMethodDifferentSize_TestC1Ev
FN:66,_ZN55TestLargeExponent_CheckMultiplyMethodDifferentSize_TestC2Ev
FNDA:1,_ZN55TestLargeExponent_CheckMultiplyMethodDifferentSize_TestC2Ev
FN:66,_ZN55TestLargeExponent_CheckMultiplyMethodDifferentSize_TestD2Ev
FNDA:1,_ZN55TestLargeExponent_CheckMultiplyMethodDifferentSize_TestD2Ev
FN:84,_ZN47TestLargeExponent_CheckMultiplyMethodBasic_Test8TestBodyEv
FNDA:1,_ZN47TestLargeExponent_CheckMultiplyMethodBasic_Test8TestBodyEv
FN:84,_ZN47TestLargeExponent_CheckMultiplyMethodBasic_TestD1Ev
FNDA:1,_ZN47TestLargeExponent_CheckMultiplyMethodBasic_TestD1Ev
FN:84,_ZN47TestLargeExponent_CheckMultiplyMethodBasic_TestD0Ev
FNDA:1,_ZN47TestLargeExponent_CheckMultiplyMethodBasic_TestD0Ev
FN:84,_ZN47TestLargeExponent_CheckMultiplyMethodBasic_TestC1Ev
FNDA:1,_ZN47TestLargeExponent_CheckMultiplyMethodBasic_TestC1Ev
FN:84,_ZN47TestLargeExponent_CheckMultiplyMethodBasic_TestC2Ev
FNDA:1,_ZN47TestLargeExponent_CheckMultiplyMethodBasic_TestC2Ev
FN:84,_ZN47TestLargeExponent_CheckMultiplyMethodBasic_TestD2Ev
FNDA:1,_ZN47TestLargeExponent_CheckMultiplyMethodBasic_TestD2Ev
FN:100,_ZN57TestLargeExponent_CheckCalculateBufferMethodSameSize_Test8TestBodyEv
FNDA:1,_ZN57TestLargeExponent_CheckCalculateBufferMethodSameSize_Test8TestBodyEv
FN:100,_ZN57TestLargeExponent_CheckCalculateBufferMethodSameSize_TestD1Ev
FNDA:1,_ZN57TestLargeExponent_CheckCalculateBufferMethodSameSize_TestD1Ev
FN:100,_ZN57TestLargeExponent_CheckCalculateBufferMethodSameSize_TestD0Ev
FNDA:1,_ZN57TestLargeExponent_CheckCalculateBufferMethodSameSize_TestD0Ev
FN:100,_ZN57TestLargeExponent_CheckCalculateBufferMethodSameSize_TestC1Ev
FNDA:1,_ZN57TestLargeExponent_CheckCalculateBufferMethodSameSize_TestC1Ev
FN:100,_ZN57TestLargeExponent_CheckCalculateBufferMethodSameSize_TestC2Ev
FNDA:1,_ZN57TestLargeExponent_CheckCalculateBufferMethodSameSize_TestC2Ev
FN:100,_ZN57TestLargeExponent_CheckCalculateBufferMethodSameSize_TestD2Ev
FNDA:1,_ZN57TestLargeExponent_CheckCalculateBufferMethodSameSize_TestD2Ev
FN:115,_ZN62TestLargeExponent_CheckCalculateBufferMethodDifferentSize_Test8TestBodyEv
FNDA:1,_ZN62TestLargeExponent_CheckCalculateBufferMethodDifferentSize_Test8TestBodyEv
FN:115,_ZN62TestLargeExponent_CheckCalculateBufferMethodDifferentSize_TestD1Ev
FNDA:1,_ZN62TestLargeExponent_CheckCalculateBufferMethodDifferentSize_TestD1Ev
FN:115,_ZN62TestLargeExponent_CheckCalculateBufferMethodDifferentSize_TestD0Ev
FNDA:1,_ZN62TestLargeExponent_CheckCalculateBufferMethodDifferentSize_TestD0Ev
FN:115,_ZN62TestLargeExponent_CheckCalculateBufferMethodDifferentSize_TestC1Ev
FNDA:1,_ZN62TestLargeExponent_CheckCalculateBufferMethodDifferentSize_TestC1Ev
FN:115,_ZN62TestLargeExponent_CheckCalculateBufferMethodDifferentSize_TestC2Ev
FNDA:1,_ZN62TestLargeExponent_CheckCalculateBufferMethodDifferentSize_TestC2Ev
FN:115,_ZN62TestLargeExponent_CheckCalculateBufferMethodDifferentSize_TestD2Ev
FNDA:1,_ZN62TestLargeExponent_CheckCalculateBufferMethodDifferentSize_TestD2Ev
FN:130,_ZN46TestLargeExponent_CheckCalculationMethod1_Test8TestBodyEv
FNDA:1,_ZN46TestLargeExponent_CheckCalculationMethod1_Test8TestBodyEv
FN:130,_ZN46TestLargeExponent_CheckCalculationMethod1_TestD1Ev
FNDA:1,_ZN46TestLargeExponent_CheckCalculationMethod1_TestD1Ev
FN:130,_ZN46TestLargeExponent_CheckCalculationMethod1_TestD0Ev
FNDA:1,_ZN46TestLargeExponent_CheckCalculationMethod1_TestD0Ev
FN:130,_ZN46TestLargeExponent_CheckCalculationMethod1_TestC1Ev
FNDA:1,_ZN46TestLargeExponent_CheckCalculationMethod1_TestC1Ev
FN:130,_ZN46TestLargeExponent_CheckCalculationMethod1_TestC2Ev
FNDA:1,_ZN46TestLargeExponent_CheckCalculationMethod1_TestC2Ev
FN:130,_ZN46TestLargeExponent_CheckCalculationMethod1_TestD2Ev
FNDA:1,_ZN46TestLargeExponent_CheckCalculationMethod1_TestD2Ev
FN:140,_ZN46TestLargeExponent_CheckCalculationMethod2_Test8TestBodyEv
FNDA:1,_ZN46TestLargeExponent_CheckCalculationMethod2_Test8TestBodyEv
FN:140,_ZN46TestLargeExponent_CheckCalculationMethod2_TestD1Ev
FNDA:1,_ZN46TestLargeExponent_CheckCalculationMethod2_TestD1Ev
FN:140,_ZN46TestLargeExponent_CheckCalculationMethod2_TestD0Ev
FNDA:1,_ZN46TestLargeExponent_CheckCalculationMethod2_TestD0Ev
FN:140,_ZN46TestLargeExponent_CheckCalculationMethod2_TestC1Ev
FNDA:1,_ZN46TestLargeExponent_CheckCalculationMethod2_TestC1Ev
FN:140,_ZN46TestLargeExponent_CheckCalculationMethod2_TestC2Ev
FNDA:1,_ZN46TestLargeExponent_CheckCalculationMethod2_TestC2Ev
FN:140,_ZN46TestLargeExponent_CheckCalculationMethod2_TestD2Ev
FNDA:1,_ZN46TestLargeExponent_CheckCalculationMethod2_TestD2Ev
FN:150,_ZN46TestLargeExponent_CheckCalculationMethod3_Test8TestBodyEv
FNDA:1,_ZN46TestLargeExponent_CheckCalculationMethod3_Test8TestBodyEv
FN:150,_ZN46TestLargeExponent_CheckCalculationMethod3_TestD1Ev
FNDA:1,_ZN46TestLargeExponent_CheckCalculationMethod3_TestD1Ev
FN:150,_ZN46TestLargeExponent_CheckCalculationMethod3_TestD0Ev
FNDA:1,_ZN46TestLargeExponent_CheckCalculationMethod3_TestD0Ev
FN:150,_ZN46TestLargeExponent_CheckCalculationMethod3_TestC1Ev
FNDA:1,_ZN46TestLargeExponent_CheckCalculationMethod3_TestC1Ev
FN:150,_ZN46TestLargeExponent_CheckCalculationMethod3_TestC2Ev
FNDA:1,_ZN46TestLargeExponent_CheckCalculationMethod3_TestC2Ev
FN:150,_ZN46TestLargeExponent_CheckCalculationMethod3_TestD2Ev
FNDA:1,_ZN46TestLargeExponent_CheckCalculationMethod3_TestD2Ev
FN:160,_ZN33TestLargeExponent_CheckClass_Test8TestBodyEv
FNDA:1,_ZN33TestLargeExponent_CheckClass_Test8TestBodyEv
FN:160,_ZN33TestLargeExponent_CheckClass_TestD1Ev
FNDA:1,_ZN33TestLargeExponent_CheckClass_TestD1Ev
FN:160,_ZN33TestLargeExponent_CheckClass_TestD0Ev
FNDA:1,_ZN33TestLargeExponent_CheckClass_TestD0Ev
FN:160,_ZN33TestLargeExponent_CheckClass_TestC1Ev
FNDA:1,_ZN33TestLargeExponent_CheckClass_TestC1Ev
FN:160,_ZN33TestLargeExponent_CheckClass_TestC2Ev
FNDA:1,_ZN33TestLargeExponent_CheckClass_TestC2Ev
FN:160,_ZN33TestLargeExponent_CheckClass_TestD2Ev
FNDA:1,_ZN33TestLargeExponent_CheckClass_TestD2Ev
FN:171,_ZN38TestLargeExponent_CheckClassFinal_Test8TestBodyEv
FNDA:1,_ZN38TestLargeExponent_CheckClassFinal_Test8TestBodyEv
FN:171,_ZN38TestLargeExponent_CheckClassFinal_TestD1Ev
FNDA:1,_ZN38TestLargeExponent_CheckClassFinal_TestD1Ev
FN:171,_ZN38TestLargeExponent_CheckClassFinal_TestD0Ev
FNDA:1,_ZN38TestLargeExponent_CheckClassFinal_TestD0Ev
FN:171,_ZN38TestLargeExponent_CheckClassFinal_TestC1Ev
FNDA:1,_ZN38TestLargeExponent_CheckClassFinal_TestC1Ev
FN:171,_ZN38TestLargeExponent_CheckClassFinal_TestC2Ev
FNDA:1,_ZN38TestLargeExponent_CheckClassFinal_TestC2Ev
FN:171,_ZN38TestLargeExponent_CheckClassFinal_TestD2Ev
FNDA:1,_ZN38TestLargeExponent_CheckClassFinal_TestD2Ev
DA:6,26
DA:8,1
DA:9,1
DA:10,1
DA:11,1
DA:12,1
DA:13,1
DA:14,1
DA:15,1
DA:16,1
DA:17,1
DA:19,26
DA:21,1
DA:22,1
DA:23,1
DA:24,1
DA:25,1
DA:27,26
DA:29,1
DA:30,1
DA:31,1
DA:32,1
DA:33,1
DA:35,26
DA:37,1
DA:39,1
DA:41,1
DA:43,1
DA:44,1
DA:45,1
DA:47,26
DA:49,1
DA:51,1
DA:53,1
DA:54,1
DA:56,26
DA:58,1
DA:60,1
DA:61,1
DA:63,1
DA:64,1
DA:66,26
DA:72,1
DA:73,1
DA:74,1
DA:75,1
DA:76,1
DA:78,1
DA:80,1
DA:81,1
DA:82,1
DA:84,26
DA:90,1
DA:91,1
DA:92,1
DA:94,1
DA:96,1
DA:97,1
DA:98,1
DA:100,26
DA:102,1
DA:103,1
DA:105,1
DA:106,1
DA:107,1
DA:108,1
DA:110,1
DA:112,1
DA:113,1
DA:115,26
DA:117,1
DA:118,1
DA:120,1
DA:121,1
DA:122,1
DA:123,1
DA:125,1
DA:127,1
DA:128,1
DA:130,26
DA:132,1
DA:133,1
DA:135,1
DA:137,1
DA:138,1
DA:140,26
DA:142,1
DA:143,1
DA:145,1
DA:147,1
DA:148,1
DA:150,26
DA:152,1
DA:153,1
DA:155,1
DA:157,1
DA:158,1
DA:160,26
DA:162,1
DA:164,1
DA:165,1
DA:166,1
DA:168,1
DA:169,1
DA:171,26
DA:173,1
DA:175,1
DA:176,1
DA:177,1
DA:179,1
DA:180,1
FNF:105
FNH:105
LF:111
LH:111
end_of_record
SF:/Library/Developer/CommandLineTools/SDKs/MacOSX12.3.sdk/usr/include/c++/v1/__algorithm/equal.h
FN:29,_ZNSt3__1L5equalINS_11__wrap_iterIPKiEES4_NS_10__equal_toIiiEEEEbT_S7_T0_T1_
FNDA:5,_ZNSt3__1L5equalINS_11__wrap_iterIPKiEES4_NS_10__equal_toIiiEEEEbT_S7_T0_T1_
FN:38,_ZNSt3__1L5equalINS_11__wrap_iterIPKiEES4_EEbT_S5_T0_
FNDA:5,_ZNSt3__1L5equalINS_11__wrap_iterIPKiEES4_EEbT_S5_T0_
DA:29,5
DA:30,21
DA:31,16
DA:32,0
DA:33,5
DA:34,5
DA:38,5
DA:41,5
FNF:2
FNH:2
LF:8
LH:7
end_of_record
SF:/Library/Developer/CommandLineTools/SDKs/MacOSX12.3.sdk/usr/include/c++/v1/ostream
FN:234,_ZNSt3__113basic_ostreamIcNS_11char_traitsIcEEEC2Ev
FNDA:0,_ZNSt3__113basic_ostreamIcNS_11char_traitsIcEEEC2Ev
FN:251,_ZNKSt3__113basic_ostreamIcNS_11char_traitsIcEEE6sentrycvbEv
FNDA:8338,_ZNKSt3__113basic_ostreamIcNS_11char_traitsIcEEE6sentrycvbEv
FN:707,_ZNSt3__124__put_character_sequenceIcNS_11char_traitsIcEEEERNS_13basic_ostreamIT_T0_EES7_PKS4_m
FNDA:8338,_ZNSt3__124__put_character_sequenceIcNS_11char_traitsIcEEEERNS_13basic_ostreamIT_T0_EES7_PKS4_m
FN:781,_ZNSt3__1lsINS_11char_traitsIcEEEERNS_13basic_ostreamIcT_EES6_c
FNDA:7440,_ZNSt3__1lsINS_11char_traitsIcEEEERNS_13basic_ostreamIcT_EES6_c
FN:855,_ZNSt3__1lsINS_11char_traitsIcEEEERNS_13basic_ostreamIcT_EES6_PKc
FNDA:898,_ZNSt3__1lsINS_11char_traitsIcEEEERNS_13basic_ostreamIcT_EES6_PKc
DA:234,0
DA:251,8338
DA:707,8338
DA:714,8338
DA:715,8338
DA:718,16676
DA:719,8338
DA:720,8338
DA:721,0
DA:722,8338
DA:723,8338
DA:724,8338
DA:725,16676
DA:726,0
DA:727,8338
DA:729,8338
DA:732,0
DA:733,0
DA:735,8338
DA:736,0
DA:781,7440
DA:783,7440
DA:855,898
DA:857,898
FNF:5
FNH:4
LF:24
LH:18
end_of_record
SF:/Library/Developer/CommandLineTools/SDKs/MacOSX12.3.sdk/usr/include/c++/v1/new
FN:223,_ZNSt3__1L24__is_overaligned_for_newEm
FNDA:1084,_ZNSt3__1L24__is_overaligned_for_newEm
FN:233,_ZNSt3__1L21__libcpp_operator_newIJmSt11align_val_tEEEPvDpT_
FNDA:0,_ZNSt3__1L21__libcpp_operator_newIJmSt11align_val_tEEEPvDpT_
FN:233,_ZNSt3__1L21__libcpp_operator_newIJmEEEPvDpT_
FNDA:362,_ZNSt3__1L21__libcpp_operator_newIJmEEEPvDpT_
FN:243,_ZNSt3__1L24__libcpp_operator_deleteIJPvSt11align_val_tEEEvDpT_
FNDA:0,_ZNSt3__1L24__libcpp_operator_deleteIJPvSt11align_val_tEEEvDpT_
FN:243,_ZNSt3__1L24__libcpp_operator_deleteIJPvEEEvDpT_
FNDA:722,_ZNSt3__1L24__libcpp_operator_deleteIJPvEEEvDpT_
FN:252,_ZNSt3__1L17__libcpp_allocateEmm
FNDA:362,_ZNSt3__1L17__libcpp_allocateEmm
FN:266,_ZNSt3__1L27__do_deallocate_handle_sizeIJSt11align_val_tEEEvPvmDpT_
FNDA:0,_ZNSt3__1L27__do_deallocate_handle_sizeIJSt11align_val_tEEEvPvmDpT_
FN:266,_ZNSt3__1L27__do_deallocate_handle_sizeIJEEEvPvmDpT_
FNDA:722,_ZNSt3__1L27__do_deallocate_handle_sizeIJEEEvPvmDpT_
FN:276,_ZNSt3__1L19__libcpp_deallocateEPvmm
FNDA:722,_ZNSt3__1L19__libcpp_deallocateEPvmm
DA:223,1084
DA:225,1084
DA:233,362
DA:235,362
DA:243,722
DA:245,722
DA:249,722
DA:252,362
DA:254,362
DA:255,0
DA:256,0
DA:261,362
DA:262,362
DA:266,722
DA:269,722
DA:276,722
DA:281,722
DA:282,0
DA:283,0
DA:285,722
DA:288,722
FNF:9
FNH:6
LF:21
LH:17
end_of_record
SF:/Library/Developer/CommandLineTools/SDKs/MacOSX12.3.sdk/usr/include/c++/v1/locale
FN:1395,_ZNSt3__116__pad_and_outputIcNS_11char_traitsIcEEEENS_19ostreambuf_iteratorIT_T0_EES6_PKS4_S8_S8_RNS_8ios_baseES4_
FNDA:8338,_ZNSt3__116__pad_and_outputIcNS_11char_traitsIcEEEENS_19ostreambuf_iteratorIT_T0_EES6_PKS4_S8_S8_RNS_8ios_baseES4_
DA:1395,8338
DA:1399,8338
DA:1400,0
DA:1401,8338
DA:1402,8338
DA:1403,8338
DA:1404,0
DA:1406,8338
DA:1407,8338
DA:1408,8338
DA:1410,0
DA:1412,0
DA:1413,0
DA:1415,0
DA:1416,8338
DA:1418,0
DA:1419,0
DA:1421,0
DA:1422,0
DA:1424,0
DA:1425,8338
DA:1426,8338
DA:1428,8338
DA:1430,0
DA:1431,0
DA:1433,8338
DA:1434,8338
DA:1435,8338
DA:1436,8338
FNF:1
FNH:1
LF:29
LH:16
end_of_record
SF:/Library/Developer/CommandLineTools/SDKs/MacOSX12.3.sdk/usr/include/c++/v1/__algorithm/copy.h
FN:55,_ZNSt3__1L6__copyIKiiEENS_9enable_ifIXaasr7is_sameINS_12remove_constIT_E4typeET0_EE5valuesr28is_trivially_copy_assignableIS7_EE5valueEPS7_E4typeEPS4_SB_S8_
FNDA:0,_ZNSt3__1L6__copyIKiiEENS_9enable_ifIXaasr7is_sameINS_12remove_constIT_E4typeET0_EE5valuesr28is_trivially_copy_assignableIS7_EE5valueEPS7_E4typeEPS4_SB_S8_
FN:55,_ZNSt3__1L6__copyIiiEENS_9enable_ifIXaasr7is_sameINS_12remove_constIT_E4typeET0_EE5valuesr28is_trivially_copy_assignableIS6_EE5valueEPS6_E4typeEPS3_SA_S7_
FNDA:0,_ZNSt3__1L6__copyIiiEENS_9enable_ifIXaasr7is_sameINS_12remove_constIT_E4typeET0_EE5valuesr28is_trivially_copy_assignableIS6_EE5valueEPS6_E4typeEPS3_SA_S7_
FN:66,_ZNSt3__1L4copyIPKiPiEET0_T_S5_S4_
FNDA:0,_ZNSt3__1L4copyIPKiPiEET0_T_S5_S4_
FN:66,_ZNSt3__1L4copyIPiS1_EET0_T_S3_S2_
FNDA:0,_ZNSt3__1L4copyIPiS1_EET0_T_S3_S2_
DA:55,0
DA:57,0
DA:58,0
DA:59,0
DA:60,0
DA:66,0
DA:71,0
DA:72,0
DA:73,0
DA:74,0
FNF:4
FNH:0
LF:10
LH:0
end_of_record
SF:/Library/Developer/CommandLineTools/SDKs/MacOSX12.3.sdk/usr/include/c++/v1/__iterator/advance.h
FN:54,_ZNSt3__1L9__advanceIPKiEEvRT_NS_15iterator_traitsIS3_E15difference_typeENS_26random_access_iterator_tagE
FNDA:0,_ZNSt3__1L9__advanceIPKiEEvRT_NS_15iterator_traitsIS3_E15difference_typeENS_26random_access_iterator_tagE
FN:54,_ZNSt3__1L9__advanceIPiEEvRT_NS_15iterator_traitsIS2_E15difference_typeENS_26random_access_iterator_tagE
FNDA:0,_ZNSt3__1L9__advanceIPiEEvRT_NS_15iterator_traitsIS2_E15difference_typeENS_26random_access_iterator_tagE
FN:63,_ZNSt3__1L7advanceIPKimmvEEvRT_T0_
FNDA:0,_ZNSt3__1L7advanceIPKimmvEEvRT_T0_
FN:63,_ZNSt3__1L7advanceIPimmvEEvRT_T0_
FNDA:0,_ZNSt3__1L7advanceIPimmvEEvRT_T0_
DA:54,0
DA:55,0
DA:56,0
DA:63,0
DA:65,0
DA:68,0
DA:69,0
FNF:4
FNH:0
LF:7
LH:0
end_of_record
SF:/Library/Developer/CommandLineTools/SDKs/MacOSX12.3.sdk/usr/include/c++/v1/vector
FN:308,_ZNSt3__120__vector_base_commonILb1EEC2Ev
FNDA:9,_ZNSt3__120__vector_base_commonILb1EEC2Ev
FN:352,_ZNSt3__113__vector_baseIiNS_9allocatorIiEEE7__allocEv
FNDA:218120,_ZNSt3__113__vector_baseIiNS_9allocatorIiEEE7__allocEv
FN:355,_ZNKSt3__113__vector_baseIiNS_9allocatorIiEEE7__allocEv
FNDA:4121,_ZNKSt3__113__vector_baseIiNS_9allocatorIiEEE7__allocEv
FN:358,_ZNSt3__113__vector_baseIiNS_9allocatorIiEEE9__end_capEv
FNDA:712,_ZNSt3__113__vector_baseIiNS_9allocatorIiEEE9__end_capEv
FN:361,_ZNKSt3__113__vector_baseIiNS_9allocatorIiEEE9__end_capEv
FNDA:1850,_ZNKSt3__113__vector_baseIiNS_9allocatorIiEEE9__end_capEv
FN:374,_ZNSt3__113__vector_baseIiNS_9allocatorIiEEE5clearEv
FNDA:722,_ZNSt3__113__vector_baseIiNS_9allocatorIiEEE5clearEv
FN:376,_ZNKSt3__113__vector_baseIiNS_9allocatorIiEEE8capacityEv
FNDA:1850,_ZNKSt3__113__vector_baseIiNS_9allocatorIiEEE8capacityEv
FN:383,_ZNSt3__113__vector_baseIiNS_9allocatorIiEEE19__copy_assign_allocERKS3_
FNDA:2,_ZNSt3__113__vector_baseIiNS_9allocatorIiEEE19__copy_assign_allocERKS3_
FN:396,_ZNKSt3__113__vector_baseIiNS_9allocatorIiEEE20__throw_length_errorEv
FNDA:0,_ZNKSt3__113__vector_baseIiNS_9allocatorIiEEE20__throw_length_errorEv
FN:427,_ZNSt3__113__vector_baseIiNS_9allocatorIiEEE19__copy_assign_allocERKS3_NS_17integral_constantIbLb0EEE
FNDA:2,_ZNSt3__113__vector_baseIiNS_9allocatorIiEEE19__copy_assign_allocERKS3_NS_17integral_constantIbLb0EEE
FN:446,_ZNSt3__113__vector_baseIiNS_9allocatorIiEEE17__destruct_at_endEPi
FNDA:722,_ZNSt3__113__vector_baseIiNS_9allocatorIiEEE17__destruct_at_endEPi
FN:456,_ZNSt3__113__vector_baseIiNS_9allocatorIiEEEC2Ev
FNDA:9,_ZNSt3__113__vector_baseIiNS_9allocatorIiEEEC2Ev
FN:483,_ZNSt3__113__vector_baseIiNS_9allocatorIiEEED2Ev
FNDA:377,_ZNSt3__113__vector_baseIiNS_9allocatorIiEEED2Ev
FN:573,_ZNSt3__16vectorIiNS_9allocatorIiEEED1Ev
FNDA:24,_ZNSt3__16vectorIiNS_9allocatorIiEEED1Ev
FN:573,_ZNSt3__16vectorIiNS_9allocatorIiEEED2Ev
FNDA:24,_ZNSt3__16vectorIiNS_9allocatorIiEEED2Ev
FN:608,_ZNSt3__16vectorIiNS_9allocatorIiEEEaSESt16initializer_listIiE
FNDA:1,_ZNSt3__16vectorIiNS_9allocatorIiEEEaSESt16initializer_listIiE
FN:679,_ZNKSt3__16vectorIiNS_9allocatorIiEEE4sizeEv
FNDA:737,_ZNKSt3__16vectorIiNS_9allocatorIiEEE4sizeEv
FN:682,_ZNKSt3__16vectorIiNS_9allocatorIiEEE8capacityEv
FNDA:1478,_ZNKSt3__16vectorIiNS_9allocatorIiEEE8capacityEv
FN:721,_ZNKSt3__16vectorIiNS_9allocatorIiEEE4dataEv
FNDA:2944,_ZNKSt3__16vectorIiNS_9allocatorIiEEE4dataEv
FN:793,_ZNSt3__16vectorIiNS_9allocatorIiEEE5clearEv
FNDA:350,_ZNSt3__16vectorIiNS_9allocatorIiEEE5clearEv
FN:853,_ZNSt3__16vectorIiNS_9allocatorIiEEE17__destruct_at_endEPi
FNDA:0,_ZNSt3__16vectorIiNS_9allocatorIiEEE17__destruct_at_endEPi
FN:890,_ZNKSt3__16vectorIiNS_9allocatorIiEEE31__annotate_contiguous_containerEPKvS5_S5_S5_
FNDA:736,_ZNKSt3__16vectorIiNS_9allocatorIiEEE31__annotate_contiguous_containerEPKvS5_S5_S5_
FN:894,_ZNKSt3__16vectorIiNS_9allocatorIiEEE14__annotate_newEm
FNDA:362,_ZNKSt3__16vectorIiNS_9allocatorIiEEE14__annotate_newEm
FN:900,_ZNKSt3__16vectorIiNS_9allocatorIiEEE17__annotate_deleteEv
FNDA:24,_ZNKSt3__16vectorIiNS_9allocatorIiEEE17__annotate_deleteEv
FN:913,_ZNKSt3__16vectorIiNS_9allocatorIiEEE17__annotate_shrinkEm
FNDA:350,_ZNKSt3__16vectorIiNS_9allocatorIiEEE17__annotate_shrinkEm
FN:920,_ZNSt3__16vectorIiNS_9allocatorIiEEE21_ConstructTransactionC1ERS3_m
FNDA:105884,_ZNSt3__16vectorIiNS_9allocatorIiEEE21_ConstructTransactionC1ERS3_m
FN:920,_ZNSt3__16vectorIiNS_9allocatorIiEEE21_ConstructTransactionC2ERS3_m
FNDA:105884,_ZNSt3__16vectorIiNS_9allocatorIiEEE21_ConstructTransactionC2ERS3_m
FN:926,_ZNSt3__16vectorIiNS_9allocatorIiEEE21_ConstructTransactionD1Ev
FNDA:105884,_ZNSt3__16vectorIiNS_9allocatorIiEEE21_ConstructTransactionD1Ev
FN:926,_ZNSt3__16vectorIiNS_9allocatorIiEEE21_ConstructTransactionD2Ev
FNDA:105884,_ZNSt3__16vectorIiNS_9allocatorIiEEE21_ConstructTransactionD2Ev
FN:1011,_ZNSt3__16vectorIiNS_9allocatorIiEEE11__vallocateEm
FNDA:362,_ZNSt3__16vectorIiNS_9allocatorIiEEE11__vallocateEm
FN:1022,_ZNSt3__16vectorIiNS_9allocatorIiEEE13__vdeallocateEv
FNDA:353,_ZNSt3__16vectorIiNS_9allocatorIiEEE13__vdeallocateEv
FN:1034,_ZNKSt3__16vectorIiNS_9allocatorIiEEE8max_sizeEv
FNDA:4121,_ZNKSt3__16vectorIiNS_9allocatorIiEEE8max_sizeEv
FN:1044,_ZNKSt3__16vectorIiNS_9allocatorIiEEE11__recommendEm
FNDA:3,_ZNKSt3__16vectorIiNS_9allocatorIiEEE11__recommendEm
FN:1096,_ZNSt3__16vectorIiNS_9allocatorIiEEE18__construct_at_endIPKiEENS_9enable_ifIXsr27__is_cpp17_forward_iteratorIT_EE5valueEvE4typeES8_S8_m
FNDA:10,_ZNSt3__16vectorIiNS_9allocatorIiEEE18__construct_at_endIPKiEENS_9enable_ifIXsr27__is_cpp17_forward_iteratorIT_EE5valueEvE4typeES8_S8_m
FN:1096,_ZNSt3__16vectorIiNS_9allocatorIiEEE18__construct_at_endIPiEENS_9enable_ifIXsr27__is_cpp17_forward_iteratorIT_EE5valueEvE4typeES7_S7_m
FNDA:2,_ZNSt3__16vectorIiNS_9allocatorIiEEE18__construct_at_endIPiEENS_9enable_ifIXsr27__is_cpp17_forward_iteratorIT_EE5valueEvE4typeES7_S7_m
FN:1349,_ZNSt3__16vectorIiNS_9allocatorIiEEEC1ESt16initializer_listIiE
FNDA:9,_ZNSt3__16vectorIiNS_9allocatorIiEEEC1ESt16initializer_listIiE
FN:1349,_ZNSt3__16vectorIiNS_9allocatorIiEEEC2ESt16initializer_listIiE
FNDA:9,_ZNSt3__16vectorIiNS_9allocatorIiEEEC2ESt16initializer_listIiE
FN:1422,_ZNSt3__16vectorIiNS_9allocatorIiEEEaSERKS3_
FNDA:2,_ZNSt3__16vectorIiNS_9allocatorIiEEEaSERKS3_
FN:1460,_ZNSt3__16vectorIiNS_9allocatorIiEEE6assignIPKiEENS_9enable_ifIXaasr27__is_cpp17_forward_iteratorIT_EE5valuesr16is_constructibleIiNS_15iterator_traitsIS8_E9referenceEEE5valueEvE4typeES8_S8_
FNDA:1,_ZNSt3__16vectorIiNS_9allocatorIiEEE6assignIPKiEENS_9enable_ifIXaasr27__is_cpp17_forward_iteratorIT_EE5valuesr16is_constructibleIiNS_15iterator_traitsIS8_E9referenceEEE5valueEvE4typeES8_S8_
FN:1460,_ZNSt3__16vectorIiNS_9allocatorIiEEE6assignIPiEENS_9enable_ifIXaasr27__is_cpp17_forward_iteratorIT_EE5valuesr16is_constructibleIiNS_15iterator_traitsIS7_E9referenceEEE5valueEvE4typeES7_S7_
FNDA:2,_ZNSt3__16vectorIiNS_9allocatorIiEEE6assignIPiEENS_9enable_ifIXaasr27__is_cpp17_forward_iteratorIT_EE5valuesr16is_constructibleIiNS_15iterator_traitsIS7_E9referenceEEE5valueEvE4typeES7_S7_
FN:1525,_ZNKSt3__16vectorIiNS_9allocatorIiEEE11__make_iterEPKi
FNDA:15,_ZNKSt3__16vectorIiNS_9allocatorIiEEE11__make_iterEPKi
FN:1545,_ZNKSt3__16vectorIiNS_9allocatorIiEEE5beginEv
FNDA:10,_ZNKSt3__16vectorIiNS_9allocatorIiEEE5beginEv
FN:1561,_ZNKSt3__16vectorIiNS_9allocatorIiEEE3endEv
FNDA:5,_ZNKSt3__16vectorIiNS_9allocatorIiEEE3endEv
FN:2144,_ZNSt3__16vectorIiNS_9allocatorIiEEE26__invalidate_all_iteratorsEv
FNDA:353,_ZNSt3__16vectorIiNS_9allocatorIiEEE26__invalidate_all_iteratorsEv
FN:2155,_ZNSt3__16vectorIiNS_9allocatorIiEEE27__invalidate_iterators_pastEPi
FNDA:0,_ZNSt3__16vectorIiNS_9allocatorIiEEE27__invalidate_iterators_pastEPi
FN:3359,_ZNSt3__1eqIiNS_9allocatorIiEEEEbRKNS_6vectorIT_T0_EES8_
FNDA:5,_ZNSt3__1eqIiNS_9allocatorIiEEEEbRKNS_6vectorIT_T0_EES8_
DA:308,9
DA:352,218120
DA:353,218120
DA:355,4121
DA:356,4121
DA:358,712
DA:359,712
DA:361,1850
DA:362,1850
DA:365,9
DA:374,722
DA:376,1850
DA:377,1850
DA:383,2
DA:384,2
DA:385,2
DA:396,0
DA:398,0
DA:427,2
DA:428,2
DA:446,722
DA:448,722
DA:449,217746
DA:450,217024
DA:451,722
DA:452,722
DA:456,9
DA:458,9
DA:459,9
DA:460,9
DA:461,9
DA:462,9
DA:483,377
DA:485,377
DA:487,372
DA:488,372
DA:489,372
DA:490,377
DA:573,48
DA:574,24
DA:575,24
DA:579,48
DA:588,9
DA:608,1
DA:609,1
DA:679,737
DA:680,737
DA:682,1478
DA:683,1478
DA:721,2944
DA:722,2944
DA:793,350
DA:795,350
DA:796,350
DA:797,350
DA:798,350
DA:799,350
DA:853,0
DA:855,0
DA:856,0
DA:857,0
DA:858,0
DA:859,0
DA:890,736
DA:891,736
DA:894,362
DA:895,724
DA:896,362
DA:897,362
DA:900,24
DA:901,48
DA:902,24
DA:903,24
DA:913,350
DA:915,700
DA:916,350
DA:917,350
DA:920,211768
DA:921,211768
DA:925,211768
DA:926,211768
DA:927,105884
DA:933,211768
DA:1011,362
DA:1013,362
DA:1014,0
DA:1015,362
DA:1016,362
DA:1017,362
DA:1018,362
DA:1022,353
DA:1024,353
DA:1026,350
DA:1027,350
DA:1028,350
DA:1029,350
DA:1030,353
DA:1034,4121
DA:1036,8242
DA:1037,4121
DA:1044,3
DA:1046,3
DA:1047,3
DA:1048,0
DA:1049,3
DA:1050,3
DA:1051,0
DA:1052,3
DA:1053,3
DA:1096,12
DA:1098,12
DA:1099,12
DA:1100,12
DA:1349,18
DA:1350,18
DA:1354,9
DA:1356,9
DA:1357,9
DA:1358,9
DA:1359,18
DA:1422,2
DA:1424,2
DA:1426,2
DA:1427,2
DA:1428,2
DA:1429,2
DA:1460,3
DA:1462,3
DA:1463,3
DA:1465,0
DA:1466,0
DA:1467,0
DA:1469,0
DA:1470,0
DA:1471,0
DA:1472,0
DA:1473,0
DA:1474,0
DA:1475,0
DA:1477,0
DA:1478,0
DA:1481,3
DA:1482,3
DA:1483,3
DA:1485,3
DA:1486,3
DA:1525,15
DA:1530,15
DA:1545,10
DA:1547,10
DA:1561,5
DA:1563,5
DA:2144,353
DA:2149,353
DA:2155,0
DA:2171,0
DA:3359,5
DA:3361,5
DA:3362,5
FNF:46
FNH:43
LF:159
LH:134
end_of_record
SF:/Library/Developer/CommandLineTools/SDKs/MacOSX12.3.sdk/usr/include/c++/v1/type_traits
FN:4326,_ZNSt3__1L21__convert_to_integralEm
FNDA:0,_ZNSt3__1L21__convert_to_integralEm
DA:4326,0
FNF:1
FNH:0
LF:1
LH:0
end_of_record
SF:/Library/Developer/CommandLineTools/SDKs/MacOSX12.3.sdk/usr/include/c++/v1/istream
FN:191,_ZNSt3__113basic_istreamIcNS_11char_traitsIcEEEC2EPNS_15basic_streambufIcS2_EE
FNDA:0,_ZNSt3__113basic_istreamIcNS_11char_traitsIcEEEC2EPNS_15basic_streambufIcS2_EE
FN:1405,_ZNSt3__114basic_iostreamIcNS_11char_traitsIcEEEC2EPNS_15basic_streambufIcS2_EE
FNDA:0,_ZNSt3__114basic_iostreamIcNS_11char_traitsIcEEEC2EPNS_15basic_streambufIcS2_EE
DA:191,0
DA:192,0
DA:1405,0
DA:1406,0
DA:1407,0
FNF:2
FNH:0
LF:5
LH:0
end_of_record
SF:/Library/Developer/CommandLineTools/SDKs/MacOSX12.3.sdk/usr/include/c++/v1/__algorithm/comp.h
FN:39,_ZNKSt3__110__equal_toIiiEclERKiS3_
FNDA:16,_ZNKSt3__110__equal_toIiiEclERKiS3_
FN:76,_ZNKSt3__16__lessImmEclERKmS3_
FNDA:4124,_ZNKSt3__16__lessImmEclERKmS3_
DA:39,16
DA:76,4124
FNF:2
FNH:2
LF:2
LH:2
end_of_record
SF:/Library/Developer/CommandLineTools/SDKs/MacOSX12.3.sdk/usr/include/c++/v1/__locale
FN:252,_ZNSt3__1L9use_facetINS_5ctypeIcEEEERKT_RKNS_6localeE
FNDA:898,_ZNSt3__1L9use_facetINS_5ctypeIcEEEERKT_RKNS_6localeE
FN:697,_ZNKSt3__15ctypeIcE5widenEc
FNDA:898,_ZNKSt3__15ctypeIcE5widenEc
DA:252,898
DA:254,898
DA:697,898
DA:699,898
FNF:2
FNH:2
LF:4
LH:4
end_of_record
SF:/Users/dogukanarat/Desktop/Workspace/RocketLab/Assessments/LargeExponent/LargeExponent/LargeExponent.h
FN:38,_ZN9RocketLab13LargeExponentD2Ev
FNDA:15,_ZN9RocketLab13LargeExponentD2Ev
FN:38,_ZN9RocketLab13LargeExponentD1Ev
FNDA:0,_ZN9RocketLab13LargeExponentD1Ev
FN:38,_ZN9RocketLab13LargeExponentD0Ev
FNDA:0,_ZN9RocketLab13LargeExponentD0Ev
DA:38,15
FNF:3
FNH:1
LF:1
LH:1
end_of_record
SF:/Library/Developer/CommandLineTools/SDKs/MacOSX12.3.sdk/usr/include/c++/v1/__iterator/distance.h
FN:39,_ZNSt3__1L10__distanceIPKiEENS_15iterator_traitsIT_E15difference_typeES4_S4_NS_26random_access_iterator_tagE
FNDA:1,_ZNSt3__1L10__distanceIPKiEENS_15iterator_traitsIT_E15difference_typeES4_S4_NS_26random_access_iterator_tagE
FN:39,_ZNSt3__1L10__distanceIPiEENS_15iterator_traitsIT_E15difference_typeES3_S3_NS_26random_access_iterator_tagE
FNDA:2,_ZNSt3__1L10__distanceIPiEENS_15iterator_traitsIT_E15difference_typeES3_S3_NS_26random_access_iterator_tagE
FN:47,_ZNSt3__1L8distanceIPKiEENS_15iterator_traitsIT_E15difference_typeES4_S4_
FNDA:1,_ZNSt3__1L8distanceIPKiEENS_15iterator_traitsIT_E15difference_typeES4_S4_
FN:47,_ZNSt3__1L8distanceIPiEENS_15iterator_traitsIT_E15difference_typeES3_S3_
FNDA:2,_ZNSt3__1L8distanceIPiEENS_15iterator_traitsIT_E15difference_typeES3_S3_
DA:39,3
DA:41,3
DA:47,3
DA:49,3
FNF:4
FNH:4
LF:4
LH:4
end_of_record
SF:/Library/Developer/CommandLineTools/SDKs/MacOSX12.3.sdk/usr/include/c++/v1/ios
FN:344,_ZNSt3__18ios_baseC2Ev
FNDA:0,_ZNSt3__18ios_baseC2Ev
FN:348,_ZNKSt3__18ios_base5rdbufEv
FNDA:8338,_ZNKSt3__18ios_base5rdbufEv
FN:459,_ZNKSt3__18ios_base5flagsEv
FNDA:8338,_ZNKSt3__18ios_base5flagsEv
FN:521,_ZNKSt3__18ios_base5widthEv
FNDA:8338,_ZNKSt3__18ios_base5widthEv
FN:528,_ZNSt3__18ios_base5widthEl
FNDA:8338,_ZNSt3__18ios_base5widthEl
FN:546,_ZNSt3__18ios_base8setstateEj
FNDA:0,_ZNSt3__18ios_base8setstateEj
FN:623,_ZNSt3__19basic_iosIcNS_11char_traitsIcEEE8setstateEj
FNDA:0,_ZNSt3__19basic_iosIcNS_11char_traitsIcEEE8setstateEj
FN:665,_ZNSt3__19basic_iosIcNS_11char_traitsIcEEEC2Ev
FNDA:0,_ZNSt3__19basic_iosIcNS_11char_traitsIcEEEC2Ev
FN:698,_ZNSt3__19basic_iosIcNS_11char_traitsIcEEE4initEPNS_15basic_streambufIcS2_EE
FNDA:0,_ZNSt3__19basic_iosIcNS_11char_traitsIcEEE4initEPNS_15basic_streambufIcS2_EE
FN:726,_ZNKSt3__19basic_iosIcNS_11char_traitsIcEEE5rdbufEv
FNDA:8338,_ZNKSt3__19basic_iosIcNS_11char_traitsIcEEE5rdbufEv
FN:764,_ZNKSt3__19basic_iosIcNS_11char_traitsIcEEE5widenEc
FNDA:898,_ZNKSt3__19basic_iosIcNS_11char_traitsIcEEE5widenEc
FN:772,_ZNKSt3__19basic_iosIcNS_11char_traitsIcEEE4fillEv
FNDA:8338,_ZNKSt3__19basic_iosIcNS_11char_traitsIcEEE4fillEv
DA:344,0
DA:345,0
DA:348,8338
DA:459,8338
DA:461,8338
DA:521,8338
DA:523,8338
DA:528,8338
DA:530,8338
DA:531,8338
DA:532,8338
DA:546,0
DA:548,0
DA:549,0
DA:623,0
DA:665,0
DA:666,0
DA:698,0
DA:700,0
DA:701,0
DA:702,0
DA:703,0
DA:726,8338
DA:728,8338
DA:764,898
DA:766,898
DA:767,0
DA:772,8338
DA:774,8338
DA:775,898
DA:776,8338
FNF:12
FNH:7
LF:31
LH:17
end_of_record
SF:/Library/Developer/CommandLineTools/SDKs/MacOSX12.3.sdk/usr/include/c++/v1/initializer_list
FN:84,_ZNKSt16initializer_listIiE4sizeEv
FNDA:27,_ZNKSt16initializer_listIiE4sizeEv
FN:88,_ZNKSt16initializer_listIiE5beginEv
FNDA:10,_ZNKSt16initializer_listIiE5beginEv
FN:92,_ZNKSt16initializer_listIiE3endEv
FNDA:10,_ZNKSt16initializer_listIiE3endEv
DA:84,27
DA:88,10
DA:92,10
FNF:3
FNH:3
LF:3
LH:3
end_of_record
SF:/Library/Developer/CommandLineTools/SDKs/MacOSX12.3.sdk/usr/include/c++/v1/__algorithm/max.h
FN:30,_ZNSt3__1L3maxImNS_6__lessImmEEEERKT_S5_S5_T0_
FNDA:3,_ZNSt3__1L3maxImNS_6__lessImmEEEERKT_S5_S5_T0_
FN:39,_ZNSt3__1L3maxImEERKT_S3_S3_
FNDA:3,_ZNSt3__1L3maxImEERKT_S3_S3_
DA:30,3
DA:32,3
DA:39,3
DA:41,3
FNF:2
FNH:2
LF:4
LH:4
end_of_record
SF:/Users/dogukanarat/Desktop/Workspace/RocketLab/Binaries/Debug/Intermediate/_deps/googletest-src/googletest/include/gtest/gtest.h
FN:283,_ZN7testing15AssertionResultD1Ev
FNDA:54,_ZN7testing15AssertionResultD1Ev
FN:283,_ZN7testing15AssertionResultD2Ev
FNDA:54,_ZN7testing15AssertionResultD2Ev
FN:305,_ZN7testing15AssertionResultC1IbEERKT_PNSt3__19enable_ifIXntsr3std14is_convertibleIS2_S0_EE5valueEvE4typeE
FNDA:54,_ZN7testing15AssertionResultC1IbEERKT_PNSt3__19enable_ifIXntsr3std14is_convertibleIS2_S0_EE5valueEvE4typeE
FN:305,_ZN7testing15AssertionResultC2IbEERKT_PNSt3__19enable_ifIXntsr3std14is_convertibleIS2_S0_EE5valueEvE4typeE
FNDA:54,_ZN7testing15AssertionResultC2IbEERKT_PNSt3__19enable_ifIXntsr3std14is_convertibleIS2_S0_EE5valueEvE4typeE
FN:324,_ZNK7testing15AssertionResultcvbEv
FNDA:54,_ZNK7testing15AssertionResultcvbEv
FN:333,_ZNK7testing15AssertionResult7messageEv
FNDA:0,_ZNK7testing15AssertionResult7messageEv
FN:337,_ZNK7testing15AssertionResult15failure_messageEv
FNDA:0,_ZNK7testing15AssertionResult15failure_messageEv
FN:427,_ZN7testing4Test14SetUpTestSuiteEv
FNDA:0,_ZN7testing4Test14SetUpTestSuiteEv
FN:435,_ZN7testing4Test17TearDownTestSuiteEv
FNDA:0,_ZN7testing4Test17TearDownTestSuiteEv
FN:440,_ZN7testing4Test16TearDownTestCaseEv
FNDA:0,_ZN7testing4Test16TearDownTestCaseEv
FN:441,_ZN7testing4Test13SetUpTestCaseEv
FNDA:0,_ZN7testing4Test13SetUpTestCaseEv
FN:522,_ZN7testing4Test5SetupEv
FNDA:0,_ZN7testing4Test5SetupEv
FN:1522,_ZN7testing8internal18CmpHelperEQFailureIA4_cNSt3__112basic_stringIcNS3_11char_traitsIcEENS3_9allocatorIcEEEEEENS_15AssertionResultEPKcSC_RKT_RKT0_
FNDA:0,_ZN7testing8internal18CmpHelperEQFailureIA4_cNSt3__112basic_stringIcNS3_11char_traitsIcEENS3_9allocatorIcEEEEEENS_15AssertionResultEPKcSC_RKT_RKT0_
FN:1522,_ZN7testing8internal18CmpHelperEQFailureIA2_cNSt3__112basic_stringIcNS3_11char_traitsIcEENS3_9allocatorIcEEEEEENS_15AssertionResultEPKcSC_RKT_RKT0_
FNDA:0,_ZN7testing8internal18CmpHelperEQFailureIA2_cNSt3__112basic_stringIcNS3_11char_traitsIcEENS3_9allocatorIcEEEEEENS_15AssertionResultEPKcSC_RKT_RKT0_
FN:1522,_ZN7testing8internal18CmpHelperEQFailureIA5_cNSt3__112basic_stringIcNS3_11char_traitsIcEENS3_9allocatorIcEEEEEENS_15AssertionResultEPKcSC_RKT_RKT0_
FNDA:0,_ZN7testing8internal18CmpHelperEQFailureIA5_cNSt3__112basic_stringIcNS3_11char_traitsIcEENS3_9allocatorIcEEEEEENS_15AssertionResultEPKcSC_RKT_RKT0_
FN:1522,_ZN7testing8internal18CmpHelperEQFailureINSt3__16vectorIiNS2_9allocatorIiEEEES6_EENS_15AssertionResultEPKcS9_RKT_RKT0_
FNDA:0,_ZN7testing8internal18CmpHelperEQFailureINSt3__16vectorIiNS2_9allocatorIiEEEES6_EENS_15AssertionResultEPKcS9_RKT_RKT0_
FN:1522,_ZN7testing8internal18CmpHelperEQFailureIiiEENS_15AssertionResultEPKcS4_RKT_RKT0_
FNDA:0,_ZN7testing8internal18CmpHelperEQFailureIiiEENS_15AssertionResultEPKcS4_RKT_RKT0_
FN:1522,_ZN7testing8internal18CmpHelperEQFailureIA6_cNSt3__112basic_stringIcNS3_11char_traitsIcEENS3_9allocatorIcEEEEEENS_15AssertionResultEPKcSC_RKT_RKT0_
FNDA:0,_ZN7testing8internal18CmpHelperEQFailureIA6_cNSt3__112basic_stringIcNS3_11char_traitsIcEENS3_9allocatorIcEEEEEENS_15AssertionResultEPKcSC_RKT_RKT0_
FN:1522,_ZN7testing8internal18CmpHelperEQFailureIA7_cNSt3__112basic_stringIcNS3_11char_traitsIcEENS3_9allocatorIcEEEEEENS_15AssertionResultEPKcSC_RKT_RKT0_
FNDA:0,_ZN7testing8internal18CmpHelperEQFailureIA7_cNSt3__112basic_stringIcNS3_11char_traitsIcEENS3_9allocatorIcEEEEEENS_15AssertionResultEPKcSC_RKT_RKT0_
FN:1522,_ZN7testing8internal18CmpHelperEQFailureIA12_cNSt3__112basic_stringIcNS3_11char_traitsIcEENS3_9allocatorIcEEEEEENS_15AssertionResultEPKcSC_RKT_RKT0_
FNDA:0,_ZN7testing8internal18CmpHelperEQFailureIA12_cNSt3__112basic_stringIcNS3_11char_traitsIcEENS3_9allocatorIcEEEEEENS_15AssertionResultEPKcSC_RKT_RKT0_
FN:1522,_ZN7testing8internal18CmpHelperEQFailureINSt3__112basic_stringIcNS2_11char_traitsIcEENS2_9allocatorIcEEEEA24_cEENS_15AssertionResultEPKcSC_RKT_RKT0_
FNDA:0,_ZN7testing8internal18CmpHelperEQFailureINSt3__112basic_stringIcNS2_11char_traitsIcEENS2_9allocatorIcEEEEA24_cEENS_15AssertionResultEPKcSC_RKT_RKT0_
FN:1522,_ZN7testing8internal18CmpHelperEQFailureINSt3__112basic_stringIcNS2_11char_traitsIcEENS2_9allocatorIcEEEEA672_cEENS_15AssertionResultEPKcSC_RKT_RKT0_
FNDA:0,_ZN7testing8internal18CmpHelperEQFailureINSt3__112basic_stringIcNS2_11char_traitsIcEENS2_9allocatorIcEEEEA672_cEENS_15AssertionResultEPKcSC_RKT_RKT0_
FN:1541,_ZN7testing8internal11CmpHelperEQIA4_cNSt3__112basic_stringIcNS3_11char_traitsIcEENS3_9allocatorIcEEEEEENS_15AssertionResultEPKcSC_RKT_RKT0_
FNDA:2,_ZN7testing8internal11CmpHelperEQIA4_cNSt3__112basic_stringIcNS3_11char_traitsIcEENS3_9allocatorIcEEEEEENS_15AssertionResultEPKcSC_RKT_RKT0_
FN:1541,_ZN7testing8internal11CmpHelperEQIA2_cNSt3__112basic_stringIcNS3_11char_traitsIcEENS3_9allocatorIcEEEEEENS_15AssertionResultEPKcSC_RKT_RKT0_
FNDA:2,_ZN7testing8internal11CmpHelperEQIA2_cNSt3__112basic_stringIcNS3_11char_traitsIcEENS3_9allocatorIcEEEEEENS_15AssertionResultEPKcSC_RKT_RKT0_
FN:1541,_ZN7testing8internal11CmpHelperEQIA5_cNSt3__112basic_stringIcNS3_11char_traitsIcEENS3_9allocatorIcEEEEEENS_15AssertionResultEPKcSC_RKT_RKT0_
FNDA:1,_ZN7testing8internal11CmpHelperEQIA5_cNSt3__112basic_stringIcNS3_11char_traitsIcEENS3_9allocatorIcEEEEEENS_15AssertionResultEPKcSC_RKT_RKT0_
FN:1541,_ZN7testing8internal11CmpHelperEQINSt3__16vectorIiNS2_9allocatorIiEEEES6_EENS_15AssertionResultEPKcS9_RKT_RKT0_
FNDA:5,_ZN7testing8internal11CmpHelperEQINSt3__16vectorIiNS2_9allocatorIiEEEES6_EENS_15AssertionResultEPKcS9_RKT_RKT0_
FN:1541,_ZN7testing8internal11CmpHelperEQIiiEENS_15AssertionResultEPKcS4_RKT_RKT0_
FNDA:3,_ZN7testing8internal11CmpHelperEQIiiEENS_15AssertionResultEPKcS4_RKT_RKT0_
FN:1541,_ZN7testing8internal11CmpHelperEQIA6_cNSt3__112basic_stringIcNS3_11char_traitsIcEENS3_9allocatorIcEEEEEENS_15AssertionResultEPKcSC_RKT_RKT0_
FNDA:2,_ZN7testing8internal11CmpHelperEQIA6_cNSt3__112basic_stringIcNS3_11char_traitsIcEENS3_9allocatorIcEEEEEENS_15AssertionResultEPKcSC_RKT_RKT0_
FN:1541,_ZN7testing8internal11CmpHelperEQIA7_cNSt3__112basic_stringIcNS3_11char_traitsIcEENS3_9allocatorIcEEEEEENS_15AssertionResultEPKcSC_RKT_RKT0_
FNDA:1,_ZN7testing8internal11CmpHelperEQIA7_cNSt3__112basic_stringIcNS3_11char_traitsIcEENS3_9allocatorIcEEEEEENS_15AssertionResultEPKcSC_RKT_RKT0_
FN:1541,_ZN7testing8internal11CmpHelperEQIA12_cNSt3__112basic_stringIcNS3_11char_traitsIcEENS3_9allocatorIcEEEEEENS_15AssertionResultEPKcSC_RKT_RKT0_
FNDA:1,_ZN7testing8internal11CmpHelperEQIA12_cNSt3__112basic_stringIcNS3_11char_traitsIcEENS3_9allocatorIcEEEEEENS_15AssertionResultEPKcSC_RKT_RKT0_
FN:1541,_ZN7testing8internal11CmpHelperEQINSt3__112basic_stringIcNS2_11char_traitsIcEENS2_9allocatorIcEEEEA24_cEENS_15AssertionResultEPKcSC_RKT_RKT0_
FNDA:1,_ZN7testing8internal11CmpHelperEQINSt3__112basic_stringIcNS2_11char_traitsIcEENS2_9allocatorIcEEEEA24_cEENS_15AssertionResultEPKcSC_RKT_RKT0_
FN:1541,_ZN7testing8internal11CmpHelperEQINSt3__112basic_stringIcNS2_11char_traitsIcEENS2_9allocatorIcEEEEA672_cEENS_15AssertionResultEPKcSC_RKT_RKT0_
FNDA:1,_ZN7testing8internal11CmpHelperEQINSt3__112basic_stringIcNS2_11char_traitsIcEENS2_9allocatorIcEEEEA672_cEENS_15AssertionResultEPKcSC_RKT_RKT0_
FN:1561,_ZN7testing8internal8EqHelper7CompareIA4_cNSt3__112basic_stringIcNS4_11char_traitsIcEENS4_9allocatorIcEEEELPv0EEENS_15AssertionResultEPKcSE_RKT_RKT0_
FNDA:2,_ZN7testing8internal8EqHelper7CompareIA4_cNSt3__112basic_stringIcNS4_11char_traitsIcEENS4_9allocatorIcEEEELPv0EEENS_15AssertionResultEPKcSE_RKT_RKT0_
FN:1561,_ZN7testing8internal8EqHelper7CompareIA2_cNSt3__112basic_stringIcNS4_11char_traitsIcEENS4_9allocatorIcEEEELPv0EEENS_15AssertionResultEPKcSE_RKT_RKT0_
FNDA:2,_ZN7testing8internal8EqHelper7CompareIA2_cNSt3__112basic_stringIcNS4_11char_traitsIcEENS4_9allocatorIcEEEELPv0EEENS_15AssertionResultEPKcSE_RKT_RKT0_
FN:1561,_ZN7testing8internal8EqHelper7CompareIA5_cNSt3__112basic_stringIcNS4_11char_traitsIcEENS4_9allocatorIcEEEELPv0EEENS_15AssertionResultEPKcSE_RKT_RKT0_
FNDA:1,_ZN7testing8internal8EqHelper7CompareIA5_cNSt3__112basic_stringIcNS4_11char_traitsIcEENS4_9allocatorIcEEEELPv0EEENS_15AssertionResultEPKcSE_RKT_RKT0_
FN:1561,_ZN7testing8internal8EqHelper7CompareINSt3__16vectorIiNS3_9allocatorIiEEEES7_LPv0EEENS_15AssertionResultEPKcSB_RKT_RKT0_
FNDA:5,_ZN7testing8internal8EqHelper7CompareINSt3__16vectorIiNS3_9allocatorIiEEEES7_LPv0EEENS_15AssertionResultEPKcSB_RKT_RKT0_
FN:1561,_ZN7testing8internal8EqHelper7CompareIiiLPv0EEENS_15AssertionResultEPKcS6_RKT_RKT0_
FNDA:3,_ZN7testing8internal8EqHelper7CompareIiiLPv0EEENS_15AssertionResultEPKcS6_RKT_RKT0_
FN:1561,_ZN7testing8internal8EqHelper7CompareIA6_cNSt3__112basic_stringIcNS4_11char_traitsIcEENS4_9allocatorIcEEEELPv0EEENS_15AssertionResultEPKcSE_RKT_RKT0_
FNDA:2,_ZN7testing8internal8EqHelper7CompareIA6_cNSt3__112basic_stringIcNS4_11char_traitsIcEENS4_9allocatorIcEEEELPv0EEENS_15AssertionResultEPKcSE_RKT_RKT0_
FN:1561,_ZN7testing8internal8EqHelper7CompareIA7_cNSt3__112basic_stringIcNS4_11char_traitsIcEENS4_9allocatorIcEEEELPv0EEENS_15AssertionResultEPKcSE_RKT_RKT0_
FNDA:1,_ZN7testing8internal8EqHelper7CompareIA7_cNSt3__112basic_stringIcNS4_11char_traitsIcEENS4_9allocatorIcEEEELPv0EEENS_15AssertionResultEPKcSE_RKT_RKT0_
FN:1561,_ZN7testing8internal8EqHelper7CompareIA12_cNSt3__112basic_stringIcNS4_11char_traitsIcEENS4_9allocatorIcEEEELPv0EEENS_15AssertionResultEPKcSE_RKT_RKT0_
FNDA:1,_ZN7testing8internal8EqHelper7CompareIA12_cNSt3__112basic_stringIcNS4_11char_traitsIcEENS4_9allocatorIcEEEELPv0EEENS_15AssertionResultEPKcSE_RKT_RKT0_
FN:1561,_ZN7testing8internal8EqHelper7CompareINSt3__112basic_stringIcNS3_11char_traitsIcEENS3_9allocatorIcEEEEA24_cLPv0EEENS_15AssertionResultEPKcSE_RKT_RKT0_
FNDA:1,_ZN7testing8internal8EqHelper7CompareINSt3__112basic_stringIcNS3_11char_traitsIcEENS3_9allocatorIcEEEEA24_cLPv0EEENS_15AssertionResultEPKcSE_RKT_RKT0_
FN:1561,_ZN7testing8internal8EqHelper7CompareINSt3__112basic_stringIcNS3_11char_traitsIcEENS3_9allocatorIcEEEEA672_cLPv0EEENS_15AssertionResultEPKcSE_RKT_RKT0_
FNDA:1,_ZN7testing8internal8EqHelper7CompareINSt3__112basic_stringIcNS3_11char_traitsIcEENS3_9allocatorIcEEEEA672_cLPv0EEENS_15AssertionResultEPKcSE_RKT_RKT0_
DA:305,162
DA:311,162
DA:324,54
DA:333,0
DA:334,0
DA:337,0
DA:427,0
DA:435,0
DA:440,0
DA:441,0
DA:522,0
DA:1522,0
DA:1525,0
DA:1526,0
DA:1527,0
DA:1528,0
DA:1530,0
DA:1541,19
DA:1545,19
DA:1546,19
DA:1549,0
DA:1550,19
DA:1561,19
DA:1564,19
FNF:42
FNH:25
LF:24
LH:9
end_of_record
TN:
SF:/Library/Developer/CommandLineTools/SDKs/MacOSX12.3.sdk/usr/include/c++/v1/__utility/move.h
FN:27,_ZNSt3__1L4moveIRN7testing7MatcherIRKNS_12basic_stringIcNS_11char_traitsIcEENS_9allocatorIcEEEEEEEEONS_16remove_referenceIT_E4typeEOSE_
FNDA:0,_ZNSt3__1L4moveIRN7testing7MatcherIRKNS_12basic_stringIcNS_11char_traitsIcEENS_9allocatorIcEEEEEEEEONS_16remove_referenceIT_E4typeEOSE_
FN:27,_ZNSt3__1L4moveIRNS_22__tree_node_destructorINS_9allocatorINS_11__tree_nodeINS_12__value_typeINS_12basic_stringIcNS_11char_traitsIcEENS2_IcEEEEmEEPvEEEEEEEEONS_16remove_referenceIT_E4typeEOSH_
FNDA:0,_ZNSt3__1L4moveIRNS_22__tree_node_destructorINS_9allocatorINS_11__tree_nodeINS_12__value_typeINS_12basic_stringIcNS_11char_traitsIcEENS2_IcEEEEmEEPvEEEEEEEEONS_16remove_referenceIT_E4typeEOSH_
FN:27,_ZNSt3__1L4moveIRNS_4pairIcPKcEEEEONS_16remove_referenceIT_E4typeEOS7_
FNDA:0,_ZNSt3__1L4moveIRNS_4pairIcPKcEEEEONS_16remove_referenceIT_E4typeEOS7_
FN:27,_ZNSt3__1L4moveIRNS_22__allocator_destructorINS_9allocatorINS_11__list_nodeINS_4pairIcPKcEEPvEEEEEEEEONS_16remove_referenceIT_E4typeEOSE_
FNDA:0,_ZNSt3__1L4moveIRNS_22__allocator_destructorINS_9allocatorINS_11__list_nodeINS_4pairIcPKcEEPvEEEEEEEEONS_16remove_referenceIT_E4typeEOSE_
FN:27,_ZNSt3__1L4moveIRPcEEONS_16remove_referenceIT_E4typeEOS4_
FNDA:0,_ZNSt3__1L4moveIRPcEEONS_16remove_referenceIT_E4typeEOS4_
FN:27,_ZNSt3__1L4moveIRPPcEEONS_16remove_referenceIT_E4typeEOS5_
FNDA:0,_ZNSt3__1L4moveIRPPcEEONS_16remove_referenceIT_E4typeEOS5_
FN:27,_ZNSt3__1L4moveIRNS_17__compressed_pairINS_12basic_stringIcNS_11char_traitsIcEENS_9allocatorIcEEE5__repES6_EEEEONS_16remove_referenceIT_E4typeEOSC_
FNDA:1125,_ZNSt3__1L4moveIRNS_17__compressed_pairINS_12basic_stringIcNS_11char_traitsIcEENS_9allocatorIcEEE5__repES6_EEEEONS_16remove_referenceIT_E4typeEOSC_
FN:27,_ZNSt3__1L4moveIRNS_12basic_stringIcNS_11char_traitsIcEENS_9allocatorIcEEEEEEONS_16remove_referenceIT_E4typeEOS9_
FNDA:1125,_ZNSt3__1L4moveIRNS_12basic_stringIcNS_11char_traitsIcEENS_9allocatorIcEEEEEEONS_16remove_referenceIT_E4typeEOS9_
FN:27,_ZNSt3__1L4moveIRNS_22__tree_node_destructorINS_9allocatorINS_11__tree_nodeINS_12basic_stringIcNS_11char_traitsIcEENS2_IcEEEEPvEEEEEEEEONS_16remove_referenceIT_E4typeEOSF_
FNDA:0,_ZNSt3__1L4moveIRNS_22__tree_node_destructorINS_9allocatorINS_11__tree_nodeINS_12basic_stringIcNS_11char_traitsIcEENS2_IcEEEEPvEEEEEEEEONS_16remove_referenceIT_E4typeEOSF_
FN:27,_ZNSt3__1L4moveIRZN7testing8internal23InsertSyntheticTestCaseERKNS_12basic_stringIcNS_11char_traitsIcEENS_9allocatorIcEEEENS2_12CodeLocationEbE3$_0EEONS_16remove_referenceIT_E4typeEOSF_
FNDA:0,_ZNSt3__1L4moveIRZN7testing8internal23InsertSyntheticTestCaseERKNS_12basic_stringIcNS_11char_traitsIcEENS_9allocatorIcEEEENS2_12CodeLocationEbE3$_0EEONS_16remove_referenceIT_E4typeEOSF_
FN:27,_ZNSt3__1L4moveIRNS_22__tree_node_destructorINS_9allocatorINS_11__tree_nodeINS_12__value_typeINS_12basic_stringIcNS_11char_traitsIcEENS2_IcEEEEN7testing8internal34TypeParameterizedTestSuiteRegistry30TypeParameterizedTestSuiteInfoEEEPvEEEEEEEEONS_16remove_referenceIT_E4typeEOSL_
FNDA:0,_ZNSt3__1L4moveIRNS_22__tree_node_destructorINS_9allocatorINS_11__tree_nodeINS_12__value_typeINS_12basic_stringIcNS_11char_traitsIcEENS2_IcEEEEN7testing8internal34TypeParameterizedTestSuiteRegistry30TypeParameterizedTestSuiteInfoEEEPvEEEEEEEEONS_16remove_referenceIT_E4typeEOSL_
FN:27,_ZNSt3__1L4moveIRZN7testing8internal34TypeParameterizedTestSuiteRegistry22CheckForInstantiationsEvE3$_1EEONS_16remove_referenceIT_E4typeEOS7_
FNDA:0,_ZNSt3__1L4moveIRZN7testing8internal34TypeParameterizedTestSuiteRegistry22CheckForInstantiationsEvE3$_1EEONS_16remove_referenceIT_E4typeEOS7_
FN:27,_ZNSt3__1L4moveIRNS_9allocatorINS_12basic_stringIcNS_11char_traitsIcEENS1_IcEEEEEEEEONS_16remove_referenceIT_E4typeEOSA_
FNDA:40,_ZNSt3__1L4moveIRNS_9allocatorINS_12basic_stringIcNS_11char_traitsIcEENS1_IcEEEEEEEEONS_16remove_referenceIT_E4typeEOSA_
FN:27,_ZNSt3__1L4moveIRNS_9allocatorIcEEEEONS_16remove_referenceIT_E4typeEOS5_
FNDA:0,_ZNSt3__1L4moveIRNS_9allocatorIcEEEEONS_16remove_referenceIT_E4typeEOS5_
FN:27,_ZNSt3__1L4moveIRPNS_12basic_stringIcNS_11char_traitsIcEENS_9allocatorIcEEEEEEONS_16remove_referenceIT_E4typeEOSA_
FNDA:531,_ZNSt3__1L4moveIRPNS_12basic_stringIcNS_11char_traitsIcEENS_9allocatorIcEEEEEEONS_16remove_referenceIT_E4typeEOSA_
FN:27,_ZNSt3__1L4moveIRbEEONS_16remove_referenceIT_E4typeEOS3_
FNDA:0,_ZNSt3__1L4moveIRbEEONS_16remove_referenceIT_E4typeEOS3_
FN:27,_ZNSt3__1L4moveIRNS_14default_deleteINS_12basic_stringIcNS_11char_traitsIcEENS_9allocatorIcEEEEEEEEONS_16remove_referenceIT_E4typeEOSB_
FNDA:0,_ZNSt3__1L4moveIRNS_14default_deleteINS_12basic_stringIcNS_11char_traitsIcEENS_9allocatorIcEEEEEEEEONS_16remove_referenceIT_E4typeEOSB_
FN:27,_ZNSt3__1L4moveIRNS_9allocatorIdEEEEONS_16remove_referenceIT_E4typeEOS5_
FNDA:0,_ZNSt3__1L4moveIRNS_9allocatorIdEEEEONS_16remove_referenceIT_E4typeEOS5_
FN:27,_ZNSt3__1L4moveIRNS_9allocatorIN7testing8internal13edit_distance8EditTypeEEEEEONS_16remove_referenceIT_E4typeEOS9_
FNDA:0,_ZNSt3__1L4moveIRNS_9allocatorIN7testing8internal13edit_distance8EditTypeEEEEEONS_16remove_referenceIT_E4typeEOS9_
FN:27,_ZNSt3__1L4moveIRPN7testing8internal13edit_distance8EditTypeEEEONS_16remove_referenceIT_E4typeEOS8_
FNDA:0,_ZNSt3__1L4moveIRPN7testing8internal13edit_distance8EditTypeEEEONS_16remove_referenceIT_E4typeEOS8_
FN:27,_ZNSt3__1L4moveIRN7testing8internal13edit_distance8EditTypeEEEONS_16remove_referenceIT_E4typeEOS7_
FNDA:0,_ZNSt3__1L4moveIRN7testing8internal13edit_distance8EditTypeEEEONS_16remove_referenceIT_E4typeEOS7_
FN:27,_ZNSt3__1L4moveIRmEEONS_16remove_referenceIT_E4typeEOS3_
FNDA:0,_ZNSt3__1L4moveIRmEEONS_16remove_referenceIT_E4typeEOS3_
FN:27,_ZNSt3__1L4moveIRPmEEONS_16remove_referenceIT_E4typeEOS4_
FNDA:0,_ZNSt3__1L4moveIRPmEEONS_16remove_referenceIT_E4typeEOS4_
FN:27,_ZNSt3__1L4moveIRN7testing14TestPartResultEEEONS_16remove_referenceIT_E4typeEOS5_
FNDA:0,_ZNSt3__1L4moveIRN7testing14TestPartResultEEEONS_16remove_referenceIT_E4typeEOS5_
FN:27,_ZNSt3__1L4moveIRPN7testing14TestPartResultEEEONS_16remove_referenceIT_E4typeEOS6_
FNDA:0,_ZNSt3__1L4moveIRPN7testing14TestPartResultEEEONS_16remove_referenceIT_E4typeEOS6_
FN:27,_ZNSt3__1L4moveIRN7testing12TestPropertyEEEONS_16remove_referenceIT_E4typeEOS5_
FNDA:0,_ZNSt3__1L4moveIRN7testing12TestPropertyEEEONS_16remove_referenceIT_E4typeEOS5_
FN:27,_ZNSt3__1L4moveIRPN7testing12TestPropertyEEEONS_16remove_referenceIT_E4typeEOS6_
FNDA:0,_ZNSt3__1L4moveIRPN7testing12TestPropertyEEEONS_16remove_referenceIT_E4typeEOS6_
FN:27,_ZNSt3__1L4moveIRPPN7testing8TestInfoEEEONS_16remove_referenceIT_E4typeEOS7_
FNDA:1440,_ZNSt3__1L4moveIRPPN7testing8TestInfoEEEONS_16remove_referenceIT_E4typeEOS7_
FN:27,_ZNSt3__1L4moveIRiEEONS_16remove_referenceIT_E4typeEOS3_
FNDA:420,_ZNSt3__1L4moveIRiEEONS_16remove_referenceIT_E4typeEOS3_
FN:27,_ZNSt3__1L4moveIRPiEEONS_16remove_referenceIT_E4typeEOS4_
FNDA:30654,_ZNSt3__1L4moveIRPiEEONS_16remove_referenceIT_E4typeEOS4_
FN:27,_ZNSt3__1L4moveIRPPN7testing17TestEventListenerEEEONS_16remove_referenceIT_E4typeEOS7_
FNDA:180,_ZNSt3__1L4moveIRPPN7testing17TestEventListenerEEEONS_16remove_referenceIT_E4typeEOS7_
FN:27,_ZNSt3__1L4moveIRPPN7testing11EnvironmentEEEONS_16remove_referenceIT_E4typeEOS7_
FNDA:0,_ZNSt3__1L4moveIRPPN7testing11EnvironmentEEEONS_16remove_referenceIT_E4typeEOS7_
FN:27,_ZNSt3__1L4moveIRN7testing8internal9TraceInfoEEEONS_16remove_referenceIT_E4typeEOS6_
FNDA:0,_ZNSt3__1L4moveIRN7testing8internal9TraceInfoEEEONS_16remove_referenceIT_E4typeEOS6_
FN:27,_ZNSt3__1L4moveIRPN7testing8internal9TraceInfoEEEONS_16remove_referenceIT_E4typeEOS7_
FNDA:0,_ZNSt3__1L4moveIRPN7testing8internal9TraceInfoEEEONS_16remove_referenceIT_E4typeEOS7_
FN:27,_ZNSt3__1L4moveIRPN7testing9TestSuiteEEEONS_16remove_referenceIT_E4typeEOS6_
FNDA:0,_ZNSt3__1L4moveIRPN7testing9TestSuiteEEEONS_16remove_referenceIT_E4typeEOS6_
FN:27,_ZNSt3__1L4moveIRPPN7testing9TestSuiteEEEONS_16remove_referenceIT_E4typeEOS7_
FNDA:360,_ZNSt3__1L4moveIRPPN7testing9TestSuiteEEEONS_16remove_referenceIT_E4typeEOS7_
FN:27,_ZNSt3__1L4moveIRNS_12basic_stringIcNS_11char_traitsIcEENS_9allocatorIcEEE5__repEEEONS_16remove_referenceIT_E4typeEOSA_
FNDA:0,_ZNSt3__1L4moveIRNS_12basic_stringIcNS_11char_traitsIcEENS_9allocatorIcEEE5__repEEEONS_16remove_referenceIT_E4typeEOSA_
FN:27,_ZNSt3__1L4moveIRN7testing8internal9EqMatcherINS_12basic_stringIcNS_11char_traitsIcEENS_9allocatorIcEEEEEEEEONS_16remove_referenceIT_E4typeEOSD_
FNDA:0,_ZNSt3__1L4moveIRN7testing8internal9EqMatcherINS_12basic_stringIcNS_11char_traitsIcEENS_9allocatorIcEEEEEEEEONS_16remove_referenceIT_E4typeEOSD_
FN:44,_ZNSt3__1L16move_if_noexceptIPcEENS_11conditionalIXaantsr29is_nothrow_move_constructibleIT_EE5valuesr21is_copy_constructibleIS3_EE5valueERKS3_OS3_E4typeERS3_
FNDA:0,_ZNSt3__1L16move_if_noexceptIPcEENS_11conditionalIXaantsr29is_nothrow_move_constructibleIT_EE5valuesr21is_copy_constructibleIS3_EE5valueERKS3_OS3_E4typeERS3_
FN:44,_ZNSt3__1L16move_if_noexceptINS_12basic_stringIcNS_11char_traitsIcEENS_9allocatorIcEEEEEENS_11conditionalIXaantsr29is_nothrow_move_constructibleIT_EE5valuesr21is_copy_constructibleIS8_EE5valueERKS8_OS8_E4typeERS8_
FNDA:58,_ZNSt3__1L16move_if_noexceptINS_12basic_stringIcNS_11char_traitsIcEENS_9allocatorIcEEEEEENS_11conditionalIXaantsr29is_nothrow_move_constructibleIT_EE5valuesr21is_copy_constructibleIS8_EE5valueERKS8_OS8_E4typeERS8_
FN:44,_ZNSt3__1L16move_if_noexceptIN7testing14TestPartResultEEENS_11conditionalIXaantsr29is_nothrow_move_constructibleIT_EE5valuesr21is_copy_constructibleIS4_EE5valueERKS4_OS4_E4typeERS4_
FNDA:0,_ZNSt3__1L16move_if_noexceptIN7testing14TestPartResultEEENS_11conditionalIXaantsr29is_nothrow_move_constructibleIT_EE5valuesr21is_copy_constructibleIS4_EE5valueERKS4_OS4_E4typeERS4_
FN:44,_ZNSt3__1L16move_if_noexceptIN7testing12TestPropertyEEENS_11conditionalIXaantsr29is_nothrow_move_constructibleIT_EE5valuesr21is_copy_constructibleIS4_EE5valueERKS4_OS4_E4typeERS4_
FNDA:0,_ZNSt3__1L16move_if_noexceptIN7testing12TestPropertyEEENS_11conditionalIXaantsr29is_nothrow_move_constructibleIT_EE5valuesr21is_copy_constructibleIS4_EE5valueERKS4_OS4_E4typeERS4_
FN:44,_ZNSt3__1L16move_if_noexceptIN7testing8internal9TraceInfoEEENS_11conditionalIXaantsr29is_nothrow_move_constructibleIT_EE5valuesr21is_copy_constructibleIS5_EE5valueERKS5_OS5_E4typeERS5_
FNDA:0,_ZNSt3__1L16move_if_noexceptIN7testing8internal9TraceInfoEEENS_11conditionalIXaantsr29is_nothrow_move_constructibleIT_EE5valuesr21is_copy_constructibleIS5_EE5valueERKS5_OS5_E4typeERS5_
FN:44,_ZNSt3__1L16move_if_noexceptIPN7testing9TestSuiteEEENS_11conditionalIXaantsr29is_nothrow_move_constructibleIT_EE5valuesr21is_copy_constructibleIS5_EE5valueERKS5_OS5_E4typeERS5_
FNDA:0,_ZNSt3__1L16move_if_noexceptIPN7testing9TestSuiteEEENS_11conditionalIXaantsr29is_nothrow_move_constructibleIT_EE5valuesr21is_copy_constructibleIS5_EE5valueERKS5_OS5_E4typeERS5_
DA:27,35875
DA:29,35875
DA:44,58
DA:45,58
FNF:44
FNH:10
LF:4
LH:4
end_of_record
SF:/Library/Developer/CommandLineTools/SDKs/MacOSX12.3.sdk/usr/include/c++/v1/__algorithm/comp.h
FN:76,_ZNKSt3__16__lessImmEclERKmS3_
FNDA:778,_ZNKSt3__16__lessImmEclERKmS3_
FN:76,_ZNKSt3__16__lessIddEclERKdS3_
FNDA:0,_ZNKSt3__16__lessIddEclERKdS3_
DA:76,778
FNF:2
FNH:1
LF:1
LH:1
end_of_record
SF:/Library/Developer/CommandLineTools/SDKs/MacOSX12.3.sdk/usr/include/c++/v1/__iterator/distance.h
FN:39,_ZNSt3__1L10__distanceIPKPKcEENS_15iterator_traitsIT_E15difference_typeES6_S6_NS_26random_access_iterator_tagE
FNDA:0,_ZNSt3__1L10__distanceIPKPKcEENS_15iterator_traitsIT_E15difference_typeES6_S6_NS_26random_access_iterator_tagE
FN:39,_ZNSt3__1L10__distanceINS_13move_iteratorIPPcEEEENS_15iterator_traitsIT_E15difference_typeES6_S6_NS_26random_access_iterator_tagE
FNDA:0,_ZNSt3__1L10__distanceINS_13move_iteratorIPPcEEEENS_15iterator_traitsIT_E15difference_typeES6_S6_NS_26random_access_iterator_tagE
FN:39,_ZNSt3__1L10__distanceIPKcEENS_15iterator_traitsIT_E15difference_typeES4_S4_NS_26random_access_iterator_tagE
FNDA:0,_ZNSt3__1L10__distanceIPKcEENS_15iterator_traitsIT_E15difference_typeES4_S4_NS_26random_access_iterator_tagE
FN:39,_ZNSt3__1L10__distanceINS_13move_iteratorIPPN7testing9TestSuiteEEEEENS_15iterator_traitsIT_E15difference_typeES8_S8_NS_26random_access_iterator_tagE
FNDA:0,_ZNSt3__1L10__distanceINS_13move_iteratorIPPN7testing9TestSuiteEEEEENS_15iterator_traitsIT_E15difference_typeES8_S8_NS_26random_access_iterator_tagE
FN:39,_ZNSt3__1L10__distanceINS_11__wrap_iterIPKNS_12basic_stringIcNS_11char_traitsIcEENS_9allocatorIcEEEEEEEENS_15iterator_traitsIT_E15difference_typeESC_SC_NS_26random_access_iterator_tagE
FNDA:0,_ZNSt3__1L10__distanceINS_11__wrap_iterIPKNS_12basic_stringIcNS_11char_traitsIcEENS_9allocatorIcEEEEEEEENS_15iterator_traitsIT_E15difference_typeESC_SC_NS_26random_access_iterator_tagE
FN:47,_ZNSt3__1L8distanceIPKPKcEENS_15iterator_traitsIT_E15difference_typeES6_S6_
FNDA:0,_ZNSt3__1L8distanceIPKPKcEENS_15iterator_traitsIT_E15difference_typeES6_S6_
FN:47,_ZNSt3__1L8distanceINS_13move_iteratorIPPcEEEENS_15iterator_traitsIT_E15difference_typeES6_S6_
FNDA:0,_ZNSt3__1L8distanceINS_13move_iteratorIPPcEEEENS_15iterator_traitsIT_E15difference_typeES6_S6_
FN:47,_ZNSt3__1L8distanceIPKcEENS_15iterator_traitsIT_E15difference_typeES4_S4_
FNDA:0,_ZNSt3__1L8distanceIPKcEENS_15iterator_traitsIT_E15difference_typeES4_S4_
FN:47,_ZNSt3__1L8distanceINS_13move_iteratorIPPN7testing9TestSuiteEEEEENS_15iterator_traitsIT_E15difference_typeES8_S8_
FNDA:0,_ZNSt3__1L8distanceINS_13move_iteratorIPPN7testing9TestSuiteEEEEENS_15iterator_traitsIT_E15difference_typeES8_S8_
FN:47,_ZNSt3__1L8distanceINS_11__wrap_iterIPKNS_12basic_stringIcNS_11char_traitsIcEENS_9allocatorIcEEEEEEEENS_15iterator_traitsIT_E15difference_typeESC_SC_
FNDA:0,_ZNSt3__1L8distanceINS_11__wrap_iterIPKNS_12basic_stringIcNS_11char_traitsIcEENS_9allocatorIcEEEEEEEENS_15iterator_traitsIT_E15difference_typeESC_SC_
DA:39,0
DA:41,0
DA:47,0
DA:49,0
FNF:10
FNH:0
LF:4
LH:0
end_of_record
SF:/Library/Developer/CommandLineTools/SDKs/MacOSX12.3.sdk/usr/include/c++/v1/__memory/shared_ptr.h
FN:62,_ZNSt3__122__allocator_destructorINS_9allocatorINS_11__list_nodeINS_4pairIcPKcEEPvEEEEEC1ERS9_m
FNDA:0,_ZNSt3__122__allocator_destructorINS_9allocatorINS_11__list_nodeINS_4pairIcPKcEEPvEEEEEC1ERS9_m
FN:62,_ZNSt3__122__allocator_destructorINS_9allocatorINS_11__list_nodeINS_4pairIcPKcEEPvEEEEEC2ERS9_m
FNDA:0,_ZNSt3__122__allocator_destructorINS_9allocatorINS_11__list_nodeINS_4pairIcPKcEEPvEEEEEC2ERS9_m
FN:66,_ZNSt3__122__allocator_destructorINS_9allocatorINS_11__list_nodeINS_4pairIcPKcEEPvEEEEEclEPS8_
FNDA:0,_ZNSt3__122__allocator_destructorINS_9allocatorINS_11__list_nodeINS_4pairIcPKcEEPvEEEEEclEPS8_
DA:62,0
DA:64,0
DA:66,0
DA:67,0
FNF:3
FNH:0
LF:4
LH:0
end_of_record
SF:/Users/dogukanarat/Desktop/Workspace/RocketLab/Binaries/Debug/Intermediate/_deps/googletest-src/googletest/include/gtest/internal/gtest-death-test-internal.h
FN:86,_ZN7testing8internal9DeathTestD1Ev
FNDA:0,_ZN7testing8internal9DeathTestD1Ev
FN:86,_ZN7testing8internal9DeathTestD0Ev
FNDA:0,_ZN7testing8internal9DeathTestD0Ev
FN:86,_ZN7testing8internal9DeathTestD2Ev
FNDA:0,_ZN7testing8internal9DeathTestD2Ev
FN:146,_ZN7testing8internal16DeathTestFactoryC2Ev
FNDA:20,_ZN7testing8internal16DeathTestFactoryC2Ev
FN:148,_ZN7testing8internal16DeathTestFactoryD1Ev
FNDA:0,_ZN7testing8internal16DeathTestFactoryD1Ev
FN:148,_ZN7testing8internal16DeathTestFactoryD0Ev
FNDA:0,_ZN7testing8internal16DeathTestFactoryD0Ev
FN:148,_ZN7testing8internal16DeathTestFactoryD2Ev
FNDA:0,_ZN7testing8internal16DeathTestFactoryD2Ev
FN:155,_ZN7testing8internal23DefaultDeathTestFactoryC1Ev
FNDA:20,_ZN7testing8internal23DefaultDeathTestFactoryC1Ev
FN:155,_ZN7testing8internal23DefaultDeathTestFactoryD1Ev
FNDA:0,_ZN7testing8internal23DefaultDeathTestFactoryD1Ev
FN:155,_ZN7testing8internal23DefaultDeathTestFactoryD0Ev
FNDA:0,_ZN7testing8internal23DefaultDeathTestFactoryD0Ev
FN:155,_ZN7testing8internal23DefaultDeathTestFactoryC2Ev
FNDA:20,_ZN7testing8internal23DefaultDeathTestFactoryC2Ev
FN:155,_ZN7testing8internal23DefaultDeathTestFactoryD2Ev
FNDA:0,_ZN7testing8internal23DefaultDeathTestFactoryD2Ev
FN:268,_ZN7testing8internal24InternalRunDeathTestFlagC1ERKNSt3__112basic_stringIcNS2_11char_traitsIcEENS2_9allocatorIcEEEEiii
FNDA:0,_ZN7testing8internal24InternalRunDeathTestFlagC1ERKNSt3__112basic_stringIcNS2_11char_traitsIcEENS2_9allocatorIcEEEEiii
FN:268,_ZN7testing8internal24InternalRunDeathTestFlagC2ERKNSt3__112basic_stringIcNS2_11char_traitsIcEENS2_9allocatorIcEEEEiii
FNDA:0,_ZN7testing8internal24InternalRunDeathTestFlagC2ERKNSt3__112basic_stringIcNS2_11char_traitsIcEENS2_9allocatorIcEEEEiii
FN:275,_ZN7testing8internal24InternalRunDeathTestFlagD1Ev
FNDA:0,_ZN7testing8internal24InternalRunDeathTestFlagD1Ev
FN:275,_ZN7testing8internal24InternalRunDeathTestFlagD2Ev
FNDA:0,_ZN7testing8internal24InternalRunDeathTestFlagD2Ev
FN:280,_ZNK7testing8internal24InternalRunDeathTestFlag4fileEv
FNDA:0,_ZNK7testing8internal24InternalRunDeathTestFlag4fileEv
FN:281,_ZNK7testing8internal24InternalRunDeathTestFlag4lineEv
FNDA:0,_ZNK7testing8internal24InternalRunDeathTestFlag4lineEv
FN:282,_ZNK7testing8internal24InternalRunDeathTestFlag5indexEv
FNDA:0,_ZNK7testing8internal24InternalRunDeathTestFlag5indexEv
FN:283,_ZNK7testing8internal24InternalRunDeathTestFlag8write_fdEv
FNDA:0,_ZNK7testing8internal24InternalRunDeathTestFlag8write_fdEv
DA:86,0
DA:148,0
DA:268,0
DA:272,0
DA:273,0
DA:275,0
DA:276,0
DA:277,0
DA:278,0
DA:280,0
DA:281,0
DA:282,0
DA:283,0
FNF:20
FNH:3
LF:13
LH:0
end_of_record
SF:/Library/Developer/CommandLineTools/SDKs/MacOSX12.3.sdk/usr/include/c++/v1/__iterator/reverse_iterator.h
FN:79,_ZNSt3__116reverse_iteratorINS_11__wrap_iterIPPN7testing9TestSuiteEEEEC1ES6_
FNDA:1140,_ZNSt3__116reverse_iteratorINS_11__wrap_iterIPPN7testing9TestSuiteEEEEC1ES6_
FN:79,_ZNSt3__116reverse_iteratorINS_11__wrap_iterIPPN7testing9TestSuiteEEEEC2ES6_
FNDA:1140,_ZNSt3__116reverse_iteratorINS_11__wrap_iterIPPN7testing9TestSuiteEEEEC2ES6_
FN:79,_ZNSt3__116reverse_iteratorINS_11__wrap_iterIPPN7testing11EnvironmentEEEEC1ES6_
FNDA:38,_ZNSt3__116reverse_iteratorINS_11__wrap_iterIPPN7testing11EnvironmentEEEEC1ES6_
FN:79,_ZNSt3__116reverse_iteratorINS_11__wrap_iterIPPN7testing11EnvironmentEEEEC2ES6_
FNDA:38,_ZNSt3__116reverse_iteratorINS_11__wrap_iterIPPN7testing11EnvironmentEEEEC2ES6_
FN:126,_ZNKSt3__116reverse_iteratorINS_11__wrap_iterIPPN7testing9TestSuiteEEEE4baseEv
FNDA:1560,_ZNKSt3__116reverse_iteratorINS_11__wrap_iterIPPN7testing9TestSuiteEEEE4baseEv
FN:126,_ZNKSt3__116reverse_iteratorINS_11__wrap_iterIPPN7testing11EnvironmentEEEE4baseEv
FNDA:38,_ZNKSt3__116reverse_iteratorINS_11__wrap_iterIPPN7testing11EnvironmentEEEE4baseEv
FN:128,_ZNKSt3__116reverse_iteratorINS_11__wrap_iterIPPN7testing9TestSuiteEEEEdeEv
FNDA:700,_ZNKSt3__116reverse_iteratorINS_11__wrap_iterIPPN7testing9TestSuiteEEEEdeEv
FN:128,_ZNKSt3__116reverse_iteratorINS_11__wrap_iterIPPN7testing11EnvironmentEEEEdeEv
FNDA:0,_ZNKSt3__116reverse_iteratorINS_11__wrap_iterIPPN7testing11EnvironmentEEEEdeEv
FN:132,_ZNSt3__116reverse_iteratorINS_11__wrap_iterIPPN7testing9TestSuiteEEEEppEv
FNDA:20,_ZNSt3__116reverse_iteratorINS_11__wrap_iterIPPN7testing9TestSuiteEEEEppEv
FN:132,_ZNSt3__116reverse_iteratorINS_11__wrap_iterIPPN7testing11EnvironmentEEEEppEv
FNDA:0,_ZNSt3__116reverse_iteratorINS_11__wrap_iterIPPN7testing11EnvironmentEEEEppEv
FN:170,_ZNSt3__1neINS_11__wrap_iterIPPN7testing9TestSuiteEEES6_EEbRKNS_16reverse_iteratorIT_EERKNS7_IT0_EE
FNDA:780,_ZNSt3__1neINS_11__wrap_iterIPPN7testing9TestSuiteEEES6_EEbRKNS_16reverse_iteratorIT_EERKNS7_IT0_EE
FN:170,_ZNSt3__1neINS_11__wrap_iterIPPN7testing11EnvironmentEEES6_EEbRKNS_16reverse_iteratorIT_EERKNS7_IT0_EE
FNDA:19,_ZNSt3__1neINS_11__wrap_iterIPPN7testing11EnvironmentEEES6_EEbRKNS_16reverse_iteratorIT_EERKNS7_IT0_EE
DA:79,2356
DA:126,1598
DA:128,700
DA:132,20
DA:170,799
DA:172,799
FNF:12
FNH:10
LF:6
LH:6
end_of_record
SF:/Library/Developer/CommandLineTools/SDKs/MacOSX12.3.sdk/usr/include/c++/v1/__split_buffer
FN:57,_ZNSt3__114__split_bufferIPcRNS_9allocatorIS1_EEE7__allocEv
FNDA:0,_ZNSt3__114__split_bufferIPcRNS_9allocatorIS1_EEE7__allocEv
FN:57,_ZNSt3__114__split_bufferINS_12basic_stringIcNS_11char_traitsIcEENS_9allocatorIcEEEERNS4_IS6_EEE7__allocEv
FNDA:156,_ZNSt3__114__split_bufferINS_12basic_stringIcNS_11char_traitsIcEENS_9allocatorIcEEEERNS4_IS6_EEE7__allocEv
FN:57,_ZNSt3__114__split_bufferIN7testing8internal13edit_distance8EditTypeERNS_9allocatorIS4_EEE7__allocEv
FNDA:0,_ZNSt3__114__split_bufferIN7testing8internal13edit_distance8EditTypeERNS_9allocatorIS4_EEE7__allocEv
FN:57,_ZNSt3__114__split_bufferImRNS_9allocatorImEEE7__allocEv
FNDA:0,_ZNSt3__114__split_bufferImRNS_9allocatorImEEE7__allocEv
FN:57,_ZNSt3__114__split_bufferIN7testing14TestPartResultERNS_9allocatorIS2_EEE7__allocEv
FNDA:0,_ZNSt3__114__split_bufferIN7testing14TestPartResultERNS_9allocatorIS2_EEE7__allocEv
FN:57,_ZNSt3__114__split_bufferIN7testing12TestPropertyERNS_9allocatorIS2_EEE7__allocEv
FNDA:0,_ZNSt3__114__split_bufferIN7testing12TestPropertyERNS_9allocatorIS2_EEE7__allocEv
FN:57,_ZNSt3__114__split_bufferIPN7testing8TestInfoERNS_9allocatorIS3_EEE7__allocEv
FNDA:640,_ZNSt3__114__split_bufferIPN7testing8TestInfoERNS_9allocatorIS3_EEE7__allocEv
FN:57,_ZNSt3__114__split_bufferIiRNS_9allocatorIiEEE7__allocEv
FNDA:169094,_ZNSt3__114__split_bufferIiRNS_9allocatorIiEEE7__allocEv
FN:57,_ZNSt3__114__split_bufferIPN7testing17TestEventListenerERNS_9allocatorIS3_EEE7__allocEv
FNDA:20,_ZNSt3__114__split_bufferIPN7testing17TestEventListenerERNS_9allocatorIS3_EEE7__allocEv
FN:57,_ZNSt3__114__split_bufferIPN7testing11EnvironmentERNS_9allocatorIS3_EEE7__allocEv
FNDA:0,_ZNSt3__114__split_bufferIPN7testing11EnvironmentERNS_9allocatorIS3_EEE7__allocEv
FN:57,_ZNSt3__114__split_bufferIN7testing8internal9TraceInfoERNS_9allocatorIS3_EEE7__allocEv
FNDA:0,_ZNSt3__114__split_bufferIN7testing8internal9TraceInfoERNS_9allocatorIS3_EEE7__allocEv
FN:57,_ZNSt3__114__split_bufferIPN7testing9TestSuiteERNS_9allocatorIS3_EEE7__allocEv
FNDA:80,_ZNSt3__114__split_bufferIPN7testing9TestSuiteERNS_9allocatorIS3_EEE7__allocEv
FN:59,_ZNSt3__114__split_bufferIPcRNS_9allocatorIS1_EEE9__end_capEv
FNDA:0,_ZNSt3__114__split_bufferIPcRNS_9allocatorIS1_EEE9__end_capEv
FN:59,_ZNSt3__114__split_bufferINS_12basic_stringIcNS_11char_traitsIcEENS_9allocatorIcEEEERNS4_IS6_EEE9__end_capEv
FNDA:118,_ZNSt3__114__split_bufferINS_12basic_stringIcNS_11char_traitsIcEENS_9allocatorIcEEEERNS4_IS6_EEE9__end_capEv
FN:59,_ZNSt3__114__split_bufferIN7testing8internal13edit_distance8EditTypeERNS_9allocatorIS4_EEE9__end_capEv
FNDA:0,_ZNSt3__114__split_bufferIN7testing8internal13edit_distance8EditTypeERNS_9allocatorIS4_EEE9__end_capEv
FN:59,_ZNSt3__114__split_bufferImRNS_9allocatorImEEE9__end_capEv
FNDA:0,_ZNSt3__114__split_bufferImRNS_9allocatorImEEE9__end_capEv
FN:59,_ZNSt3__114__split_bufferIN7testing14TestPartResultERNS_9allocatorIS2_EEE9__end_capEv
FNDA:0,_ZNSt3__114__split_bufferIN7testing14TestPartResultERNS_9allocatorIS2_EEE9__end_capEv
FN:59,_ZNSt3__114__split_bufferIN7testing12TestPropertyERNS_9allocatorIS2_EEE9__end_capEv
FNDA:0,_ZNSt3__114__split_bufferIN7testing12TestPropertyERNS_9allocatorIS2_EEE9__end_capEv
FN:59,_ZNSt3__114__split_bufferIPN7testing8TestInfoERNS_9allocatorIS3_EEE9__end_capEv
FNDA:320,_ZNSt3__114__split_bufferIPN7testing8TestInfoERNS_9allocatorIS3_EEE9__end_capEv
FN:59,_ZNSt3__114__split_bufferIiRNS_9allocatorIiEEE9__end_capEv
FNDA:6812,_ZNSt3__114__split_bufferIiRNS_9allocatorIiEEE9__end_capEv
FN:59,_ZNSt3__114__split_bufferIPN7testing17TestEventListenerERNS_9allocatorIS3_EEE9__end_capEv
FNDA:40,_ZNSt3__114__split_bufferIPN7testing17TestEventListenerERNS_9allocatorIS3_EEE9__end_capEv
FN:59,_ZNSt3__114__split_bufferIPN7testing11EnvironmentERNS_9allocatorIS3_EEE9__end_capEv
FNDA:0,_ZNSt3__114__split_bufferIPN7testing11EnvironmentERNS_9allocatorIS3_EEE9__end_capEv
FN:59,_ZNSt3__114__split_bufferIN7testing8internal9TraceInfoERNS_9allocatorIS3_EEE9__end_capEv
FNDA:0,_ZNSt3__114__split_bufferIN7testing8internal9TraceInfoERNS_9allocatorIS3_EEE9__end_capEv
FN:59,_ZNSt3__114__split_bufferIPN7testing9TestSuiteERNS_9allocatorIS3_EEE9__end_capEv
FNDA:80,_ZNSt3__114__split_bufferIPN7testing9TestSuiteERNS_9allocatorIS3_EEE9__end_capEv
FN:60,_ZNKSt3__114__split_bufferIPcRNS_9allocatorIS1_EEE9__end_capEv
FNDA:0,_ZNKSt3__114__split_bufferIPcRNS_9allocatorIS1_EEE9__end_capEv
FN:60,_ZNKSt3__114__split_bufferINS_12basic_stringIcNS_11char_traitsIcEENS_9allocatorIcEEEERNS4_IS6_EEE9__end_capEv
FNDA:39,_ZNKSt3__114__split_bufferINS_12basic_stringIcNS_11char_traitsIcEENS_9allocatorIcEEEERNS4_IS6_EEE9__end_capEv
FN:60,_ZNKSt3__114__split_bufferIN7testing8internal13edit_distance8EditTypeERNS_9allocatorIS4_EEE9__end_capEv
FNDA:0,_ZNKSt3__114__split_bufferIN7testing8internal13edit_distance8EditTypeERNS_9allocatorIS4_EEE9__end_capEv
FN:60,_ZNKSt3__114__split_bufferImRNS_9allocatorImEEE9__end_capEv
FNDA:0,_ZNKSt3__114__split_bufferImRNS_9allocatorImEEE9__end_capEv
FN:60,_ZNKSt3__114__split_bufferIN7testing14TestPartResultERNS_9allocatorIS2_EEE9__end_capEv
FNDA:0,_ZNKSt3__114__split_bufferIN7testing14TestPartResultERNS_9allocatorIS2_EEE9__end_capEv
FN:60,_ZNKSt3__114__split_bufferIN7testing12TestPropertyERNS_9allocatorIS2_EEE9__end_capEv
FNDA:0,_ZNKSt3__114__split_bufferIN7testing12TestPropertyERNS_9allocatorIS2_EEE9__end_capEv
FN:60,_ZNKSt3__114__split_bufferIPN7testing8TestInfoERNS_9allocatorIS3_EEE9__end_capEv
FNDA:120,_ZNKSt3__114__split_bufferIPN7testing8TestInfoERNS_9allocatorIS3_EEE9__end_capEv
FN:60,_ZNKSt3__114__split_bufferIiRNS_9allocatorIiEEE9__end_capEv
FNDA:2986,_ZNKSt3__114__split_bufferIiRNS_9allocatorIiEEE9__end_capEv
FN:60,_ZNKSt3__114__split_bufferIPN7testing17TestEventListenerERNS_9allocatorIS3_EEE9__end_capEv
FNDA:0,_ZNKSt3__114__split_bufferIPN7testing17TestEventListenerERNS_9allocatorIS3_EEE9__end_capEv
FN:60,_ZNKSt3__114__split_bufferIPN7testing11EnvironmentERNS_9allocatorIS3_EEE9__end_capEv
FNDA:0,_ZNKSt3__114__split_bufferIPN7testing11EnvironmentERNS_9allocatorIS3_EEE9__end_capEv
FN:60,_ZNKSt3__114__split_bufferIN7testing8internal9TraceInfoERNS_9allocatorIS3_EEE9__end_capEv
FNDA:0,_ZNKSt3__114__split_bufferIN7testing8internal9TraceInfoERNS_9allocatorIS3_EEE9__end_capEv
FN:60,_ZNKSt3__114__split_bufferIPN7testing9TestSuiteERNS_9allocatorIS3_EEE9__end_capEv
FNDA:20,_ZNKSt3__114__split_bufferIPN7testing9TestSuiteERNS_9allocatorIS3_EEE9__end_capEv
FN:86,_ZNSt3__114__split_bufferIPcRNS_9allocatorIS1_EEE5clearEv
FNDA:0,_ZNSt3__114__split_bufferIPcRNS_9allocatorIS1_EEE5clearEv
FN:86,_ZNSt3__114__split_bufferINS_12basic_stringIcNS_11char_traitsIcEENS_9allocatorIcEEEERNS4_IS6_EEE5clearEv
FNDA:59,_ZNSt3__114__split_bufferINS_12basic_stringIcNS_11char_traitsIcEENS_9allocatorIcEEEERNS4_IS6_EEE5clearEv
FN:86,_ZNSt3__114__split_bufferIN7testing8internal13edit_distance8EditTypeERNS_9allocatorIS4_EEE5clearEv
FNDA:0,_ZNSt3__114__split_bufferIN7testing8internal13edit_distance8EditTypeERNS_9allocatorIS4_EEE5clearEv
FN:86,_ZNSt3__114__split_bufferImRNS_9allocatorImEEE5clearEv
FNDA:0,_ZNSt3__114__split_bufferImRNS_9allocatorImEEE5clearEv
FN:86,_ZNSt3__114__split_bufferIN7testing14TestPartResultERNS_9allocatorIS2_EEE5clearEv
FNDA:0,_ZNSt3__114__split_bufferIN7testing14TestPartResultERNS_9allocatorIS2_EEE5clearEv
FN:86,_ZNSt3__114__split_bufferIN7testing12TestPropertyERNS_9allocatorIS2_EEE5clearEv
FNDA:0,_ZNSt3__114__split_bufferIN7testing12TestPropertyERNS_9allocatorIS2_EEE5clearEv
FN:86,_ZNSt3__114__split_bufferIPN7testing8TestInfoERNS_9allocatorIS3_EEE5clearEv
FNDA:160,_ZNSt3__114__split_bufferIPN7testing8TestInfoERNS_9allocatorIS3_EEE5clearEv
FN:86,_ZNSt3__114__split_bufferIiRNS_9allocatorIiEEE5clearEv
FNDA:3406,_ZNSt3__114__split_bufferIiRNS_9allocatorIiEEE5clearEv
FN:86,_ZNSt3__114__split_bufferIPN7testing17TestEventListenerERNS_9allocatorIS3_EEE5clearEv
FNDA:20,_ZNSt3__114__split_bufferIPN7testing17TestEventListenerERNS_9allocatorIS3_EEE5clearEv
FN:86,_ZNSt3__114__split_bufferIPN7testing11EnvironmentERNS_9allocatorIS3_EEE5clearEv
FNDA:0,_ZNSt3__114__split_bufferIPN7testing11EnvironmentERNS_9allocatorIS3_EEE5clearEv
FN:86,_ZNSt3__114__split_bufferIN7testing8internal9TraceInfoERNS_9allocatorIS3_EEE5clearEv
FNDA:0,_ZNSt3__114__split_bufferIN7testing8internal9TraceInfoERNS_9allocatorIS3_EEE5clearEv
FN:86,_ZNSt3__114__split_bufferIPN7testing9TestSuiteERNS_9allocatorIS3_EEE5clearEv
FNDA:40,_ZNSt3__114__split_bufferIPN7testing9TestSuiteERNS_9allocatorIS3_EEE5clearEv
FN:90,_ZNKSt3__114__split_bufferIPcRNS_9allocatorIS1_EEE8capacityEv
FNDA:0,_ZNKSt3__114__split_bufferIPcRNS_9allocatorIS1_EEE8capacityEv
FN:90,_ZNKSt3__114__split_bufferINS_12basic_stringIcNS_11char_traitsIcEENS_9allocatorIcEEEERNS4_IS6_EEE8capacityEv
FNDA:39,_ZNKSt3__114__split_bufferINS_12basic_stringIcNS_11char_traitsIcEENS_9allocatorIcEEEERNS4_IS6_EEE8capacityEv
FN:90,_ZNKSt3__114__split_bufferIN7testing8internal13edit_distance8EditTypeERNS_9allocatorIS4_EEE8capacityEv
FNDA:0,_ZNKSt3__114__split_bufferIN7testing8internal13edit_distance8EditTypeERNS_9allocatorIS4_EEE8capacityEv
FN:90,_ZNKSt3__114__split_bufferImRNS_9allocatorImEEE8capacityEv
FNDA:0,_ZNKSt3__114__split_bufferImRNS_9allocatorImEEE8capacityEv
FN:90,_ZNKSt3__114__split_bufferIN7testing14TestPartResultERNS_9allocatorIS2_EEE8capacityEv
FNDA:0,_ZNKSt3__114__split_bufferIN7testing14TestPartResultERNS_9allocatorIS2_EEE8capacityEv
FN:90,_ZNKSt3__114__split_bufferIN7testing12TestPropertyERNS_9allocatorIS2_EEE8capacityEv
FNDA:0,_ZNKSt3__114__split_bufferIN7testing12TestPropertyERNS_9allocatorIS2_EEE8capacityEv
FN:90,_ZNKSt3__114__split_bufferIPN7testing8TestInfoERNS_9allocatorIS3_EEE8capacityEv
FNDA:120,_ZNKSt3__114__split_bufferIPN7testing8TestInfoERNS_9allocatorIS3_EEE8capacityEv
FN:90,_ZNKSt3__114__split_bufferIiRNS_9allocatorIiEEE8capacityEv
FNDA:2986,_ZNKSt3__114__split_bufferIiRNS_9allocatorIiEEE8capacityEv
FN:90,_ZNKSt3__114__split_bufferIPN7testing17TestEventListenerERNS_9allocatorIS3_EEE8capacityEv
FNDA:0,_ZNKSt3__114__split_bufferIPN7testing17TestEventListenerERNS_9allocatorIS3_EEE8capacityEv
FN:90,_ZNKSt3__114__split_bufferIPN7testing11EnvironmentERNS_9allocatorIS3_EEE8capacityEv
FNDA:0,_ZNKSt3__114__split_bufferIPN7testing11EnvironmentERNS_9allocatorIS3_EEE8capacityEv
FN:90,_ZNKSt3__114__split_bufferIN7testing8internal9TraceInfoERNS_9allocatorIS3_EEE8capacityEv
FNDA:0,_ZNKSt3__114__split_bufferIN7testing8internal9TraceInfoERNS_9allocatorIS3_EEE8capacityEv
FN:90,_ZNKSt3__114__split_bufferIPN7testing9TestSuiteERNS_9allocatorIS3_EEE8capacityEv
FNDA:20,_ZNKSt3__114__split_bufferIPN7testing9TestSuiteERNS_9allocatorIS3_EEE8capacityEv
FN:137,_ZNSt3__114__split_bufferIPcRNS_9allocatorIS1_EEE17__destruct_at_endEPS1_
FNDA:0,_ZNSt3__114__split_bufferIPcRNS_9allocatorIS1_EEE17__destruct_at_endEPS1_
FN:137,_ZNSt3__114__split_bufferINS_12basic_stringIcNS_11char_traitsIcEENS_9allocatorIcEEEERNS4_IS6_EEE17__destruct_at_endEPS6_
FNDA:59,_ZNSt3__114__split_bufferINS_12basic_stringIcNS_11char_traitsIcEENS_9allocatorIcEEEERNS4_IS6_EEE17__destruct_at_endEPS6_
FN:137,_ZNSt3__114__split_bufferIN7testing8internal13edit_distance8EditTypeERNS_9allocatorIS4_EEE17__destruct_at_endEPS4_
FNDA:0,_ZNSt3__114__split_bufferIN7testing8internal13edit_distance8EditTypeERNS_9allocatorIS4_EEE17__destruct_at_endEPS4_
FN:137,_ZNSt3__114__split_bufferImRNS_9allocatorImEEE17__destruct_at_endEPm
FNDA:0,_ZNSt3__114__split_bufferImRNS_9allocatorImEEE17__destruct_at_endEPm
FN:137,_ZNSt3__114__split_bufferIN7testing14TestPartResultERNS_9allocatorIS2_EEE17__destruct_at_endEPS2_
FNDA:0,_ZNSt3__114__split_bufferIN7testing14TestPartResultERNS_9allocatorIS2_EEE17__destruct_at_endEPS2_
FN:137,_ZNSt3__114__split_bufferIN7testing12TestPropertyERNS_9allocatorIS2_EEE17__destruct_at_endEPS2_
FNDA:0,_ZNSt3__114__split_bufferIN7testing12TestPropertyERNS_9allocatorIS2_EEE17__destruct_at_endEPS2_
FN:137,_ZNSt3__114__split_bufferIPN7testing8TestInfoERNS_9allocatorIS3_EEE17__destruct_at_endEPS3_
FNDA:160,_ZNSt3__114__split_bufferIPN7testing8TestInfoERNS_9allocatorIS3_EEE17__destruct_at_endEPS3_
FN:137,_ZNSt3__114__split_bufferIiRNS_9allocatorIiEEE17__destruct_at_endEPi
FNDA:3406,_ZNSt3__114__split_bufferIiRNS_9allocatorIiEEE17__destruct_at_endEPi
FN:137,_ZNSt3__114__split_bufferIPN7testing17TestEventListenerERNS_9allocatorIS3_EEE17__destruct_at_endEPS3_
FNDA:20,_ZNSt3__114__split_bufferIPN7testing17TestEventListenerERNS_9allocatorIS3_EEE17__destruct_at_endEPS3_
FN:137,_ZNSt3__114__split_bufferIPN7testing11EnvironmentERNS_9allocatorIS3_EEE17__destruct_at_endEPS3_
FNDA:0,_ZNSt3__114__split_bufferIPN7testing11EnvironmentERNS_9allocatorIS3_EEE17__destruct_at_endEPS3_
FN:137,_ZNSt3__114__split_bufferIN7testing8internal9TraceInfoERNS_9allocatorIS3_EEE17__destruct_at_endEPS3_
FNDA:0,_ZNSt3__114__split_bufferIN7testing8internal9TraceInfoERNS_9allocatorIS3_EEE17__destruct_at_endEPS3_
FN:137,_ZNSt3__114__split_bufferIPN7testing9TestSuiteERNS_9allocatorIS3_EEE17__destruct_at_endEPS3_
FNDA:40,_ZNSt3__114__split_bufferIPN7testing9TestSuiteERNS_9allocatorIS3_EEE17__destruct_at_endEPS3_
FN:163,_ZNSt3__114__split_bufferIPcRNS_9allocatorIS1_EEE21_ConstructTransactionC1EPPS1_m
FNDA:0,_ZNSt3__114__split_bufferIPcRNS_9allocatorIS1_EEE21_ConstructTransactionC1EPPS1_m
FN:163,_ZNSt3__114__split_bufferIPcRNS_9allocatorIS1_EEE21_ConstructTransactionC2EPPS1_m
FNDA:0,_ZNSt3__114__split_bufferIPcRNS_9allocatorIS1_EEE21_ConstructTransactionC2EPPS1_m
FN:163,_ZNSt3__114__split_bufferIPN7testing9TestSuiteERNS_9allocatorIS3_EEE21_ConstructTransactionC1EPPS3_m
FNDA:0,_ZNSt3__114__split_bufferIPN7testing9TestSuiteERNS_9allocatorIS3_EEE21_ConstructTransactionC1EPPS3_m
FN:163,_ZNSt3__114__split_bufferIPN7testing9TestSuiteERNS_9allocatorIS3_EEE21_ConstructTransactionC2EPPS3_m
FNDA:0,_ZNSt3__114__split_bufferIPN7testing9TestSuiteERNS_9allocatorIS3_EEE21_ConstructTransactionC2EPPS3_m
FN:166,_ZNSt3__114__split_bufferIPcRNS_9allocatorIS1_EEE21_ConstructTransactionD1Ev
FNDA:0,_ZNSt3__114__split_bufferIPcRNS_9allocatorIS1_EEE21_ConstructTransactionD1Ev
FN:166,_ZNSt3__114__split_bufferIPcRNS_9allocatorIS1_EEE21_ConstructTransactionD2Ev
FNDA:0,_ZNSt3__114__split_bufferIPcRNS_9allocatorIS1_EEE21_ConstructTransactionD2Ev
FN:166,_ZNSt3__114__split_bufferIPN7testing9TestSuiteERNS_9allocatorIS3_EEE21_ConstructTransactionD1Ev
FNDA:0,_ZNSt3__114__split_bufferIPN7testing9TestSuiteERNS_9allocatorIS3_EEE21_ConstructTransactionD1Ev
FN:166,_ZNSt3__114__split_bufferIPN7testing9TestSuiteERNS_9allocatorIS3_EEE21_ConstructTransactionD2Ev
FNDA:0,_ZNSt3__114__split_bufferIPN7testing9TestSuiteERNS_9allocatorIS3_EEE21_ConstructTransactionD2Ev
FN:268,_ZNSt3__114__split_bufferIPcRNS_9allocatorIS1_EEE18__construct_at_endINS_13move_iteratorIPS1_EEEENS_9enable_ifIXsr27__is_cpp17_forward_iteratorIT_EE5valueEvE4typeESB_SB_
FNDA:0,_ZNSt3__114__split_bufferIPcRNS_9allocatorIS1_EEE18__construct_at_endINS_13move_iteratorIPS1_EEEENS_9enable_ifIXsr27__is_cpp17_forward_iteratorIT_EE5valueEvE4typeESB_SB_
FN:268,_ZNSt3__114__split_bufferIPN7testing9TestSuiteERNS_9allocatorIS3_EEE18__construct_at_endINS_13move_iteratorIPS3_EEEENS_9enable_ifIXsr27__is_cpp17_forward_iteratorIT_EE5valueEvE4typeESD_SD_
FNDA:0,_ZNSt3__114__split_bufferIPN7testing9TestSuiteERNS_9allocatorIS3_EEE18__construct_at_endINS_13move_iteratorIPS3_EEEENS_9enable_ifIXsr27__is_cpp17_forward_iteratorIT_EE5valueEvE4typeESD_SD_
FN:297,_ZNSt3__114__split_bufferIPcRNS_9allocatorIS1_EEE17__destruct_at_endEPS1_NS_17integral_constantIbLb0EEE
FNDA:0,_ZNSt3__114__split_bufferIPcRNS_9allocatorIS1_EEE17__destruct_at_endEPS1_NS_17integral_constantIbLb0EEE
FN:297,_ZNSt3__114__split_bufferINS_12basic_stringIcNS_11char_traitsIcEENS_9allocatorIcEEEERNS4_IS6_EEE17__destruct_at_endEPS6_NS_17integral_constantIbLb0EEE
FNDA:59,_ZNSt3__114__split_bufferINS_12basic_stringIcNS_11char_traitsIcEENS_9allocatorIcEEEERNS4_IS6_EEE17__destruct_at_endEPS6_NS_17integral_constantIbLb0EEE
FN:297,_ZNSt3__114__split_bufferIN7testing8internal13edit_distance8EditTypeERNS_9allocatorIS4_EEE17__destruct_at_endEPS4_NS_17integral_constantIbLb0EEE
FNDA:0,_ZNSt3__114__split_bufferIN7testing8internal13edit_distance8EditTypeERNS_9allocatorIS4_EEE17__destruct_at_endEPS4_NS_17integral_constantIbLb0EEE
FN:297,_ZNSt3__114__split_bufferImRNS_9allocatorImEEE17__destruct_at_endEPmNS_17integral_constantIbLb0EEE
FNDA:0,_ZNSt3__114__split_bufferImRNS_9allocatorImEEE17__destruct_at_endEPmNS_17integral_constantIbLb0EEE
FN:297,_ZNSt3__114__split_bufferIN7testing14TestPartResultERNS_9allocatorIS2_EEE17__destruct_at_endEPS2_NS_17integral_constantIbLb0EEE
FNDA:0,_ZNSt3__114__split_bufferIN7testing14TestPartResultERNS_9allocatorIS2_EEE17__destruct_at_endEPS2_NS_17integral_constantIbLb0EEE
FN:297,_ZNSt3__114__split_bufferIN7testing12TestPropertyERNS_9allocatorIS2_EEE17__destruct_at_endEPS2_NS_17integral_constantIbLb0EEE
FNDA:0,_ZNSt3__114__split_bufferIN7testing12TestPropertyERNS_9allocatorIS2_EEE17__destruct_at_endEPS2_NS_17integral_constantIbLb0EEE
FN:297,_ZNSt3__114__split_bufferIPN7testing8TestInfoERNS_9allocatorIS3_EEE17__destruct_at_endEPS3_NS_17integral_constantIbLb0EEE
FNDA:160,_ZNSt3__114__split_bufferIPN7testing8TestInfoERNS_9allocatorIS3_EEE17__destruct_at_endEPS3_NS_17integral_constantIbLb0EEE
FN:297,_ZNSt3__114__split_bufferIiRNS_9allocatorIiEEE17__destruct_at_endEPiNS_17integral_constantIbLb0EEE
FNDA:3406,_ZNSt3__114__split_bufferIiRNS_9allocatorIiEEE17__destruct_at_endEPiNS_17integral_constantIbLb0EEE
FN:297,_ZNSt3__114__split_bufferIPN7testing17TestEventListenerERNS_9allocatorIS3_EEE17__destruct_at_endEPS3_NS_17integral_constantIbLb0EEE
FNDA:20,_ZNSt3__114__split_bufferIPN7testing17TestEventListenerERNS_9allocatorIS3_EEE17__destruct_at_endEPS3_NS_17integral_constantIbLb0EEE
FN:297,_ZNSt3__114__split_bufferIPN7testing11EnvironmentERNS_9allocatorIS3_EEE17__destruct_at_endEPS3_NS_17integral_constantIbLb0EEE
FNDA:0,_ZNSt3__114__split_bufferIPN7testing11EnvironmentERNS_9allocatorIS3_EEE17__destruct_at_endEPS3_NS_17integral_constantIbLb0EEE
FN:297,_ZNSt3__114__split_bufferIN7testing8internal9TraceInfoERNS_9allocatorIS3_EEE17__destruct_at_endEPS3_NS_17integral_constantIbLb0EEE
FNDA:0,_ZNSt3__114__split_bufferIN7testing8internal9TraceInfoERNS_9allocatorIS3_EEE17__destruct_at_endEPS3_NS_17integral_constantIbLb0EEE
FN:297,_ZNSt3__114__split_bufferIPN7testing9TestSuiteERNS_9allocatorIS3_EEE17__destruct_at_endEPS3_NS_17integral_constantIbLb0EEE
FNDA:40,_ZNSt3__114__split_bufferIPN7testing9TestSuiteERNS_9allocatorIS3_EEE17__destruct_at_endEPS3_NS_17integral_constantIbLb0EEE
FN:312,_ZNSt3__114__split_bufferIPcRNS_9allocatorIS1_EEEC1EmmS4_
FNDA:0,_ZNSt3__114__split_bufferIPcRNS_9allocatorIS1_EEEC1EmmS4_
FN:312,_ZNSt3__114__split_bufferIPcRNS_9allocatorIS1_EEEC2EmmS4_
FNDA:0,_ZNSt3__114__split_bufferIPcRNS_9allocatorIS1_EEEC2EmmS4_
FN:312,_ZNSt3__114__split_bufferINS_12basic_stringIcNS_11char_traitsIcEENS_9allocatorIcEEEERNS4_IS6_EEEC1EmmS8_
FNDA:59,_ZNSt3__114__split_bufferINS_12basic_stringIcNS_11char_traitsIcEENS_9allocatorIcEEEERNS4_IS6_EEEC1EmmS8_
FN:312,_ZNSt3__114__split_bufferINS_12basic_stringIcNS_11char_traitsIcEENS_9allocatorIcEEEERNS4_IS6_EEEC2EmmS8_
FNDA:59,_ZNSt3__114__split_bufferINS_12basic_stringIcNS_11char_traitsIcEENS_9allocatorIcEEEERNS4_IS6_EEEC2EmmS8_
FN:312,_ZNSt3__114__split_bufferIN7testing8internal13edit_distance8EditTypeERNS_9allocatorIS4_EEEC1EmmS7_
FNDA:0,_ZNSt3__114__split_bufferIN7testing8internal13edit_distance8EditTypeERNS_9allocatorIS4_EEEC1EmmS7_
FN:312,_ZNSt3__114__split_bufferIN7testing8internal13edit_distance8EditTypeERNS_9allocatorIS4_EEEC2EmmS7_
FNDA:0,_ZNSt3__114__split_bufferIN7testing8internal13edit_distance8EditTypeERNS_9allocatorIS4_EEEC2EmmS7_
FN:312,_ZNSt3__114__split_bufferImRNS_9allocatorImEEEC1EmmS3_
FNDA:0,_ZNSt3__114__split_bufferImRNS_9allocatorImEEEC1EmmS3_
FN:312,_ZNSt3__114__split_bufferImRNS_9allocatorImEEEC2EmmS3_
FNDA:0,_ZNSt3__114__split_bufferImRNS_9allocatorImEEEC2EmmS3_
FN:312,_ZNSt3__114__split_bufferIN7testing14TestPartResultERNS_9allocatorIS2_EEEC1EmmS5_
FNDA:0,_ZNSt3__114__split_bufferIN7testing14TestPartResultERNS_9allocatorIS2_EEEC1EmmS5_
FN:312,_ZNSt3__114__split_bufferIN7testing14TestPartResultERNS_9allocatorIS2_EEEC2EmmS5_
FNDA:0,_ZNSt3__114__split_bufferIN7testing14TestPartResultERNS_9allocatorIS2_EEEC2EmmS5_
FN:312,_ZNSt3__114__split_bufferIN7testing12TestPropertyERNS_9allocatorIS2_EEEC1EmmS5_
FNDA:0,_ZNSt3__114__split_bufferIN7testing12TestPropertyERNS_9allocatorIS2_EEEC1EmmS5_
FN:312,_ZNSt3__114__split_bufferIN7testing12TestPropertyERNS_9allocatorIS2_EEEC2EmmS5_
FNDA:0,_ZNSt3__114__split_bufferIN7testing12TestPropertyERNS_9allocatorIS2_EEEC2EmmS5_
FN:312,_ZNSt3__114__split_bufferIPN7testing8TestInfoERNS_9allocatorIS3_EEEC1EmmS6_
FNDA:160,_ZNSt3__114__split_bufferIPN7testing8TestInfoERNS_9allocatorIS3_EEEC1EmmS6_
FN:312,_ZNSt3__114__split_bufferIPN7testing8TestInfoERNS_9allocatorIS3_EEEC2EmmS6_
FNDA:160,_ZNSt3__114__split_bufferIPN7testing8TestInfoERNS_9allocatorIS3_EEEC2EmmS6_
FN:312,_ZNSt3__114__split_bufferIiRNS_9allocatorIiEEEC1EmmS3_
FNDA:3406,_ZNSt3__114__split_bufferIiRNS_9allocatorIiEEEC1EmmS3_
FN:312,_ZNSt3__114__split_bufferIiRNS_9allocatorIiEEEC2EmmS3_
FNDA:3406,_ZNSt3__114__split_bufferIiRNS_9allocatorIiEEEC2EmmS3_
FN:312,_ZNSt3__114__split_bufferIPN7testing17TestEventListenerERNS_9allocatorIS3_EEEC1EmmS6_
FNDA:20,_ZNSt3__114__split_bufferIPN7testing17TestEventListenerERNS_9allocatorIS3_EEEC1EmmS6_
FN:312,_ZNSt3__114__split_bufferIPN7testing17TestEventListenerERNS_9allocatorIS3_EEEC2EmmS6_
FNDA:20,_ZNSt3__114__split_bufferIPN7testing17TestEventListenerERNS_9allocatorIS3_EEEC2EmmS6_
FN:312,_ZNSt3__114__split_bufferIPN7testing11EnvironmentERNS_9allocatorIS3_EEEC1EmmS6_
FNDA:0,_ZNSt3__114__split_bufferIPN7testing11EnvironmentERNS_9allocatorIS3_EEEC1EmmS6_
FN:312,_ZNSt3__114__split_bufferIPN7testing11EnvironmentERNS_9allocatorIS3_EEEC2EmmS6_
FNDA:0,_ZNSt3__114__split_bufferIPN7testing11EnvironmentERNS_9allocatorIS3_EEEC2EmmS6_
FN:312,_ZNSt3__114__split_bufferIN7testing8internal9TraceInfoERNS_9allocatorIS3_EEEC1EmmS6_
FNDA:0,_ZNSt3__114__split_bufferIN7testing8internal9TraceInfoERNS_9allocatorIS3_EEEC1EmmS6_
FN:312,_ZNSt3__114__split_bufferIN7testing8internal9TraceInfoERNS_9allocatorIS3_EEEC2EmmS6_
FNDA:0,_ZNSt3__114__split_bufferIN7testing8internal9TraceInfoERNS_9allocatorIS3_EEEC2EmmS6_
FN:312,_ZNSt3__114__split_bufferIPN7testing9TestSuiteERNS_9allocatorIS3_EEEC1EmmS6_
FNDA:40,_ZNSt3__114__split_bufferIPN7testing9TestSuiteERNS_9allocatorIS3_EEEC1EmmS6_
FN:312,_ZNSt3__114__split_bufferIPN7testing9TestSuiteERNS_9allocatorIS3_EEEC2EmmS6_
FNDA:40,_ZNSt3__114__split_bufferIPN7testing9TestSuiteERNS_9allocatorIS3_EEEC2EmmS6_
FN:343,_ZNSt3__114__split_bufferIPcRNS_9allocatorIS1_EEED1Ev
FNDA:0,_ZNSt3__114__split_bufferIPcRNS_9allocatorIS1_EEED1Ev
FN:343,_ZNSt3__114__split_bufferIPcRNS_9allocatorIS1_EEED2Ev
FNDA:0,_ZNSt3__114__split_bufferIPcRNS_9allocatorIS1_EEED2Ev
FN:343,_ZNSt3__114__split_bufferINS_12basic_stringIcNS_11char_traitsIcEENS_9allocatorIcEEEERNS4_IS6_EEED1Ev
FNDA:59,_ZNSt3__114__split_bufferINS_12basic_stringIcNS_11char_traitsIcEENS_9allocatorIcEEEERNS4_IS6_EEED1Ev
FN:343,_ZNSt3__114__split_bufferINS_12basic_stringIcNS_11char_traitsIcEENS_9allocatorIcEEEERNS4_IS6_EEED2Ev
FNDA:59,_ZNSt3__114__split_bufferINS_12basic_stringIcNS_11char_traitsIcEENS_9allocatorIcEEEERNS4_IS6_EEED2Ev
FN:343,_ZNSt3__114__split_bufferIN7testing8internal13edit_distance8EditTypeERNS_9allocatorIS4_EEED1Ev
FNDA:0,_ZNSt3__114__split_bufferIN7testing8internal13edit_distance8EditTypeERNS_9allocatorIS4_EEED1Ev
FN:343,_ZNSt3__114__split_bufferIN7testing8internal13edit_distance8EditTypeERNS_9allocatorIS4_EEED2Ev
FNDA:0,_ZNSt3__114__split_bufferIN7testing8internal13edit_distance8EditTypeERNS_9allocatorIS4_EEED2Ev
FN:343,_ZNSt3__114__split_bufferImRNS_9allocatorImEEED1Ev
FNDA:0,_ZNSt3__114__split_bufferImRNS_9allocatorImEEED1Ev
FN:343,_ZNSt3__114__split_bufferImRNS_9allocatorImEEED2Ev
FNDA:0,_ZNSt3__114__split_bufferImRNS_9allocatorImEEED2Ev
FN:343,_ZNSt3__114__split_bufferIN7testing14TestPartResultERNS_9allocatorIS2_EEED1Ev
FNDA:0,_ZNSt3__114__split_bufferIN7testing14TestPartResultERNS_9allocatorIS2_EEED1Ev
FN:343,_ZNSt3__114__split_bufferIN7testing14TestPartResultERNS_9allocatorIS2_EEED2Ev
FNDA:0,_ZNSt3__114__split_bufferIN7testing14TestPartResultERNS_9allocatorIS2_EEED2Ev
FN:343,_ZNSt3__114__split_bufferIN7testing12TestPropertyERNS_9allocatorIS2_EEED1Ev
FNDA:0,_ZNSt3__114__split_bufferIN7testing12TestPropertyERNS_9allocatorIS2_EEED1Ev
FN:343,_ZNSt3__114__split_bufferIN7testing12TestPropertyERNS_9allocatorIS2_EEED2Ev
FNDA:0,_ZNSt3__114__split_bufferIN7testing12TestPropertyERNS_9allocatorIS2_EEED2Ev
FN:343,_ZNSt3__114__split_bufferIPN7testing8TestInfoERNS_9allocatorIS3_EEED1Ev
FNDA:160,_ZNSt3__114__split_bufferIPN7testing8TestInfoERNS_9allocatorIS3_EEED1Ev
FN:343,_ZNSt3__114__split_bufferIPN7testing8TestInfoERNS_9allocatorIS3_EEED2Ev
FNDA:160,_ZNSt3__114__split_bufferIPN7testing8TestInfoERNS_9allocatorIS3_EEED2Ev
FN:343,_ZNSt3__114__split_bufferIiRNS_9allocatorIiEEED1Ev
FNDA:3406,_ZNSt3__114__split_bufferIiRNS_9allocatorIiEEED1Ev
FN:343,_ZNSt3__114__split_bufferIiRNS_9allocatorIiEEED2Ev
FNDA:3406,_ZNSt3__114__split_bufferIiRNS_9allocatorIiEEED2Ev
FN:343,_ZNSt3__114__split_bufferIPN7testing17TestEventListenerERNS_9allocatorIS3_EEED1Ev
FNDA:20,_ZNSt3__114__split_bufferIPN7testing17TestEventListenerERNS_9allocatorIS3_EEED1Ev
FN:343,_ZNSt3__114__split_bufferIPN7testing17TestEventListenerERNS_9allocatorIS3_EEED2Ev
FNDA:20,_ZNSt3__114__split_bufferIPN7testing17TestEventListenerERNS_9allocatorIS3_EEED2Ev
FN:343,_ZNSt3__114__split_bufferIPN7testing11EnvironmentERNS_9allocatorIS3_EEED1Ev
FNDA:0,_ZNSt3__114__split_bufferIPN7testing11EnvironmentERNS_9allocatorIS3_EEED1Ev
FN:343,_ZNSt3__114__split_bufferIPN7testing11EnvironmentERNS_9allocatorIS3_EEED2Ev
FNDA:0,_ZNSt3__114__split_bufferIPN7testing11EnvironmentERNS_9allocatorIS3_EEED2Ev
FN:343,_ZNSt3__114__split_bufferIN7testing8internal9TraceInfoERNS_9allocatorIS3_EEED1Ev
FNDA:0,_ZNSt3__114__split_bufferIN7testing8internal9TraceInfoERNS_9allocatorIS3_EEED1Ev
FN:343,_ZNSt3__114__split_bufferIN7testing8internal9TraceInfoERNS_9allocatorIS3_EEED2Ev
FNDA:0,_ZNSt3__114__split_bufferIN7testing8internal9TraceInfoERNS_9allocatorIS3_EEED2Ev
FN:343,_ZNSt3__114__split_bufferIPN7testing9TestSuiteERNS_9allocatorIS3_EEED1Ev
FNDA:40,_ZNSt3__114__split_bufferIPN7testing9TestSuiteERNS_9allocatorIS3_EEED1Ev
FN:343,_ZNSt3__114__split_bufferIPN7testing9TestSuiteERNS_9allocatorIS3_EEED2Ev
FNDA:40,_ZNSt3__114__split_bufferIPN7testing9TestSuiteERNS_9allocatorIS3_EEED2Ev
FN:528,_ZNSt3__114__split_bufferIPN7testing9TestSuiteERNS_9allocatorIS3_EEE9push_backERKS3_
FNDA:0,_ZNSt3__114__split_bufferIPN7testing9TestSuiteERNS_9allocatorIS3_EEE9push_backERKS3_
FN:557,_ZNSt3__114__split_bufferIPcRNS_9allocatorIS1_EEE9push_backEOS1_
FNDA:0,_ZNSt3__114__split_bufferIPcRNS_9allocatorIS1_EEE9push_backEOS1_
DA:57,169990
DA:59,7370
DA:60,3165
DA:86,3685
DA:87,3685
DA:90,3165
DA:137,3685
DA:138,3685
DA:163,0
DA:164,0
DA:165,0
DA:166,0
DA:167,0
DA:168,0
DA:268,0
DA:270,0
DA:271,0
DA:272,0
DA:273,0
DA:274,0
DA:275,0
DA:297,3685
DA:299,166825
DA:300,163140
DA:301,3685
DA:312,7370
DA:313,3685
DA:314,7370
DA:315,3685
DA:316,3685
DA:317,3685
DA:318,7370
DA:343,7370
DA:344,3685
DA:345,3685
DA:346,3685
DA:347,3165
DA:348,7370
DA:528,0
DA:530,0
DA:532,0
DA:534,0
DA:535,0
DA:536,0
DA:537,0
DA:538,0
DA:541,0
DA:542,0
DA:543,0
DA:544,0
DA:545,0
DA:546,0
DA:547,0
DA:548,0
DA:549,0
DA:550,0
DA:551,0
DA:552,0
DA:553,0
DA:557,0
DA:559,0
DA:561,0
DA:563,0
DA:564,0
DA:565,0
DA:566,0
DA:567,0
DA:570,0
DA:571,0
DA:572,0
DA:573,0
DA:574,0
DA:575,0
DA:576,0
DA:577,0
DA:578,0
DA:579,0
DA:580,0
DA:581,0
DA:582,0
DA:583,0
FNF:144
FNH:53
LF:81
LH:25
end_of_record
SF:/Library/Developer/CommandLineTools/SDKs/MacOSX12.3.sdk/usr/include/c++/v1/sstream
FN:227,_ZNSt3__115basic_stringbufIcNS_11char_traitsIcEENS_9allocatorIcEEEC1Ej
FNDA:1088,_ZNSt3__115basic_stringbufIcNS_11char_traitsIcEENS_9allocatorIcEEEC1Ej
FN:227,_ZNSt3__115basic_stringbufIcNS_11char_traitsIcEENS_9allocatorIcEEEC2Ej
FNDA:1088,_ZNSt3__115basic_stringbufIcNS_11char_traitsIcEENS_9allocatorIcEEEC2Ej
FN:721,_ZNSt3__119basic_ostringstreamIcNS_11char_traitsIcEENS_9allocatorIcEEEC1Ev
FNDA:0,_ZNSt3__119basic_ostringstreamIcNS_11char_traitsIcEENS_9allocatorIcEEEC1Ev
FN:762,_ZNKSt3__119basic_ostringstreamIcNS_11char_traitsIcEENS_9allocatorIcEEE3strEv
FNDA:0,_ZNKSt3__119basic_ostringstreamIcNS_11char_traitsIcEENS_9allocatorIcEEE3strEv
FN:802,_ZNSt3__118basic_stringstreamIcNS_11char_traitsIcEENS_9allocatorIcEEEC1Ev
FNDA:1088,_ZNSt3__118basic_stringstreamIcNS_11char_traitsIcEENS_9allocatorIcEEEC1Ev
FN:842,_ZNKSt3__118basic_stringstreamIcNS_11char_traitsIcEENS_9allocatorIcEEE3strEv
FNDA:1088,_ZNKSt3__118basic_stringstreamIcNS_11char_traitsIcEENS_9allocatorIcEEE3strEv
FN:861,_ZNSt3__115basic_stringbufIcNS_11char_traitsIcEENS_9allocatorIcEEED1Ev
FNDA:0,_ZNSt3__115basic_stringbufIcNS_11char_traitsIcEENS_9allocatorIcEEED1Ev
FN:861,_ZNSt3__115basic_stringbufIcNS_11char_traitsIcEENS_9allocatorIcEEED2Ev
FNDA:0,_ZNSt3__115basic_stringbufIcNS_11char_traitsIcEENS_9allocatorIcEEED2Ev
FN:862,_ZNSt3__118basic_stringstreamIcNS_11char_traitsIcEENS_9allocatorIcEEED1Ev
FNDA:0,_ZNSt3__118basic_stringstreamIcNS_11char_traitsIcEENS_9allocatorIcEEED1Ev
FN:862,_ZNSt3__118basic_stringstreamIcNS_11char_traitsIcEENS_9allocatorIcEEED2Ev
FNDA:0,_ZNSt3__118basic_stringstreamIcNS_11char_traitsIcEENS_9allocatorIcEEED2Ev
FN:863,_ZNSt3__119basic_ostringstreamIcNS_11char_traitsIcEENS_9allocatorIcEEED1Ev
FNDA:0,_ZNSt3__119basic_ostringstreamIcNS_11char_traitsIcEENS_9allocatorIcEEED1Ev
FN:863,_ZNSt3__119basic_ostringstreamIcNS_11char_traitsIcEENS_9allocatorIcEEED2Ev
FNDA:0,_ZNSt3__119basic_ostringstreamIcNS_11char_traitsIcEENS_9allocatorIcEEED2Ev
DA:227,4352
DA:228,4352
DA:721,0
DA:722,0
DA:762,0
DA:763,0
DA:802,2176
DA:803,2176
DA:842,1088
DA:843,1088
FNF:12
FNH:4
LF:10
LH:6
end_of_record
SF:/Library/Developer/CommandLineTools/SDKs/MacOSX12.3.sdk/usr/include/c++/v1/set
FN:502,_ZNSt3__13setINS_12basic_stringIcNS_11char_traitsIcEENS_9allocatorIcEEEENS_4lessIS6_EENS4_IS6_EEEC1Ev
FNDA:20,_ZNSt3__13setINS_12basic_stringIcNS_11char_traitsIcEENS_9allocatorIcEEEENS_4lessIS6_EENS4_IS6_EEEC1Ev
FN:502,_ZNSt3__13setINS_12basic_stringIcNS_11char_traitsIcEENS_9allocatorIcEEEENS_4lessIS6_EENS4_IS6_EEEC2Ev
FNDA:20,_ZNSt3__13setINS_12basic_stringIcNS_11char_traitsIcEENS_9allocatorIcEEEENS_4lessIS6_EENS4_IS6_EEEC2Ev
FN:617,_ZNSt3__13setINS_12basic_stringIcNS_11char_traitsIcEENS_9allocatorIcEEEENS_4lessIS6_EENS4_IS6_EEED1Ev
FNDA:0,_ZNSt3__13setINS_12basic_stringIcNS_11char_traitsIcEENS_9allocatorIcEEEENS_4lessIS6_EENS4_IS6_EEED1Ev
FN:617,_ZNSt3__13setINS_12basic_stringIcNS_11char_traitsIcEENS_9allocatorIcEEEENS_4lessIS6_EENS4_IS6_EEED2Ev
FNDA:0,_ZNSt3__13setINS_12basic_stringIcNS_11char_traitsIcEENS_9allocatorIcEEEENS_4lessIS6_EENS4_IS6_EEED2Ev
FN:628,_ZNKSt3__13setINS_12basic_stringIcNS_11char_traitsIcEENS_9allocatorIcEEEENS_4lessIS6_EENS4_IS6_EEE3endEv
FNDA:0,_ZNKSt3__13setINS_12basic_stringIcNS_11char_traitsIcEENS_9allocatorIcEEEENS_4lessIS6_EENS4_IS6_EEE3endEv
FN:672,_ZNSt3__13setINS_12basic_stringIcNS_11char_traitsIcEENS_9allocatorIcEEEENS_4lessIS6_EENS4_IS6_EEE6insertERKS6_
FNDA:0,_ZNSt3__13setINS_12basic_stringIcNS_11char_traitsIcEENS_9allocatorIcEEEENS_4lessIS6_EENS4_IS6_EEE6insertERKS6_
FN:688,_ZNSt3__13setINS_12basic_stringIcNS_11char_traitsIcEENS_9allocatorIcEEEENS_4lessIS6_EENS4_IS6_EEE6insertEOS6_
FNDA:0,_ZNSt3__13setINS_12basic_stringIcNS_11char_traitsIcEENS_9allocatorIcEEEENS_4lessIS6_EENS4_IS6_EEE6insertEOS6_
FN:787,_ZNKSt3__13setINS_12basic_stringIcNS_11char_traitsIcEENS_9allocatorIcEEEENS_4lessIS6_EENS4_IS6_EEE4findERKS6_
FNDA:0,_ZNKSt3__13setINS_12basic_stringIcNS_11char_traitsIcEENS_9allocatorIcEEEENS_4lessIS6_EENS4_IS6_EEE4findERKS6_
FN:800,_ZNKSt3__13setINS_12basic_stringIcNS_11char_traitsIcEENS_9allocatorIcEEEENS_4lessIS6_EENS4_IS6_EEE5countERKS6_
FNDA:0,_ZNKSt3__13setINS_12basic_stringIcNS_11char_traitsIcEENS_9allocatorIcEEEENS_4lessIS6_EENS4_IS6_EEE5countERKS6_
DA:502,40
DA:507,40
DA:617,0
DA:619,0
DA:628,0
DA:672,0
DA:673,0
DA:688,0
DA:689,0
DA:787,0
DA:800,0
DA:801,0
FNF:9
FNH:2
LF:12
LH:2
end_of_record
SF:/Library/Developer/CommandLineTools/SDKs/MacOSX12.3.sdk/usr/include/c++/v1/__string
FN:333,_ZNSt3__111char_traitsIcE6assignERcRKc
FNDA:0,_ZNSt3__111char_traitsIcE6assignERcRKc
FN:342,_ZNSt3__111char_traitsIcE6lengthEPKc
FNDA:0,_ZNSt3__111char_traitsIcE6lengthEPKc
FN:372,_ZNSt3__111char_traitsIcE11to_int_typeEc
FNDA:0,_ZNSt3__111char_traitsIcE11to_int_typeEc
FN:374,_ZNSt3__111char_traitsIcE11eq_int_typeEii
FNDA:0,_ZNSt3__111char_traitsIcE11eq_int_typeEii
FN:376,_ZNSt3__111char_traitsIcE3eofEv
FNDA:0,_ZNSt3__111char_traitsIcE3eofEv
FN:382,_ZNSt3__111char_traitsIcE7compareEPKcS3_m
FNDA:0,_ZNSt3__111char_traitsIcE7compareEPKcS3_m
FN:404,_ZNSt3__111char_traitsIcE4findEPKcmRS2_
FNDA:0,_ZNSt3__111char_traitsIcE4findEPKcmRS2_
FN:485,_ZNSt3__111char_traitsIwE7compareEPKwS3_m
FNDA:0,_ZNSt3__111char_traitsIwE7compareEPKwS3_m
FN:507,_ZNSt3__111char_traitsIwE6lengthEPKw
FNDA:0,_ZNSt3__111char_traitsIwE6lengthEPKw
FN:523,_ZNSt3__111char_traitsIwE4findEPKwmRS2_
FNDA:0,_ZNSt3__111char_traitsIwE4findEPKwmRS2_
FN:925,_ZNSt3__118__search_substringIcNS_11char_traitsIcEEEEPKT_S5_S5_S5_S5_
FNDA:0,_ZNSt3__118__search_substringIcNS_11char_traitsIcEEEEPKT_S5_S5_S5_S5_
FN:925,_ZNSt3__118__search_substringIwNS_11char_traitsIwEEEEPKT_S5_S5_S5_S5_
FNDA:0,_ZNSt3__118__search_substringIwNS_11char_traitsIwEEEEPKT_S5_S5_S5_S5_
FN:964,_ZNSt3__1L10__str_findIcmNS_11char_traitsIcEELm18446744073709551615EEET0_PKT_S3_S6_S3_S3_
FNDA:0,_ZNSt3__1L10__str_findIcmNS_11char_traitsIcEELm18446744073709551615EEET0_PKT_S3_S6_S3_S3_
FN:964,_ZNSt3__1L10__str_findIwmNS_11char_traitsIwEELm18446744073709551615EEET0_PKT_S3_S6_S3_S3_
FNDA:0,_ZNSt3__1L10__str_findIwmNS_11char_traitsIwEELm18446744073709551615EEET0_PKT_S3_S6_S3_S3_
DA:333,0
DA:342,0
DA:372,0
DA:373,0
DA:374,0
DA:375,0
DA:376,0
DA:377,0
DA:382,0
DA:384,0
DA:385,0
DA:387,0
DA:400,0
DA:404,0
DA:406,0
DA:407,0
DA:409,0
DA:421,0
DA:485,0
DA:487,0
DA:488,0
DA:490,0
DA:503,0
DA:507,0
DA:510,0
DA:523,0
DA:525,0
DA:526,0
DA:528,0
DA:540,0
DA:925,0
DA:929,0
DA:930,0
DA:931,0
DA:933,0
DA:934,0
DA:935,0
DA:938,0
DA:939,0
DA:940,0
DA:942,0
DA:943,0
DA:946,0
DA:947,0
DA:948,0
DA:955,0
DA:956,0
DA:958,0
DA:960,0
DA:964,0
DA:967,0
DA:968,0
DA:970,0
DA:971,0
DA:973,0
DA:974,0
DA:976,0
DA:977,0
DA:978,0
DA:979,0
FNF:14
FNH:0
LF:60
LH:0
end_of_record
SF:/Library/Developer/CommandLineTools/SDKs/MacOSX12.3.sdk/usr/include/c++/v1/__algorithm/reverse.h
FN:42,_ZNSt3__1L9__reverseINS_11__wrap_iterIPN7testing8internal13edit_distance8EditTypeEEEEEvT_S8_NS_26random_access_iterator_tagE
FNDA:0,_ZNSt3__1L9__reverseINS_11__wrap_iterIPN7testing8internal13edit_distance8EditTypeEEEEEvT_S8_NS_26random_access_iterator_tagE
FN:52,_ZNSt3__1L7reverseINS_11__wrap_iterIPN7testing8internal13edit_distance8EditTypeEEEEEvT_S8_
FNDA:0,_ZNSt3__1L7reverseINS_11__wrap_iterIPN7testing8internal13edit_distance8EditTypeEEEEEvT_S8_
DA:42,0
DA:44,0
DA:45,0
DA:46,0
DA:47,0
DA:52,0
DA:54,0
DA:55,0
FNF:2
FNH:0
LF:8
LH:0
end_of_record
SF:/Users/dogukanarat/Desktop/Workspace/RocketLab/Binaries/Debug/Intermediate/_deps/googletest-src/googletest/src/gtest-test-part.cc
FN:44,_ZN7testing14TestPartResult14ExtractSummaryEPKc
FNDA:0,_ZN7testing14TestPartResult14ExtractSummaryEPKc
FN:50,_ZN7testinglsERNSt3__113basic_ostreamIcNS0_11char_traitsIcEEEERKNS_14TestPartResultE
FNDA:0,_ZN7testinglsERNSt3__113basic_ostreamIcNS0_11char_traitsIcEEEERKNS_14TestPartResultE
FN:66,_ZN7testing19TestPartResultArray6AppendERKNS_14TestPartResultE
FNDA:0,_ZN7testing19TestPartResultArray6AppendERKNS_14TestPartResultE
FN:71,_ZNK7testing19TestPartResultArray17GetTestPartResultEi
FNDA:0,_ZNK7testing19TestPartResultArray17GetTestPartResultEi
FN:81,_ZNK7testing19TestPartResultArray4sizeEv
FNDA:0,_ZNK7testing19TestPartResultArray4sizeEv
FN:87,_ZN7testing8internal24HasNewFatalFailureHelperC2Ev
FNDA:0,_ZN7testing8internal24HasNewFatalFailureHelperC2Ev
FN:87,_ZN7testing8internal24HasNewFatalFailureHelperC1Ev
FNDA:0,_ZN7testing8internal24HasNewFatalFailureHelperC1Ev
FN:94,_ZN7testing8internal24HasNewFatalFailureHelperD2Ev
FNDA:0,_ZN7testing8internal24HasNewFatalFailureHelperD2Ev
FN:94,_ZN7testing8internal24HasNewFatalFailureHelperD1Ev
FNDA:0,_ZN7testing8internal24HasNewFatalFailureHelperD1Ev
FN:94,_ZN7testing8internal24HasNewFatalFailureHelperD0Ev
FNDA:0,_ZN7testing8internal24HasNewFatalFailureHelperD0Ev
FN:99,_ZN7testing8internal24HasNewFatalFailureHelper20ReportTestPartResultERKNS_14TestPartResultE
FNDA:0,_ZN7testing8internal24HasNewFatalFailureHelper20ReportTestPartResultERKNS_14TestPartResultE
DA:44,0
DA:45,0
DA:46,0
DA:50,0
DA:51,0
DA:52,0
DA:53,0
DA:54,0
DA:56,0
DA:58,0
DA:61,0
DA:62,0
DA:63,0
DA:66,0
DA:67,0
DA:68,0
DA:71,0
DA:72,0
DA:73,0
DA:74,0
DA:77,0
DA:81,0
DA:82,0
DA:87,0
DA:88,0
DA:89,0
DA:90,0
DA:91,0
DA:92,0
DA:94,0
DA:95,0
DA:96,0
DA:97,0
DA:99,0
DA:101,0
DA:102,0
DA:103,0
DA:104,0
FNF:11
FNH:0
LF:38
LH:0
end_of_record
SF:/Library/Developer/CommandLineTools/SDKs/MacOSX12.3.sdk/usr/include/c++/v1/__utility/swap.h
FN:36,_ZNSt3__1L4swapIbEENS_9enable_ifIXaasr21is_move_constructibleIT_EE5valuesr18is_move_assignableIS2_EE5valueEvE4typeERS2_S5_
FNDA:0,_ZNSt3__1L4swapIbEENS_9enable_ifIXaasr21is_move_constructibleIT_EE5valuesr18is_move_assignableIS2_EE5valueEvE4typeERS2_S5_
FN:36,_ZNSt3__1L4swapIPPcEENS_9enable_ifIXaasr21is_move_constructibleIT_EE5valuesr18is_move_assignableIS4_EE5valueEvE4typeERS4_S7_
FNDA:0,_ZNSt3__1L4swapIPPcEENS_9enable_ifIXaasr21is_move_constructibleIT_EE5valuesr18is_move_assignableIS4_EE5valueEvE4typeERS4_S7_
FN:36,_ZNSt3__1L4swapIPNS_12basic_stringIcNS_11char_traitsIcEENS_9allocatorIcEEEEEENS_9enable_ifIXaasr21is_move_constructibleIT_EE5valuesr18is_move_assignableIS9_EE5valueEvE4typeERS9_SC_
FNDA:177,_ZNSt3__1L4swapIPNS_12basic_stringIcNS_11char_traitsIcEENS_9allocatorIcEEEEEENS_9enable_ifIXaasr21is_move_constructibleIT_EE5valuesr18is_move_assignableIS9_EE5valueEvE4typeERS9_SC_
FN:36,_ZNSt3__1L4swapINS_14default_deleteINS_12basic_stringIcNS_11char_traitsIcEENS_9allocatorIcEEEEEEEENS_9enable_ifIXaasr21is_move_constructibleIT_EE5valuesr18is_move_assignableISA_EE5valueEvE4typeERSA_SD_
FNDA:0,_ZNSt3__1L4swapINS_14default_deleteINS_12basic_stringIcNS_11char_traitsIcEENS_9allocatorIcEEEEEEEENS_9enable_ifIXaasr21is_move_constructibleIT_EE5valuesr18is_move_assignableISA_EE5valueEvE4typeERSA_SD_
FN:36,_ZNSt3__1L4swapIPN7testing8internal13edit_distance8EditTypeEEENS_9enable_ifIXaasr21is_move_constructibleIT_EE5valuesr18is_move_assignableIS7_EE5valueEvE4typeERS7_SA_
FNDA:0,_ZNSt3__1L4swapIPN7testing8internal13edit_distance8EditTypeEEENS_9enable_ifIXaasr21is_move_constructibleIT_EE5valuesr18is_move_assignableIS7_EE5valueEvE4typeERS7_SA_
FN:36,_ZNSt3__1L4swapIN7testing8internal13edit_distance8EditTypeEEENS_9enable_ifIXaasr21is_move_constructibleIT_EE5valuesr18is_move_assignableIS6_EE5valueEvE4typeERS6_S9_
FNDA:0,_ZNSt3__1L4swapIN7testing8internal13edit_distance8EditTypeEEENS_9enable_ifIXaasr21is_move_constructibleIT_EE5valuesr18is_move_assignableIS6_EE5valueEvE4typeERS6_S9_
FN:36,_ZNSt3__1L4swapIPmEENS_9enable_ifIXaasr21is_move_constructibleIT_EE5valuesr18is_move_assignableIS3_EE5valueEvE4typeERS3_S6_
FNDA:0,_ZNSt3__1L4swapIPmEENS_9enable_ifIXaasr21is_move_constructibleIT_EE5valuesr18is_move_assignableIS3_EE5valueEvE4typeERS3_S6_
FN:36,_ZNSt3__1L4swapIPN7testing14TestPartResultEEENS_9enable_ifIXaasr21is_move_constructibleIT_EE5valuesr18is_move_assignableIS5_EE5valueEvE4typeERS5_S8_
FNDA:0,_ZNSt3__1L4swapIPN7testing14TestPartResultEEENS_9enable_ifIXaasr21is_move_constructibleIT_EE5valuesr18is_move_assignableIS5_EE5valueEvE4typeERS5_S8_
FN:36,_ZNSt3__1L4swapIPN7testing12TestPropertyEEENS_9enable_ifIXaasr21is_move_constructibleIT_EE5valuesr18is_move_assignableIS5_EE5valueEvE4typeERS5_S8_
FNDA:0,_ZNSt3__1L4swapIPN7testing12TestPropertyEEENS_9enable_ifIXaasr21is_move_constructibleIT_EE5valuesr18is_move_assignableIS5_EE5valueEvE4typeERS5_S8_
FN:36,_ZNSt3__1L4swapIPPN7testing8TestInfoEEENS_9enable_ifIXaasr21is_move_constructibleIT_EE5valuesr18is_move_assignableIS6_EE5valueEvE4typeERS6_S9_
FNDA:480,_ZNSt3__1L4swapIPPN7testing8TestInfoEEENS_9enable_ifIXaasr21is_move_constructibleIT_EE5valuesr18is_move_assignableIS6_EE5valueEvE4typeERS6_S9_
FN:36,_ZNSt3__1L4swapIPiEENS_9enable_ifIXaasr21is_move_constructibleIT_EE5valuesr18is_move_assignableIS3_EE5valueEvE4typeERS3_S6_
FNDA:10218,_ZNSt3__1L4swapIPiEENS_9enable_ifIXaasr21is_move_constructibleIT_EE5valuesr18is_move_assignableIS3_EE5valueEvE4typeERS3_S6_
FN:36,_ZNSt3__1L4swapIPPN7testing17TestEventListenerEEENS_9enable_ifIXaasr21is_move_constructibleIT_EE5valuesr18is_move_assignableIS6_EE5valueEvE4typeERS6_S9_
FNDA:60,_ZNSt3__1L4swapIPPN7testing17TestEventListenerEEENS_9enable_ifIXaasr21is_move_constructibleIT_EE5valuesr18is_move_assignableIS6_EE5valueEvE4typeERS6_S9_
FN:36,_ZNSt3__1L4swapIPPN7testing11EnvironmentEEENS_9enable_ifIXaasr21is_move_constructibleIT_EE5valuesr18is_move_assignableIS6_EE5valueEvE4typeERS6_S9_
FNDA:0,_ZNSt3__1L4swapIPPN7testing11EnvironmentEEENS_9enable_ifIXaasr21is_move_constructibleIT_EE5valuesr18is_move_assignableIS6_EE5valueEvE4typeERS6_S9_
FN:36,_ZNSt3__1L4swapIPN7testing8internal9TraceInfoEEENS_9enable_ifIXaasr21is_move_constructibleIT_EE5valuesr18is_move_assignableIS6_EE5valueEvE4typeERS6_S9_
FNDA:0,_ZNSt3__1L4swapIPN7testing8internal9TraceInfoEEENS_9enable_ifIXaasr21is_move_constructibleIT_EE5valuesr18is_move_assignableIS6_EE5valueEvE4typeERS6_S9_
FN:36,_ZNSt3__1L4swapIPPN7testing9TestSuiteEEENS_9enable_ifIXaasr21is_move_constructibleIT_EE5valuesr18is_move_assignableIS6_EE5valueEvE4typeERS6_S9_
FNDA:120,_ZNSt3__1L4swapIPPN7testing9TestSuiteEEENS_9enable_ifIXaasr21is_move_constructibleIT_EE5valuesr18is_move_assignableIS6_EE5valueEvE4typeERS6_S9_
FN:36,_ZNSt3__1L4swapIiEENS_9enable_ifIXaasr21is_move_constructibleIT_EE5valuesr18is_move_assignableIS2_EE5valueEvE4typeERS2_S5_
FNDA:0,_ZNSt3__1L4swapIiEENS_9enable_ifIXaasr21is_move_constructibleIT_EE5valuesr18is_move_assignableIS2_EE5valueEvE4typeERS2_S5_
FN:36,_ZNSt3__1L4swapINS_12basic_stringIcNS_11char_traitsIcEENS_9allocatorIcEEE5__repEEENS_9enable_ifIXaasr21is_move_constructibleIT_EE5valuesr18is_move_assignableIS9_EE5valueEvE4typeERS9_SC_
FNDA:0,_ZNSt3__1L4swapINS_12basic_stringIcNS_11char_traitsIcEENS_9allocatorIcEEE5__repEEENS_9enable_ifIXaasr21is_move_constructibleIT_EE5valuesr18is_move_assignableIS9_EE5valueEvE4typeERS9_SC_
DA:36,11055
DA:38,11055
DA:39,11055
DA:40,11055
DA:41,11055
FNF:17
FNH:5
LF:5
LH:5
end_of_record
SF:/Library/Developer/CommandLineTools/SDKs/MacOSX12.3.sdk/usr/include/c++/v1/ostream
FN:164,_ZNSt3__113basic_ostreamIcNS_11char_traitsIcEEEC2EPNS_15basic_streambufIcS2_EE
FNDA:0,_ZNSt3__113basic_ostreamIcNS_11char_traitsIcEEEC2EPNS_15basic_streambufIcS2_EE
FN:188,_ZNSt3__113basic_ostreamIcNS_11char_traitsIcEEElsEPFRS3_S4_E
FNDA:0,_ZNSt3__113basic_ostreamIcNS_11char_traitsIcEEElsEPFRS3_S4_E
FN:197,_ZNSt3__113basic_ostreamIcNS_11char_traitsIcEEElsEPFRNS_8ios_baseES5_E
FNDA:0,_ZNSt3__113basic_ostreamIcNS_11char_traitsIcEEElsEPFRNS_8ios_baseES5_E
FN:234,_ZNSt3__113basic_ostreamIcNS_11char_traitsIcEEEC2Ev
FNDA:1088,_ZNSt3__113basic_ostreamIcNS_11char_traitsIcEEEC2Ev
FN:251,_ZNKSt3__113basic_ostreamIcNS_11char_traitsIcEEE6sentrycvbEv
FNDA:0,_ZNKSt3__113basic_ostreamIcNS_11char_traitsIcEEE6sentrycvbEv
FN:707,_ZNSt3__124__put_character_sequenceIcNS_11char_traitsIcEEEERNS_13basic_ostreamIT_T0_EES7_PKS4_m
FNDA:0,_ZNSt3__124__put_character_sequenceIcNS_11char_traitsIcEEEERNS_13basic_ostreamIT_T0_EES7_PKS4_m
FN:781,_ZNSt3__1lsINS_11char_traitsIcEEEERNS_13basic_ostreamIcT_EES6_c
FNDA:0,_ZNSt3__1lsINS_11char_traitsIcEEEERNS_13basic_ostreamIcT_EES6_c
FN:855,_ZNSt3__1lsINS_11char_traitsIcEEEERNS_13basic_ostreamIcT_EES6_PKc
FNDA:0,_ZNSt3__1lsINS_11char_traitsIcEEEERNS_13basic_ostreamIcT_EES6_PKc
FN:992,_ZNSt3__14endlIcNS_11char_traitsIcEEEERNS_13basic_ostreamIT_T0_EES7_
FNDA:0,_ZNSt3__14endlIcNS_11char_traitsIcEEEERNS_13basic_ostreamIT_T0_EES7_
FN:1038,_ZNSt3__1lsIcNS_11char_traitsIcEENS_9allocatorIcEEEERNS_13basic_ostreamIT_T0_EES9_RKNS_12basic_stringIS6_S7_T1_EE
FNDA:0,_ZNSt3__1lsIcNS_11char_traitsIcEENS_9allocatorIcEEEERNS_13basic_ostreamIT_T0_EES9_RKNS_12basic_stringIS6_S7_T1_EE
DA:164,0
DA:165,0
DA:188,0
DA:189,0
DA:197,0
DA:198,0
DA:234,1088
DA:251,0
DA:707,0
DA:714,0
DA:715,0
DA:718,0
DA:719,0
DA:720,0
DA:721,0
DA:722,0
DA:723,0
DA:724,0
DA:725,0
DA:726,0
DA:727,0
DA:729,0
DA:732,0
DA:733,0
DA:735,0
DA:736,0
DA:781,0
DA:783,0
DA:855,0
DA:857,0
DA:992,0
DA:994,0
DA:995,0
DA:996,0
DA:1038,0
DA:1041,0
FNF:10
FNH:1
LF:36
LH:1
end_of_record
SF:/Users/dogukanarat/Desktop/Workspace/RocketLab/Binaries/Debug/Intermediate/_deps/googletest-src/googletest/src/gtest-filepath.cc
FN:85,_ZN7testing8internalL15IsPathSeparatorEc
FNDA:1600,_ZN7testing8internalL15IsPathSeparatorEc
FN:94,_ZN7testing8internal8FilePath13GetCurrentDirEv
FNDA:20,_ZN7testing8internal8FilePath13GetCurrentDirEv
FN:120,_ZNK7testing8internal8FilePath15RemoveExtensionEPKc
FNDA:0,_ZNK7testing8internal8FilePath15RemoveExtensionEPKc
FN:132,_ZNK7testing8internal8FilePath21FindLastPathSeparatorEv
FNDA:0,_ZNK7testing8internal8FilePath21FindLastPathSeparatorEv
FN:151,_ZNK7testing8internal8FilePath19RemoveDirectoryNameEv
FNDA:0,_ZNK7testing8internal8FilePath19RemoveDirectoryNameEv
FN:162,_ZNK7testing8internal8FilePath14RemoveFileNameEv
FNDA:0,_ZNK7testing8internal8FilePath14RemoveFileNameEv
FN:179,_ZN7testing8internal8FilePath12MakeFileNameERKS1_S3_iPKc
FNDA:0,_ZN7testing8internal8FilePath12MakeFileNameERKS1_S3_iPKc
FN:195,_ZN7testing8internal8FilePath11ConcatPathsERKS1_S3_
FNDA:0,_ZN7testing8internal8FilePath11ConcatPathsERKS1_S3_
FN:205,_ZNK7testing8internal8FilePath21FileOrDirectoryExistsEv
FNDA:0,_ZNK7testing8internal8FilePath21FileOrDirectoryExistsEv
FN:219,_ZNK7testing8internal8FilePath15DirectoryExistsEv
FNDA:0,_ZNK7testing8internal8FilePath15DirectoryExistsEv
FN:249,_ZNK7testing8internal8FilePath15IsRootDirectoryEv
FNDA:0,_ZNK7testing8internal8FilePath15IsRootDirectoryEv
FN:258,_ZNK7testing8internal8FilePath14IsAbsolutePathEv
FNDA:0,_ZNK7testing8internal8FilePath14IsAbsolutePathEv
FN:279,_ZN7testing8internal8FilePath22GenerateUniqueFileNameERKS1_S3_PKc
FNDA:0,_ZN7testing8internal8FilePath22GenerateUniqueFileNameERKS1_S3_PKc
FN:293,_ZNK7testing8internal8FilePath11IsDirectoryEv
FNDA:0,_ZNK7testing8internal8FilePath11IsDirectoryEv
FN:301,_ZNK7testing8internal8FilePath28CreateDirectoriesRecursivelyEv
FNDA:0,_ZNK7testing8internal8FilePath28CreateDirectoriesRecursivelyEv
FN:318,_ZNK7testing8internal8FilePath12CreateFolderEv
FNDA:0,_ZNK7testing8internal8FilePath12CreateFolderEv
FN:342,_ZNK7testing8internal8FilePath27RemoveTrailingPathSeparatorEv
FNDA:0,_ZNK7testing8internal8FilePath27RemoveTrailingPathSeparatorEv
FN:351,_ZN7testing8internal8FilePath9NormalizeEv
FNDA:20,_ZN7testing8internal8FilePath9NormalizeEv
DA:85,1600
DA:89,1600
DA:94,20
DA:104,20
DA:105,20
DA:112,20
DA:114,0
DA:120,0
DA:121,0
DA:122,0
DA:123,0
DA:124,0
DA:126,0
DA:127,0
DA:132,0
DA:133,0
DA:142,0
DA:151,0
DA:152,0
DA:153,0
DA:154,0
DA:162,0
DA:163,0
DA:164,0
DA:165,0
DA:166,0
DA:167,0
DA:168,0
DA:170,0
DA:171,0
DA:179,0
DA:183,0
DA:184,0
DA:185,0
DA:186,0
DA:187,0
DA:188,0
DA:190,0
DA:191,0
DA:195,0
DA:197,0
DA:198,0
DA:199,0
DA:200,0
DA:201,0
DA:205,0
DA:213,0
DA:219,0
DA:220,0
DA:227,0
DA:240,0
DA:241,0
DA:244,0
DA:249,0
DA:253,0
DA:258,0
DA:259,0
DA:267,0
DA:279,0
DA:282,0
DA:283,0
DA:284,0
DA:285,0
DA:286,0
DA:287,0
DA:288,0
DA:293,0
DA:294,0
DA:295,0
DA:301,0
DA:302,0
DA:303,0
DA:306,0
DA:307,0
DA:310,0
DA:311,0
DA:312,0
DA:318,0
DA:330,0
DA:333,0
DA:334,0
DA:336,0
DA:337,0
DA:342,0
DA:343,0
DA:344,0
DA:345,0
DA:346,0
DA:351,20
DA:352,20
DA:354,1620
DA:355,1600
DA:356,1420
DA:357,1600
DA:358,180
DA:359,180
DA:360,0
DA:364,20
DA:365,20
FNF:18
FNH:3
LF:99
LH:16
end_of_record
SF:/Library/Developer/CommandLineTools/SDKs/MacOSX12.3.sdk/usr/include/c++/v1/new
FN:223,_ZNSt3__1L24__is_overaligned_for_newEm
FNDA:6890,_ZNSt3__1L24__is_overaligned_for_newEm
FN:233,_ZNSt3__1L21__libcpp_operator_newIJmSt11align_val_tEEEPvDpT_
FNDA:0,_ZNSt3__1L21__libcpp_operator_newIJmSt11align_val_tEEEPvDpT_
FN:233,_ZNSt3__1L21__libcpp_operator_newIJmEEEPvDpT_
FNDA:3705,_ZNSt3__1L21__libcpp_operator_newIJmEEEPvDpT_
FN:243,_ZNSt3__1L24__libcpp_operator_deleteIJPvSt11align_val_tEEEvDpT_
FNDA:0,_ZNSt3__1L24__libcpp_operator_deleteIJPvSt11align_val_tEEEvDpT_
FN:243,_ZNSt3__1L24__libcpp_operator_deleteIJPvEEEvDpT_
FNDA:3185,_ZNSt3__1L24__libcpp_operator_deleteIJPvEEEvDpT_
FN:252,_ZNSt3__1L17__libcpp_allocateEmm
FNDA:3705,_ZNSt3__1L17__libcpp_allocateEmm
FN:266,_ZNSt3__1L27__do_deallocate_handle_sizeIJSt11align_val_tEEEvPvmDpT_
FNDA:0,_ZNSt3__1L27__do_deallocate_handle_sizeIJSt11align_val_tEEEvPvmDpT_
FN:266,_ZNSt3__1L27__do_deallocate_handle_sizeIJEEEvPvmDpT_
FNDA:3185,_ZNSt3__1L27__do_deallocate_handle_sizeIJEEEvPvmDpT_
FN:276,_ZNSt3__1L19__libcpp_deallocateEPvmm
FNDA:3185,_ZNSt3__1L19__libcpp_deallocateEPvmm
FN:338,_ZNSt3__19__launderIKNS_4pairIKNS_12basic_stringIcNS_11char_traitsIcEENS_9allocatorIcEEEEmEEEEPT_SC_
FNDA:0,_ZNSt3__19__launderIKNS_4pairIKNS_12basic_stringIcNS_11char_traitsIcEENS_9allocatorIcEEEEmEEEEPT_SC_
FN:338,_ZNSt3__19__launderINS_4pairIKNS_12basic_stringIcNS_11char_traitsIcEENS_9allocatorIcEEEEmEEEEPT_SB_
FNDA:0,_ZNSt3__19__launderINS_4pairIKNS_12basic_stringIcNS_11char_traitsIcEENS_9allocatorIcEEEEmEEEEPT_SB_
FN:338,_ZNSt3__19__launderINS_4pairIKNS_12basic_stringIcNS_11char_traitsIcEENS_9allocatorIcEEEEN7testing8internal34TypeParameterizedTestSuiteRegistry30TypeParameterizedTestSuiteInfoEEEEEPT_SF_
FNDA:0,_ZNSt3__19__launderINS_4pairIKNS_12basic_stringIcNS_11char_traitsIcEENS_9allocatorIcEEEEN7testing8internal34TypeParameterizedTestSuiteRegistry30TypeParameterizedTestSuiteInfoEEEEEPT_SF_
FN:338,_ZNSt3__19__launderIKNS_4pairIKNS_12basic_stringIcNS_11char_traitsIcEENS_9allocatorIcEEEEN7testing8internal12CodeLocationEEEEEPT_SF_
FNDA:0,_ZNSt3__19__launderIKNS_4pairIKNS_12basic_stringIcNS_11char_traitsIcEENS_9allocatorIcEEEEN7testing8internal12CodeLocationEEEEEPT_SF_
FN:338,_ZNSt3__19__launderIKNS_4pairIKNS_12basic_stringIcNS_11char_traitsIcEENS_9allocatorIcEEEEN7testing8internal34TypeParameterizedTestSuiteRegistry30TypeParameterizedTestSuiteInfoEEEEEPT_SG_
FNDA:0,_ZNSt3__19__launderIKNS_4pairIKNS_12basic_stringIcNS_11char_traitsIcEENS_9allocatorIcEEEEN7testing8internal34TypeParameterizedTestSuiteRegistry30TypeParameterizedTestSuiteInfoEEEEEPT_SG_
FN:353,_ZNSt3__1L7launderIKNS_4pairIKNS_12basic_stringIcNS_11char_traitsIcEENS_9allocatorIcEEEEmEEEEPT_SC_
FNDA:0,_ZNSt3__1L7launderIKNS_4pairIKNS_12basic_stringIcNS_11char_traitsIcEENS_9allocatorIcEEEEmEEEEPT_SC_
FN:353,_ZNSt3__1L7launderINS_4pairIKNS_12basic_stringIcNS_11char_traitsIcEENS_9allocatorIcEEEEmEEEEPT_SB_
FNDA:0,_ZNSt3__1L7launderINS_4pairIKNS_12basic_stringIcNS_11char_traitsIcEENS_9allocatorIcEEEEmEEEEPT_SB_
FN:353,_ZNSt3__1L7launderINS_4pairIKNS_12basic_stringIcNS_11char_traitsIcEENS_9allocatorIcEEEEN7testing8internal34TypeParameterizedTestSuiteRegistry30TypeParameterizedTestSuiteInfoEEEEEPT_SF_
FNDA:0,_ZNSt3__1L7launderINS_4pairIKNS_12basic_stringIcNS_11char_traitsIcEENS_9allocatorIcEEEEN7testing8internal34TypeParameterizedTestSuiteRegistry30TypeParameterizedTestSuiteInfoEEEEEPT_SF_
FN:353,_ZNSt3__1L7launderIKNS_4pairIKNS_12basic_stringIcNS_11char_traitsIcEENS_9allocatorIcEEEEN7testing8internal12CodeLocationEEEEEPT_SF_
FNDA:0,_ZNSt3__1L7launderIKNS_4pairIKNS_12basic_stringIcNS_11char_traitsIcEENS_9allocatorIcEEEEN7testing8internal12CodeLocationEEEEEPT_SF_
FN:353,_ZNSt3__1L7launderIKNS_4pairIKNS_12basic_stringIcNS_11char_traitsIcEENS_9allocatorIcEEEEN7testing8internal34TypeParameterizedTestSuiteRegistry30TypeParameterizedTestSuiteInfoEEEEEPT_SG_
FNDA:0,_ZNSt3__1L7launderIKNS_4pairIKNS_12basic_stringIcNS_11char_traitsIcEENS_9allocatorIcEEEEN7testing8internal34TypeParameterizedTestSuiteRegistry30TypeParameterizedTestSuiteInfoEEEEEPT_SG_
DA:223,6890
DA:225,6890
DA:233,3705
DA:235,3705
DA:243,3185
DA:245,3185
DA:249,3185
DA:252,3705
DA:254,3705
DA:255,0
DA:256,0
DA:261,3705
DA:262,3705
DA:266,3185
DA:269,3185
DA:276,3185
DA:281,3185
DA:282,0
DA:283,0
DA:285,3185
DA:288,3185
DA:338,0
DA:343,0
DA:353,0
DA:355,0
FNF:19
FNH:6
LF:25
LH:17
end_of_record
SF:/Library/Developer/CommandLineTools/SDKs/MacOSX12.3.sdk/usr/include/c++/v1/locale
FN:1395,_ZNSt3__116__pad_and_outputIcNS_11char_traitsIcEEEENS_19ostreambuf_iteratorIT_T0_EES6_PKS4_S8_S8_RNS_8ios_baseES4_
FNDA:0,_ZNSt3__116__pad_and_outputIcNS_11char_traitsIcEEEENS_19ostreambuf_iteratorIT_T0_EES6_PKS4_S8_S8_RNS_8ios_baseES4_
DA:1395,0
DA:1399,0
DA:1400,0
DA:1401,0
DA:1402,0
DA:1403,0
DA:1404,0
DA:1406,0
DA:1407,0
DA:1408,0
DA:1410,0
DA:1412,0
DA:1413,0
DA:1415,0
DA:1416,0
DA:1418,0
DA:1419,0
DA:1421,0
DA:1422,0
DA:1424,0
DA:1425,0
DA:1426,0
DA:1428,0
DA:1430,0
DA:1431,0
DA:1433,0
DA:1434,0
DA:1435,0
DA:1436,0
FNF:1
FNH:0
LF:29
LH:0
end_of_record
SF:/Library/Developer/CommandLineTools/SDKs/MacOSX12.3.sdk/usr/include/c++/v1/__iterator/advance.h
FN:54,_ZNSt3__1L9__advanceINS_11__wrap_iterIPcEEEEvRT_NS_15iterator_traitsIS4_E15difference_typeENS_26random_access_iterator_tagE
FNDA:160,_ZNSt3__1L9__advanceINS_11__wrap_iterIPcEEEEvRT_NS_15iterator_traitsIS4_E15difference_typeENS_26random_access_iterator_tagE
FN:63,_ZNSt3__1L7advanceINS_11__wrap_iterIPcEEllvEEvRT_T0_
FNDA:160,_ZNSt3__1L7advanceINS_11__wrap_iterIPcEEllvEEvRT_T0_
DA:54,160
DA:55,160
DA:56,160
DA:63,160
DA:65,160
DA:68,160
DA:69,160
FNF:2
FNH:2
LF:7
LH:7
end_of_record
SF:/Library/Developer/CommandLineTools/SDKs/MacOSX12.3.sdk/usr/include/c++/v1/type_traits
FN:4323,_ZNSt3__1L21__convert_to_integralEl
FNDA:160,_ZNSt3__1L21__convert_to_integralEl
DA:4323,160
FNF:1
FNH:1
LF:1
LH:1
end_of_record
SF:/Users/dogukanarat/Desktop/Workspace/RocketLab/Binaries/Debug/Intermediate/_deps/googletest-src/googletest/src/gtest-printers.cc
FN:65,_ZN7testing12_GLOBAL__N_126PrintByteSegmentInObjectToEPKhmmPNSt3__113basic_ostreamIcNS3_11char_traitsIcEEEE
FNDA:0,_ZN7testing12_GLOBAL__N_126PrintByteSegmentInObjectToEPKhmmPNSt3__113basic_ostreamIcNS3_11char_traitsIcEEEE
FN:84,_ZN7testing12_GLOBAL__N_124PrintBytesInObjectToImplEPKhmPNSt3__113basic_ostreamIcNS3_11char_traitsIcEEEE
FNDA:0,_ZN7testing12_GLOBAL__N_124PrintBytesInObjectToImplEPKhmPNSt3__113basic_ostreamIcNS3_11char_traitsIcEEEE
FN:115,_ZN7testing8internal20PrintBytesInObjectToEPKhmPNSt3__113basic_ostreamIcNS3_11char_traitsIcEEEE
FNDA:0,_ZN7testing8internal20PrintBytesInObjectToEPKhmPNSt3__113basic_ostreamIcNS3_11char_traitsIcEEEE
FN:134,_ZN7testing8internal16IsPrintableAsciiEw
FNDA:0,_ZN7testing8internal16IsPrintableAsciiEw
FN:143,_ZN7testing8internalL20PrintAsCharLiteralToIhhEENS0_10CharFormatET0_PNSt3__113basic_ostreamIcNS4_11char_traitsIcEEEE
FNDA:0,_ZN7testing8internalL20PrintAsCharLiteralToIhhEENS0_10CharFormatET0_PNSt3__113basic_ostreamIcNS4_11char_traitsIcEEEE
FN:143,_ZN7testing8internalL20PrintAsCharLiteralToIhaEENS0_10CharFormatET0_PNSt3__113basic_ostreamIcNS4_11char_traitsIcEEEE
FNDA:0,_ZN7testing8internalL20PrintAsCharLiteralToIhaEENS0_10CharFormatET0_PNSt3__113basic_ostreamIcNS4_11char_traitsIcEEEE
FN:143,_ZN7testing8internalL20PrintAsCharLiteralToIwwEENS0_10CharFormatET0_PNSt3__113basic_ostreamIcNS4_11char_traitsIcEEEE
FNDA:0,_ZN7testing8internalL20PrintAsCharLiteralToIwwEENS0_10CharFormatET0_PNSt3__113basic_ostreamIcNS4_11char_traitsIcEEEE
FN:193,_ZN7testing8internalL22PrintAsStringLiteralToEwPNSt3__113basic_ostreamIcNS1_11char_traitsIcEEEE
FNDA:0,_ZN7testing8internalL22PrintAsStringLiteralToEwPNSt3__113basic_ostreamIcNS1_11char_traitsIcEEEE
FN:208,_ZN7testing8internalL22PrintAsStringLiteralToEcPNSt3__113basic_ostreamIcNS1_11char_traitsIcEEEE
FNDA:0,_ZN7testing8internalL22PrintAsStringLiteralToEcPNSt3__113basic_ostreamIcNS1_11char_traitsIcEEEE
FN:218,_ZN7testing8internal18PrintCharAndCodeToIhhEEvT0_PNSt3__113basic_ostreamIcNS3_11char_traitsIcEEEE
FNDA:0,_ZN7testing8internal18PrintCharAndCodeToIhhEEvT0_PNSt3__113basic_ostreamIcNS3_11char_traitsIcEEEE
FN:218,_ZN7testing8internal18PrintCharAndCodeToIhaEEvT0_PNSt3__113basic_ostreamIcNS3_11char_traitsIcEEEE
FNDA:0,_ZN7testing8internal18PrintCharAndCodeToIhaEEvT0_PNSt3__113basic_ostreamIcNS3_11char_traitsIcEEEE
FN:218,_ZN7testing8internal18PrintCharAndCodeToIwwEEvT0_PNSt3__113basic_ostreamIcNS3_11char_traitsIcEEEE
FNDA:0,_ZN7testing8internal18PrintCharAndCodeToIwwEEvT0_PNSt3__113basic_ostreamIcNS3_11char_traitsIcEEEE
FN:242,_ZN7testing8internal7PrintToEhPNSt3__113basic_ostreamIcNS1_11char_traitsIcEEEE
FNDA:0,_ZN7testing8internal7PrintToEhPNSt3__113basic_ostreamIcNS1_11char_traitsIcEEEE
FN:245,_ZN7testing8internal7PrintToEaPNSt3__113basic_ostreamIcNS1_11char_traitsIcEEEE
FNDA:0,_ZN7testing8internal7PrintToEaPNSt3__113basic_ostreamIcNS1_11char_traitsIcEEEE
FN:251,_ZN7testing8internal7PrintToEwPNSt3__113basic_ostreamIcNS1_11char_traitsIcEEEE
FNDA:0,_ZN7testing8internal7PrintToEwPNSt3__113basic_ostreamIcNS1_11char_traitsIcEEEE
FN:255,_ZN7testing8internal7PrintToEDiPNSt3__113basic_ostreamIcNS1_11char_traitsIcEEEE
FNDA:0,_ZN7testing8internal7PrintToEDiPNSt3__113basic_ostreamIcNS1_11char_traitsIcEEEE
FN:269,_ZN7testing8internalL20PrintCharsAsStringToIcEENS0_10CharFormatEPKT_mPNSt3__113basic_ostreamIcNS6_11char_traitsIcEEEE
FNDA:0,_ZN7testing8internalL20PrintCharsAsStringToIcEENS0_10CharFormatEPKT_mPNSt3__113basic_ostreamIcNS6_11char_traitsIcEEEE
FN:269,_ZN7testing8internalL20PrintCharsAsStringToIwEENS0_10CharFormatEPKT_mPNSt3__113basic_ostreamIcNS6_11char_traitsIcEEEE
FNDA:0,_ZN7testing8internalL20PrintCharsAsStringToIwEENS0_10CharFormatEPKT_mPNSt3__113basic_ostreamIcNS6_11char_traitsIcEEEE
FN:300,_ZN7testing8internalL23UniversalPrintCharArrayIcEEvPKT_mPNSt3__113basic_ostreamIcNS5_11char_traitsIcEEEE
FNDA:0,_ZN7testing8internalL23UniversalPrintCharArrayIcEEvPKT_mPNSt3__113basic_ostreamIcNS5_11char_traitsIcEEEE
FN:300,_ZN7testing8internalL23UniversalPrintCharArrayIwEEvPKT_mPNSt3__113basic_ostreamIcNS5_11char_traitsIcEEEE
FNDA:0,_ZN7testing8internalL23UniversalPrintCharArrayIwEEvPKT_mPNSt3__113basic_ostreamIcNS5_11char_traitsIcEEEE
FN:323,_ZN7testing8internal19UniversalPrintArrayEPKcmPNSt3__113basic_ostreamIcNS3_11char_traitsIcEEEE
FNDA:0,_ZN7testing8internal19UniversalPrintArrayEPKcmPNSt3__113basic_ostreamIcNS3_11char_traitsIcEEEE
FN:329,_ZN7testing8internal19UniversalPrintArrayEPKwmPNSt3__113basic_ostreamIcNS3_11char_traitsIcEEEE
FNDA:0,_ZN7testing8internal19UniversalPrintArrayEPKwmPNSt3__113basic_ostreamIcNS3_11char_traitsIcEEEE
FN:334,_ZN7testing8internal7PrintToEPKcPNSt3__113basic_ostreamIcNS3_11char_traitsIcEEEE
FNDA:0,_ZN7testing8internal7PrintToEPKcPNSt3__113basic_ostreamIcNS3_11char_traitsIcEEEE
FN:351,_ZN7testing8internal7PrintToEPKwPNSt3__113basic_ostreamIcNS3_11char_traitsIcEEEE
FNDA:0,_ZN7testing8internal7PrintToEPKwPNSt3__113basic_ostreamIcNS3_11char_traitsIcEEEE
FN:363,_ZN7testing8internal12_GLOBAL__N_131ContainsUnprintableControlCodesEPKcm
FNDA:0,_ZN7testing8internal12_GLOBAL__N_131ContainsUnprintableControlCodesEPKcm
FN:382,_ZN7testing8internal12_GLOBAL__N_115IsUTF8TrailByteEh
FNDA:0,_ZN7testing8internal12_GLOBAL__N_115IsUTF8TrailByteEh
FN:384,_ZN7testing8internal12_GLOBAL__N_111IsValidUTF8EPKcm
FNDA:0,_ZN7testing8internal12_GLOBAL__N_111IsValidUTF8EPKcm
FN:419,_ZN7testing8internal12_GLOBAL__N_122ConditionalPrintAsTextEPKcmPNSt3__113basic_ostreamIcNS4_11char_traitsIcEEEE
FNDA:0,_ZN7testing8internal12_GLOBAL__N_122ConditionalPrintAsTextEPKcmPNSt3__113basic_ostreamIcNS4_11char_traitsIcEEEE
FN:428,_ZN7testing8internal13PrintStringToERKNSt3__112basic_stringIcNS1_11char_traitsIcEENS1_9allocatorIcEEEEPNS1_13basic_ostreamIcS4_EE
FNDA:0,_ZN7testing8internal13PrintStringToERKNSt3__112basic_stringIcNS1_11char_traitsIcEENS1_9allocatorIcEEEEPNS1_13basic_ostreamIcS4_EE
FN:437,_ZN7testing8internal17PrintWideStringToERKNSt3__112basic_stringIwNS1_11char_traitsIwEENS1_9allocatorIwEEEEPNS1_13basic_ostreamIcNS3_IcEEEE
FNDA:0,_ZN7testing8internal17PrintWideStringToERKNSt3__112basic_stringIwNS1_11char_traitsIwEENS1_9allocatorIwEEEEPNS1_13basic_ostreamIcNS3_IcEEEE
DA:65,0
DA:67,0
DA:68,0
DA:69,0
DA:70,0
DA:73,0
DA:74,0
DA:76,0
DA:77,0
DA:78,0
DA:79,0
DA:80,0
DA:81,0
DA:84,0
DA:87,0
DA:89,0
DA:90,0
DA:94,0
DA:95,0
DA:96,0
DA:97,0
DA:98,0
DA:100,0
DA:101,0
DA:103,0
DA:104,0
DA:115,0
DA:117,0
DA:118,0
DA:134,0
DA:135,0
DA:143,0
DA:144,0
DA:145,0
DA:147,0
DA:148,0
DA:150,0
DA:151,0
DA:153,0
DA:154,0
DA:156,0
DA:157,0
DA:159,0
DA:160,0
DA:162,0
DA:163,0
DA:165,0
DA:166,0
DA:168,0
DA:169,0
DA:171,0
DA:172,0
DA:174,0
DA:175,0
DA:177,0
DA:178,0
DA:179,0
DA:181,0
DA:182,0
DA:183,0
DA:184,0
DA:185,0
DA:188,0
DA:189,0
DA:193,0
DA:194,0
DA:196,0
DA:197,0
DA:199,0
DA:200,0
DA:202,0
DA:204,0
DA:208,0
DA:209,0
DA:210,0
DA:218,0
DA:220,0
DA:221,0
DA:222,0
DA:227,0
DA:228,0
DA:229,0
DA:234,0
DA:236,0
DA:237,0
DA:239,0
DA:240,0
DA:242,0
DA:243,0
DA:244,0
DA:245,0
DA:246,0
DA:247,0
DA:251,0
DA:252,0
DA:253,0
DA:255,0
DA:256,0
DA:257,0
DA:258,0
DA:269,0
DA:271,0
DA:272,0
DA:273,0
DA:274,0
DA:275,0
DA:276,0
DA:277,0
DA:281,0
DA:282,0
DA:283,0
DA:285,0
DA:286,0
DA:287,0
DA:288,0
DA:289,0
DA:290,0
DA:300,0
DA:309,0
DA:310,0
DA:311,0
DA:318,0
DA:319,0
DA:320,0
DA:323,0
DA:324,0
DA:325,0
DA:329,0
DA:330,0
DA:331,0
DA:334,0
DA:335,0
DA:336,0
DA:337,0
DA:338,0
DA:339,0
DA:341,0
DA:351,0
DA:352,0
DA:353,0
DA:354,0
DA:355,0
DA:356,0
DA:358,0
DA:363,0
DA:364,0
DA:366,0
DA:367,0
DA:368,0
DA:369,0
DA:373,0
DA:375,0
DA:377,0
DA:378,0
DA:379,0
DA:380,0
DA:382,0
DA:384,0
DA:385,0
DA:387,0
DA:388,0
DA:390,0
DA:391,0
DA:393,0
DA:394,0
DA:395,0
DA:396,0
DA:397,0
DA:398,0
DA:399,0
DA:401,0
DA:402,0
DA:403,0
DA:404,0
DA:405,0
DA:406,0
DA:407,0
DA:409,0
DA:410,0
DA:411,0
DA:412,0
DA:413,0
DA:416,0
DA:417,0
DA:419,0
DA:420,0
DA:421,0
DA:422,0
DA:423,0
DA:424,0
DA:428,0
DA:429,0
DA:430,0
DA:431,0
DA:432,0
DA:433,0
DA:434,0
DA:437,0
DA:438,0
DA:439,0
FNF:30
FNH:0
LF:200
LH:0
end_of_record
SF:/Library/Developer/CommandLineTools/SDKs/MacOSX12.3.sdk/usr/include/c++/v1/istream
FN:191,_ZNSt3__113basic_istreamIcNS_11char_traitsIcEEEC2EPNS_15basic_streambufIcS2_EE
FNDA:1088,_ZNSt3__113basic_istreamIcNS_11char_traitsIcEEEC2EPNS_15basic_streambufIcS2_EE
FN:1405,_ZNSt3__114basic_iostreamIcNS_11char_traitsIcEEEC2EPNS_15basic_streambufIcS2_EE
FNDA:1088,_ZNSt3__114basic_iostreamIcNS_11char_traitsIcEEEC2EPNS_15basic_streambufIcS2_EE
DA:191,2176
DA:192,2176
DA:1405,2176
DA:1406,1088
DA:1407,2176
FNF:2
FNH:2
LF:5
LH:5
end_of_record
SF:/Library/Developer/CommandLineTools/SDKs/MacOSX12.3.sdk/usr/include/c++/v1/__iterator/prev.h
FN:34,_ZNSt3__1L4prevINS_11__wrap_iterIPcEEEENS_9enable_ifIXsr25__is_cpp17_input_iteratorIT_EE5valueES5_E4typeES5_NS_15iterator_traitsIS5_E15difference_typeE
FNDA:160,_ZNSt3__1L4prevINS_11__wrap_iterIPcEEEENS_9enable_ifIXsr25__is_cpp17_input_iteratorIT_EE5valueES5_E4typeES5_NS_15iterator_traitsIS5_E15difference_typeE
DA:34,160
DA:37,160
DA:38,160
FNF:1
FNH:1
LF:3
LH:3
end_of_record
SF:/Library/Developer/CommandLineTools/SDKs/MacOSX12.3.sdk/usr/include/c++/v1/__memory/addressof.h
FN:30,_ZNSt3__1L9addressofINS_15__tree_end_nodeIPNS_16__tree_node_baseIPvEEEEEEPT_RS7_
FNDA:60,_ZNSt3__1L9addressofINS_15__tree_end_nodeIPNS_16__tree_node_baseIPvEEEEEEPT_RS7_
FN:30,_ZNSt3__1L9addressofIKNS_4pairIKNS_12basic_stringIcNS_11char_traitsIcEENS_9allocatorIcEEEEmEEEEPT_RSB_
FNDA:0,_ZNSt3__1L9addressofIKNS_4pairIKNS_12basic_stringIcNS_11char_traitsIcEENS_9allocatorIcEEEEmEEEEPT_RSB_
FN:30,_ZNSt3__1L9addressofINS_4pairIKNS_12basic_stringIcNS_11char_traitsIcEENS_9allocatorIcEEEEmEEEEPT_RSA_
FNDA:0,_ZNSt3__1L9addressofINS_4pairIKNS_12basic_stringIcNS_11char_traitsIcEENS_9allocatorIcEEEEmEEEEPT_RSA_
FN:30,_ZNSt3__1L9addressofINS_12__value_typeINS_12basic_stringIcNS_11char_traitsIcEENS_9allocatorIcEEEEmEEEEPT_RS9_
FNDA:0,_ZNSt3__1L9addressofINS_12__value_typeINS_12basic_stringIcNS_11char_traitsIcEENS_9allocatorIcEEEEmEEEEPT_RS9_
FN:30,_ZNSt3__1L9addressofIPNS_16__tree_node_baseIPvEEEEPT_RS5_
FNDA:0,_ZNSt3__1L9addressofIPNS_16__tree_node_baseIPvEEEEPT_RS5_
FN:30,_ZNSt3__1L9addressofINS_16__list_node_baseINS_4pairIcPKcEEPvEEEEPT_RS8_
FNDA:0,_ZNSt3__1L9addressofINS_16__list_node_baseINS_4pairIcPKcEEPvEEEEPT_RS8_
FN:30,_ZNSt3__1L9addressofINS_4pairIcPKcEEEEPT_RS5_
FNDA:0,_ZNSt3__1L9addressofINS_4pairIcPKcEEEEPT_RS5_
FN:30,_ZNSt3__1L9addressofIcEEPT_RS1_
FNDA:0,_ZNSt3__1L9addressofIcEEPT_RS1_
FN:30,_ZNSt3__1L9addressofIKNS_4pairIcPKcEEEEPT_RS6_
FNDA:0,_ZNSt3__1L9addressofIKNS_4pairIcPKcEEEEPT_RS6_
FN:30,_ZNSt3__1L9addressofINS_4pairIKNS_12basic_stringIcNS_11char_traitsIcEENS_9allocatorIcEEEEN7testing8internal34TypeParameterizedTestSuiteRegistry30TypeParameterizedTestSuiteInfoEEEEEPT_RSE_
FNDA:0,_ZNSt3__1L9addressofINS_4pairIKNS_12basic_stringIcNS_11char_traitsIcEENS_9allocatorIcEEEEN7testing8internal34TypeParameterizedTestSuiteRegistry30TypeParameterizedTestSuiteInfoEEEEEPT_RSE_
FN:30,_ZNSt3__1L9addressofIKNS_4pairIKNS_12basic_stringIcNS_11char_traitsIcEENS_9allocatorIcEEEEN7testing8internal12CodeLocationEEEEEPT_RSE_
FNDA:0,_ZNSt3__1L9addressofIKNS_4pairIKNS_12basic_stringIcNS_11char_traitsIcEENS_9allocatorIcEEEEN7testing8internal12CodeLocationEEEEEPT_RSE_
FN:30,_ZNSt3__1L9addressofIKNS_12__value_typeINS_12basic_stringIcNS_11char_traitsIcEENS_9allocatorIcEEEEN7testing8internal12CodeLocationEEEEEPT_RSD_
FNDA:0,_ZNSt3__1L9addressofIKNS_12__value_typeINS_12basic_stringIcNS_11char_traitsIcEENS_9allocatorIcEEEEN7testing8internal12CodeLocationEEEEEPT_RSD_
FN:30,_ZNSt3__1L9addressofINS_12basic_stringIcNS_11char_traitsIcEENS_9allocatorIcEEEEEEPT_RS7_
FNDA:0,_ZNSt3__1L9addressofINS_12basic_stringIcNS_11char_traitsIcEENS_9allocatorIcEEEEEEPT_RS7_
FN:30,_ZNSt3__1L9addressofIKNS_4pairIKNS_12basic_stringIcNS_11char_traitsIcEENS_9allocatorIcEEEEN7testing8internal34TypeParameterizedTestSuiteRegistry30TypeParameterizedTestSuiteInfoEEEEEPT_RSF_
FNDA:0,_ZNSt3__1L9addressofIKNS_4pairIKNS_12basic_stringIcNS_11char_traitsIcEENS_9allocatorIcEEEEN7testing8internal34TypeParameterizedTestSuiteRegistry30TypeParameterizedTestSuiteInfoEEEEEPT_RSF_
FN:30,_ZNSt3__1L9addressofINS_12__value_typeINS_12basic_stringIcNS_11char_traitsIcEENS_9allocatorIcEEEEN7testing8internal34TypeParameterizedTestSuiteRegistry30TypeParameterizedTestSuiteInfoEEEEEPT_RSD_
FNDA:0,_ZNSt3__1L9addressofINS_12__value_typeINS_12basic_stringIcNS_11char_traitsIcEENS_9allocatorIcEEEEN7testing8internal34TypeParameterizedTestSuiteRegistry30TypeParameterizedTestSuiteInfoEEEEEPT_RSD_
FN:30,_ZNSt3__1L9addressofIKcEEPT_RS2_
FNDA:5015,_ZNSt3__1L9addressofIKcEEPT_RS2_
FN:30,_ZNSt3__1L9addressofIKPN7testing9TestSuiteEEEPT_RS5_
FNDA:0,_ZNSt3__1L9addressofIKPN7testing9TestSuiteEEEPT_RS5_
FN:30,_ZNSt3__1L9addressofIKwEEPT_RS2_
FNDA:0,_ZNSt3__1L9addressofIKwEEPT_RS2_
DA:30,5075
DA:32,5075
FNF:18
FNH:2
LF:2
LH:2
end_of_record
SF:/Users/dogukanarat/Desktop/Workspace/RocketLab/Binaries/Debug/Intermediate/_deps/googletest-src/googletest/include/gtest/gtest-message.h
FN:91,_ZN7testing7MessageD1Ev
FNDA:0,_ZN7testing7MessageD1Ev
FN:91,_ZN7testing7MessageD2Ev
FNDA:0,_ZN7testing7MessageD2Ev
FN:102,_ZN7testing7MessageC1ERKS0_
FNDA:0,_ZN7testing7MessageC1ERKS0_
FN:102,_ZN7testing7MessageC2ERKS0_
FNDA:0,_ZN7testing7MessageC2ERKS0_
FN:113,_ZN7testing7MessagelsINSt3__112basic_stringIcNS2_11char_traitsIcEENS2_9allocatorIcEEEEEERS0_RKT_
FNDA:0,_ZN7testing7MessagelsINSt3__112basic_stringIcNS2_11char_traitsIcEENS2_9allocatorIcEEEEEERS0_RKT_
FN:113,_ZN7testing7MessagelsIA35_cEERS0_RKT_
FNDA:0,_ZN7testing7MessagelsIA35_cEERS0_RKT_
FN:113,_ZN7testing7MessagelsIA4_cEERS0_RKT_
FNDA:0,_ZN7testing7MessagelsIA4_cEERS0_RKT_
FN:113,_ZN7testing7MessagelsIA16_cEERS0_RKT_
FNDA:0,_ZN7testing7MessagelsIA16_cEERS0_RKT_
FN:113,_ZN7testing7MessagelsIA15_cEERS0_RKT_
FNDA:0,_ZN7testing7MessagelsIA15_cEERS0_RKT_
FN:113,_ZN7testing7MessagelsIA13_cEERS0_RKT_
FNDA:0,_ZN7testing7MessagelsIA13_cEERS0_RKT_
FN:113,_ZN7testing7MessagelsIA11_cEERS0_RKT_
FNDA:0,_ZN7testing7MessagelsIA11_cEERS0_RKT_
FN:113,_ZN7testing7MessagelsIA12_cEERS0_RKT_
FNDA:0,_ZN7testing7MessagelsIA12_cEERS0_RKT_
FN:113,_ZN7testing7MessagelsIA3_cEERS0_RKT_
FNDA:0,_ZN7testing7MessagelsIA3_cEERS0_RKT_
FN:113,_ZN7testing7MessagelsIA2_cEERS0_RKT_
FNDA:0,_ZN7testing7MessagelsIA2_cEERS0_RKT_
FN:113,_ZN7testing7MessagelsIiEERS0_RKT_
FNDA:133,_ZN7testing7MessagelsIiEERS0_RKT_
FN:113,_ZN7testing7MessagelsIA65_cEERS0_RKT_
FNDA:0,_ZN7testing7MessagelsIA65_cEERS0_RKT_
FN:113,_ZN7testing7MessagelsIA60_cEERS0_RKT_
FNDA:0,_ZN7testing7MessagelsIA60_cEERS0_RKT_
FN:113,_ZN7testing7MessagelsIA25_cEERS0_RKT_
FNDA:0,_ZN7testing7MessagelsIA25_cEERS0_RKT_
FN:113,_ZN7testing7MessagelsIA6_cEERS0_RKT_
FNDA:0,_ZN7testing7MessagelsIA6_cEERS0_RKT_
FN:113,_ZN7testing7MessagelsIA30_cEERS0_RKT_
FNDA:0,_ZN7testing7MessagelsIA30_cEERS0_RKT_
FN:113,_ZN7testing7MessagelsIA39_cEERS0_RKT_
FNDA:0,_ZN7testing7MessagelsIA39_cEERS0_RKT_
FN:113,_ZN7testing7MessagelsIA62_cEERS0_RKT_
FNDA:0,_ZN7testing7MessagelsIA62_cEERS0_RKT_
FN:113,_ZN7testing7MessagelsIA32_cEERS0_RKT_
FNDA:0,_ZN7testing7MessagelsIA32_cEERS0_RKT_
FN:113,_ZN7testing7MessagelsIA18_cEERS0_RKT_
FNDA:0,_ZN7testing7MessagelsIA18_cEERS0_RKT_
FN:113,_ZN7testing7MessagelsIA63_cEERS0_RKT_
FNDA:0,_ZN7testing7MessagelsIA63_cEERS0_RKT_
FN:113,_ZN7testing7MessagelsIA38_cEERS0_RKT_
FNDA:0,_ZN7testing7MessagelsIA38_cEERS0_RKT_
FN:113,_ZN7testing7MessagelsIA68_cEERS0_RKT_
FNDA:0,_ZN7testing7MessagelsIA68_cEERS0_RKT_
FN:113,_ZN7testing7MessagelsIA5_cEERS0_RKT_
FNDA:0,_ZN7testing7MessagelsIA5_cEERS0_RKT_
FN:113,_ZN7testing7MessagelsIA7_cEERS0_RKT_
FNDA:400,_ZN7testing7MessagelsIA7_cEERS0_RKT_
FN:113,_ZN7testing7MessagelsIcEERS0_RKT_
FNDA:7440,_ZN7testing7MessagelsIcEERS0_RKT_
FN:113,_ZN7testing7MessagelsIA8_cEERS0_RKT_
FNDA:0,_ZN7testing7MessagelsIA8_cEERS0_RKT_
FN:113,_ZN7testing7MessagelsIA41_cEERS0_RKT_
FNDA:0,_ZN7testing7MessagelsIA41_cEERS0_RKT_
FN:113,_ZN7testing7MessagelsIA17_cEERS0_RKT_
FNDA:0,_ZN7testing7MessagelsIA17_cEERS0_RKT_
FN:113,_ZN7testing7MessagelsIA19_cEERS0_RKT_
FNDA:0,_ZN7testing7MessagelsIA19_cEERS0_RKT_
FN:113,_ZN7testing7MessagelsIA9_cEERS0_RKT_
FNDA:0,_ZN7testing7MessagelsIA9_cEERS0_RKT_
FN:113,_ZN7testing7MessagelsIA48_cEERS0_RKT_
FNDA:0,_ZN7testing7MessagelsIA48_cEERS0_RKT_
FN:113,_ZN7testing7MessagelsIA21_cEERS0_RKT_
FNDA:0,_ZN7testing7MessagelsIA21_cEERS0_RKT_
FN:113,_ZN7testing7MessagelsIA28_cEERS0_RKT_
FNDA:0,_ZN7testing7MessagelsIA28_cEERS0_RKT_
FN:113,_ZN7testing7MessagelsIA33_cEERS0_RKT_
FNDA:0,_ZN7testing7MessagelsIA33_cEERS0_RKT_
FN:113,_ZN7testing7MessagelsIA47_cEERS0_RKT_
FNDA:0,_ZN7testing7MessagelsIA47_cEERS0_RKT_
FN:113,_ZN7testing7MessagelsIA51_cEERS0_RKT_
FNDA:0,_ZN7testing7MessagelsIA51_cEERS0_RKT_
FN:113,_ZN7testing7MessagelsIA52_cEERS0_RKT_
FNDA:0,_ZN7testing7MessagelsIA52_cEERS0_RKT_
FN:113,_ZN7testing7MessagelsIA10_cEERS0_RKT_
FNDA:0,_ZN7testing7MessagelsIA10_cEERS0_RKT_
FN:113,_ZN7testing7MessagelsIS0_EERS0_RKT_
FNDA:0,_ZN7testing7MessagelsIS0_EERS0_RKT_
FN:113,_ZN7testing7MessagelsIA50_cEERS0_RKT_
FNDA:0,_ZN7testing7MessagelsIA50_cEERS0_RKT_
FN:113,_ZN7testing7MessagelsIA20_cEERS0_RKT_
FNDA:0,_ZN7testing7MessagelsIA20_cEERS0_RKT_
FN:113,_ZN7testing7MessagelsIA22_cEERS0_RKT_
FNDA:0,_ZN7testing7MessagelsIA22_cEERS0_RKT_
FN:113,_ZN7testing7MessagelsINS_14TestPartResultEEERS0_RKT_
FNDA:0,_ZN7testing7MessagelsINS_14TestPartResultEEERS0_RKT_
FN:113,_ZN7testing7MessagelsIA14_cEERS0_RKT_
FNDA:0,_ZN7testing7MessagelsIA14_cEERS0_RKT_
FN:113,_ZN7testing7MessagelsIA40_cEERS0_RKT_
FNDA:0,_ZN7testing7MessagelsIA40_cEERS0_RKT_
FN:113,_ZN7testing7MessagelsIA256_cEERS0_RKT_
FNDA:0,_ZN7testing7MessagelsIA256_cEERS0_RKT_
FN:113,_ZN7testing7MessagelsIA53_cEERS0_RKT_
FNDA:0,_ZN7testing7MessagelsIA53_cEERS0_RKT_
FN:113,_ZN7testing7MessagelsImEERS0_RKT_
FNDA:0,_ZN7testing7MessagelsImEERS0_RKT_
FN:113,_ZN7testing7MessagelsIA106_cEERS0_RKT_
FNDA:0,_ZN7testing7MessagelsIA106_cEERS0_RKT_
FN:113,_ZN7testing7MessagelsIA61_cEERS0_RKT_
FNDA:0,_ZN7testing7MessagelsIA61_cEERS0_RKT_
FN:113,_ZN7testing7MessagelsIA24_cEERS0_RKT_
FNDA:0,_ZN7testing7MessagelsIA24_cEERS0_RKT_
FN:113,_ZN7testing7MessagelsIdEERS0_RKT_
FNDA:0,_ZN7testing7MessagelsIdEERS0_RKT_
FN:113,_ZN7testing7MessagelsIA27_cEERS0_RKT_
FNDA:0,_ZN7testing7MessagelsIA27_cEERS0_RKT_
FN:113,_ZN7testing7MessagelsIA100_cEERS0_RKT_
FNDA:0,_ZN7testing7MessagelsIA100_cEERS0_RKT_
FN:113,_ZN7testing7MessagelsIA29_cEERS0_RKT_
FNDA:0,_ZN7testing7MessagelsIA29_cEERS0_RKT_
FN:113,_ZN7testing7MessagelsIxEERS0_RKT_
FNDA:57,_ZN7testing7MessagelsIxEERS0_RKT_
FN:147,_ZN7testing7MessagelsIKcEERS0_RKPT_
FNDA:0,_ZN7testing7MessagelsIKcEERS0_RKPT_
FN:147,_ZN7testing7MessagelsIcEERS0_RKPT_
FNDA:98,_ZN7testing7MessagelsIcEERS0_RKPT_
FN:199,_ZN7testinglsERNSt3__113basic_ostreamIcNS0_11char_traitsIcEEEERKNS_7MessageE
FNDA:0,_ZN7testinglsERNSt3__113basic_ostreamIcNS0_11char_traitsIcEEEERKNS_7MessageE
FN:210,_ZN7testing8internal18StreamableToStringIxEENSt3__112basic_stringIcNS2_11char_traitsIcEENS2_9allocatorIcEEEERKT_
FNDA:57,_ZN7testing8internal18StreamableToStringIxEENSt3__112basic_stringIcNS2_11char_traitsIcEENS2_9allocatorIcEEEERKT_
FN:210,_ZN7testing8internal18StreamableToStringIiEENSt3__112basic_stringIcNS2_11char_traitsIcEENS2_9allocatorIcEEEERKT_
FNDA:133,_ZN7testing8internal18StreamableToStringIiEENSt3__112basic_stringIcNS2_11char_traitsIcEENS2_9allocatorIcEEEERKT_
FN:210,_ZN7testing8internal18StreamableToStringIPcEENSt3__112basic_stringIcNS3_11char_traitsIcEENS3_9allocatorIcEEEERKT_
FNDA:98,_ZN7testing8internal18StreamableToStringIPcEENSt3__112basic_stringIcNS3_11char_traitsIcEENS3_9allocatorIcEEEERKT_
FN:210,_ZN7testing8internal18StreamableToStringIPwEENSt3__112basic_stringIcNS3_11char_traitsIcEENS3_9allocatorIcEEEERKT_
FNDA:0,_ZN7testing8internal18StreamableToStringIPwEENSt3__112basic_stringIcNS3_11char_traitsIcEENS3_9allocatorIcEEEERKT_
DA:102,0
DA:103,0
DA:104,0
DA:113,8030
DA:129,8030
DA:130,8030
DA:147,98
DA:148,98
DA:149,0
DA:150,0
DA:151,98
DA:153,98
DA:199,0
DA:200,0
DA:201,0
DA:210,288
DA:211,288
DA:212,0
FNF:68
FNH:8
LF:18
LH:9
end_of_record
SF:/Library/Developer/CommandLineTools/SDKs/MacOSX12.3.sdk/usr/include/c++/v1/__utility/forward.h
FN:27,_ZNSt3__1L7forwardIiEEOT_RNS_16remove_referenceIS1_E4typeE
FNDA:1340,_ZNSt3__1L7forwardIiEEOT_RNS_16remove_referenceIS1_E4typeE
FN:27,_ZNSt3__1L7forwardIRKNS_19__map_value_compareINS_12basic_stringIcNS_11char_traitsIcEENS_9allocatorIcEEEENS_12__value_typeIS7_mEENS_4lessIS7_EELb1EEEEEOT_RNS_16remove_referenceISF_E4typeE
FNDA:0,_ZNSt3__1L7forwardIRKNS_19__map_value_compareINS_12basic_stringIcNS_11char_traitsIcEENS_9allocatorIcEEEENS_12__value_typeIS7_mEENS_4lessIS7_EELb1EEEEEOT_RNS_16remove_referenceISF_E4typeE
FN:27,_ZNSt3__1L7forwardIRKNS_21piecewise_construct_tEEEOT_RNS_16remove_referenceIS4_E4typeE
FNDA:0,_ZNSt3__1L7forwardIRKNS_21piecewise_construct_tEEEOT_RNS_16remove_referenceIS4_E4typeE
FN:27,_ZNSt3__1L7forwardINS_5tupleIJRKNS_12basic_stringIcNS_11char_traitsIcEENS_9allocatorIcEEEEEEEEEOT_RNS_16remove_referenceISB_E4typeE
FNDA:0,_ZNSt3__1L7forwardINS_5tupleIJRKNS_12basic_stringIcNS_11char_traitsIcEENS_9allocatorIcEEEEEEEEEOT_RNS_16remove_referenceISB_E4typeE
FN:27,_ZNSt3__1L7forwardINS_5tupleIJEEEEEOT_RNS_16remove_referenceIS3_E4typeE
FNDA:0,_ZNSt3__1L7forwardINS_5tupleIJEEEEEOT_RNS_16remove_referenceIS3_E4typeE
FN:27,_ZNSt3__1L7forwardIRPNS_11__tree_nodeINS_12__value_typeINS_12basic_stringIcNS_11char_traitsIcEENS_9allocatorIcEEEEmEEPvEEEEOT_RNS_16remove_referenceISE_E4typeE
FNDA:0,_ZNSt3__1L7forwardIRPNS_11__tree_nodeINS_12__value_typeINS_12basic_stringIcNS_11char_traitsIcEENS_9allocatorIcEEEEmEEPvEEEEOT_RNS_16remove_referenceISE_E4typeE
FN:27,_ZNSt3__1L7forwardINS_22__tree_node_destructorINS_9allocatorINS_11__tree_nodeINS_12__value_typeINS_12basic_stringIcNS_11char_traitsIcEENS2_IcEEEEmEEPvEEEEEEEEOT_RNS_16remove_referenceISF_E4typeE
FNDA:0,_ZNSt3__1L7forwardINS_22__tree_node_destructorINS_9allocatorINS_11__tree_nodeINS_12__value_typeINS_12basic_stringIcNS_11char_traitsIcEENS2_IcEEEEmEEPvEEEEEEEEOT_RNS_16remove_referenceISF_E4typeE
FN:27,_ZNSt3__1L7forwardIRKNS_12basic_stringIcNS_11char_traitsIcEENS_9allocatorIcEEEEEEOT_RNS_16remove_referenceIS9_E4typeE
FNDA:0,_ZNSt3__1L7forwardIRKNS_12basic_stringIcNS_11char_traitsIcEENS_9allocatorIcEEEEEEOT_RNS_16remove_referenceIS9_E4typeE
FN:27,_ZNSt3__1L7forwardINS_15__tree_iteratorINS_12__value_typeINS_12basic_stringIcNS_11char_traitsIcEENS_9allocatorIcEEEEmEEPNS_11__tree_nodeIS9_PvEElEEEEOT_RNS_16remove_referenceISF_E4typeE
FNDA:0,_ZNSt3__1L7forwardINS_15__tree_iteratorINS_12__value_typeINS_12basic_stringIcNS_11char_traitsIcEENS_9allocatorIcEEEEmEEPNS_11__tree_nodeIS9_PvEElEEEEOT_RNS_16remove_referenceISF_E4typeE
FN:27,_ZNSt3__1L7forwardIRbEEOT_RNS_16remove_referenceIS2_E4typeE
FNDA:0,_ZNSt3__1L7forwardIRbEEOT_RNS_16remove_referenceIS2_E4typeE
FN:27,_ZNSt3__1L7forwardINS_18__default_init_tagEEEOT_RNS_16remove_referenceIS2_E4typeE
FNDA:13711,_ZNSt3__1L7forwardINS_18__default_init_tagEEEOT_RNS_16remove_referenceIS2_E4typeE
FN:27,_ZNSt3__1L7forwardIRPNS_11__list_nodeINS_4pairIcPKcEEPvEEEEOT_RNS_16remove_referenceISA_E4typeE
FNDA:0,_ZNSt3__1L7forwardIRPNS_11__list_nodeINS_4pairIcPKcEEPvEEEEOT_RNS_16remove_referenceISA_E4typeE
FN:27,_ZNSt3__1L7forwardINS_22__allocator_destructorINS_9allocatorINS_11__list_nodeINS_4pairIcPKcEEPvEEEEEEEEOT_RNS_16remove_referenceISC_E4typeE
FNDA:0,_ZNSt3__1L7forwardINS_22__allocator_destructorINS_9allocatorINS_11__list_nodeINS_4pairIcPKcEEPvEEEEEEEEOT_RNS_16remove_referenceISC_E4typeE
FN:27,_ZNSt3__1L7forwardINS_4pairIcPKcEEEEOT_RNS_16remove_referenceIS5_E4typeE
FNDA:0,_ZNSt3__1L7forwardINS_4pairIcPKcEEEEOT_RNS_16remove_referenceIS5_E4typeE
FN:27,_ZNSt3__1L7forwardIcEEOT_RNS_16remove_referenceIS1_E4typeE
FNDA:0,_ZNSt3__1L7forwardIcEEOT_RNS_16remove_referenceIS1_E4typeE
FN:27,_ZNSt3__1L7forwardIRPKcEEOT_RNS_16remove_referenceIS4_E4typeE
FNDA:0,_ZNSt3__1L7forwardIRPKcEEOT_RNS_16remove_referenceIS4_E4typeE
FN:27,_ZNSt3__1L7forwardIDnEEOT_RNS_16remove_referenceIS1_E4typeE
FNDA:9610,_ZNSt3__1L7forwardIDnEEOT_RNS_16remove_referenceIS1_E4typeE
FN:27,_ZNSt3__1L7forwardIRKPKcEEOT_RNS_16remove_referenceIS5_E4typeE
FNDA:0,_ZNSt3__1L7forwardIRKPKcEEOT_RNS_16remove_referenceIS5_E4typeE
FN:27,_ZNSt3__1L7forwardIRKNS_19__map_value_compareINS_12basic_stringIcNS_11char_traitsIcEENS_9allocatorIcEEEENS_12__value_typeIS7_N7testing8internal34TypeParameterizedTestSuiteRegistry30TypeParameterizedTestSuiteInfoEEENS_4lessIS7_EELb1EEEEEOT_RNS_16remove_referenceISJ_E4typeE
FNDA:40,_ZNSt3__1L7forwardIRKNS_19__map_value_compareINS_12basic_stringIcNS_11char_traitsIcEENS_9allocatorIcEEEENS_12__value_typeIS7_N7testing8internal34TypeParameterizedTestSuiteRegistry30TypeParameterizedTestSuiteInfoEEENS_4lessIS7_EELb1EEEEEOT_RNS_16remove_referenceISJ_E4typeE
FN:27,_ZNSt3__1L7forwardIPN7testing8internal24InternalRunDeathTestFlagEEEOT_RNS_16remove_referenceIS5_E4typeE
FNDA:40,_ZNSt3__1L7forwardIPN7testing8internal24InternalRunDeathTestFlagEEEOT_RNS_16remove_referenceIS5_E4typeE
FN:27,_ZNSt3__1L7forwardIPcEEOT_RNS_16remove_referenceIS2_E4typeE
FNDA:0,_ZNSt3__1L7forwardIPcEEOT_RNS_16remove_referenceIS2_E4typeE
FN:27,_ZNSt3__1L7forwardIRNS_9allocatorIPcEEEEOT_RNS_16remove_referenceIS5_E4typeE
FNDA:0,_ZNSt3__1L7forwardIRNS_9allocatorIPcEEEEOT_RNS_16remove_referenceIS5_E4typeE
FN:27,_ZNSt3__1L7forwardIRPNS_18basic_stringstreamIcNS_11char_traitsIcEENS_9allocatorIcEEEEEEOT_RNS_16remove_referenceIS9_E4typeE
FNDA:2176,_ZNSt3__1L7forwardIRPNS_18basic_stringstreamIcNS_11char_traitsIcEENS_9allocatorIcEEEEEEOT_RNS_16remove_referenceIS9_E4typeE
FN:27,_ZNSt3__1L7forwardINS_12basic_stringIcNS_11char_traitsIcEENS_9allocatorIcEEEEEEOT_RNS_16remove_referenceIS7_E4typeE
FNDA:293,_ZNSt3__1L7forwardINS_12basic_stringIcNS_11char_traitsIcEENS_9allocatorIcEEEEEEOT_RNS_16remove_referenceIS7_E4typeE
FN:27,_ZNSt3__1L7forwardIRPNS_11__tree_nodeINS_12basic_stringIcNS_11char_traitsIcEENS_9allocatorIcEEEEPvEEEEOT_RNS_16remove_referenceISC_E4typeE
FNDA:0,_ZNSt3__1L7forwardIRPNS_11__tree_nodeINS_12basic_stringIcNS_11char_traitsIcEENS_9allocatorIcEEEEPvEEEEOT_RNS_16remove_referenceISC_E4typeE
FN:27,_ZNSt3__1L7forwardINS_22__tree_node_destructorINS_9allocatorINS_11__tree_nodeINS_12basic_stringIcNS_11char_traitsIcEENS2_IcEEEEPvEEEEEEEEOT_RNS_16remove_referenceISD_E4typeE
FNDA:0,_ZNSt3__1L7forwardINS_22__tree_node_destructorINS_9allocatorINS_11__tree_nodeINS_12basic_stringIcNS_11char_traitsIcEENS2_IcEEEEPvEEEEEEEEOT_RNS_16remove_referenceISD_E4typeE
FN:27,_ZNSt3__1L7forwardINS_15__tree_iteratorINS_12basic_stringIcNS_11char_traitsIcEENS_9allocatorIcEEEEPNS_11__tree_nodeIS7_PvEElEEEEOT_RNS_16remove_referenceISD_E4typeE
FNDA:0,_ZNSt3__1L7forwardINS_15__tree_iteratorINS_12basic_stringIcNS_11char_traitsIcEENS_9allocatorIcEEEEPNS_11__tree_nodeIS7_PvEElEEEEOT_RNS_16remove_referenceISD_E4typeE
FN:27,_ZNSt3__1L7forwardIbEEOT_RNS_16remove_referenceIS1_E4typeE
FNDA:0,_ZNSt3__1L7forwardIbEEOT_RNS_16remove_referenceIS1_E4typeE
FN:27,_ZNSt3__1L7forwardIN7testing8internal34TypeParameterizedTestSuiteRegistry30TypeParameterizedTestSuiteInfoEEEOT_RNS_16remove_referenceIS5_E4typeE
FNDA:0,_ZNSt3__1L7forwardIN7testing8internal34TypeParameterizedTestSuiteRegistry30TypeParameterizedTestSuiteInfoEEEOT_RNS_16remove_referenceIS5_E4typeE
FN:27,_ZNSt3__1L7forwardIRPNS_11__tree_nodeINS_12__value_typeINS_12basic_stringIcNS_11char_traitsIcEENS_9allocatorIcEEEEN7testing8internal34TypeParameterizedTestSuiteRegistry30TypeParameterizedTestSuiteInfoEEEPvEEEEOT_RNS_16remove_referenceISI_E4typeE
FNDA:0,_ZNSt3__1L7forwardIRPNS_11__tree_nodeINS_12__value_typeINS_12basic_stringIcNS_11char_traitsIcEENS_9allocatorIcEEEEN7testing8internal34TypeParameterizedTestSuiteRegistry30TypeParameterizedTestSuiteInfoEEEPvEEEEOT_RNS_16remove_referenceISI_E4typeE
FN:27,_ZNSt3__1L7forwardINS_22__tree_node_destructorINS_9allocatorINS_11__tree_nodeINS_12__value_typeINS_12basic_stringIcNS_11char_traitsIcEENS2_IcEEEEN7testing8internal34TypeParameterizedTestSuiteRegistry30TypeParameterizedTestSuiteInfoEEEPvEEEEEEEEOT_RNS_16remove_referenceISJ_E4typeE
FNDA:0,_ZNSt3__1L7forwardINS_22__tree_node_destructorINS_9allocatorINS_11__tree_nodeINS_12__value_typeINS_12basic_stringIcNS_11char_traitsIcEENS2_IcEEEEN7testing8internal34TypeParameterizedTestSuiteRegistry30TypeParameterizedTestSuiteInfoEEEPvEEEEEEEEOT_RNS_16remove_referenceISJ_E4typeE
FN:27,_ZNSt3__1L7forwardINS_15__tree_iteratorINS_12__value_typeINS_12basic_stringIcNS_11char_traitsIcEENS_9allocatorIcEEEEN7testing8internal34TypeParameterizedTestSuiteRegistry30TypeParameterizedTestSuiteInfoEEEPNS_11__tree_nodeISD_PvEElEEEEOT_RNS_16remove_referenceISJ_E4typeE
FNDA:0,_ZNSt3__1L7forwardINS_15__tree_iteratorINS_12__value_typeINS_12basic_stringIcNS_11char_traitsIcEENS_9allocatorIcEEEEN7testing8internal34TypeParameterizedTestSuiteRegistry30TypeParameterizedTestSuiteInfoEEEPNS_11__tree_nodeISD_PvEElEEEEOT_RNS_16remove_referenceISJ_E4typeE
FN:27,_ZNSt3__1L7forwardINS_9allocatorINS_12basic_stringIcNS_11char_traitsIcEENS1_IcEEEEEEEEOT_RNS_16remove_referenceIS8_E4typeE
FNDA:80,_ZNSt3__1L7forwardINS_9allocatorINS_12basic_stringIcNS_11char_traitsIcEENS1_IcEEEEEEEEOT_RNS_16remove_referenceIS8_E4typeE
FN:27,_ZNSt3__1L7forwardIRNS_12basic_stringIcNS_11char_traitsIcEENS_9allocatorIcEEEEEEOT_RNS_16remove_referenceIS8_E4typeE
FNDA:118,_ZNSt3__1L7forwardIRNS_12basic_stringIcNS_11char_traitsIcEENS_9allocatorIcEEEEEEOT_RNS_16remove_referenceIS8_E4typeE
FN:27,_ZNSt3__1L7forwardIRKNS_9allocatorIcEEEEOT_RNS_16remove_referenceIS5_E4typeE
FNDA:760,_ZNSt3__1L7forwardIRKNS_9allocatorIcEEEEOT_RNS_16remove_referenceIS5_E4typeE
FN:27,_ZNSt3__1L7forwardIRNS_9allocatorINS_12basic_stringIcNS_11char_traitsIcEENS1_IcEEEEEEEEOT_RNS_16remove_referenceIS9_E4typeE
FNDA:118,_ZNSt3__1L7forwardIRNS_9allocatorINS_12basic_stringIcNS_11char_traitsIcEENS1_IcEEEEEEEEOT_RNS_16remove_referenceIS9_E4typeE
FN:27,_ZNSt3__1L7forwardIRPNS_12basic_stringIcNS_11char_traitsIcEENS_9allocatorIcEEEEEEOT_RNS_16remove_referenceIS9_E4typeE
FNDA:0,_ZNSt3__1L7forwardIRPNS_12basic_stringIcNS_11char_traitsIcEENS_9allocatorIcEEEEEEOT_RNS_16remove_referenceIS9_E4typeE
FN:27,_ZNSt3__1L7forwardIPNS_12basic_stringIcNS_11char_traitsIcEENS_9allocatorIcEEEEEEOT_RNS_16remove_referenceIS8_E4typeE
FNDA:0,_ZNSt3__1L7forwardIPNS_12basic_stringIcNS_11char_traitsIcEENS_9allocatorIcEEEEEEOT_RNS_16remove_referenceIS8_E4typeE
FN:27,_ZNSt3__1L7forwardIRKNS_6vectorIdNS_9allocatorIdEEEEEEOT_RNS_16remove_referenceIS7_E4typeE
FNDA:0,_ZNSt3__1L7forwardIRKNS_6vectorIdNS_9allocatorIdEEEEEEOT_RNS_16remove_referenceIS7_E4typeE
FN:27,_ZNSt3__1L7forwardINS_9allocatorIdEEEEOT_RNS_16remove_referenceIS3_E4typeE
FNDA:0,_ZNSt3__1L7forwardINS_9allocatorIdEEEEOT_RNS_16remove_referenceIS3_E4typeE
FN:27,_ZNSt3__1L7forwardIRKNS_6vectorIN7testing8internal13edit_distance8EditTypeENS_9allocatorIS5_EEEEEEOT_RNS_16remove_referenceISB_E4typeE
FNDA:0,_ZNSt3__1L7forwardIRKNS_6vectorIN7testing8internal13edit_distance8EditTypeENS_9allocatorIS5_EEEEEEOT_RNS_16remove_referenceISB_E4typeE
FN:27,_ZNSt3__1L7forwardINS_9allocatorIN7testing8internal13edit_distance8EditTypeEEEEEOT_RNS_16remove_referenceIS7_E4typeE
FNDA:0,_ZNSt3__1L7forwardINS_9allocatorIN7testing8internal13edit_distance8EditTypeEEEEEOT_RNS_16remove_referenceIS7_E4typeE
FN:27,_ZNSt3__1L7forwardIRKN7testing8internal13edit_distance8EditTypeEEEOT_RNS_16remove_referenceIS7_E4typeE
FNDA:0,_ZNSt3__1L7forwardIRKN7testing8internal13edit_distance8EditTypeEEEOT_RNS_16remove_referenceIS7_E4typeE
FN:27,_ZNSt3__1L7forwardIRNS_9allocatorIN7testing8internal13edit_distance8EditTypeEEEEEOT_RNS_16remove_referenceIS8_E4typeE
FNDA:0,_ZNSt3__1L7forwardIRNS_9allocatorIN7testing8internal13edit_distance8EditTypeEEEEEOT_RNS_16remove_referenceIS8_E4typeE
FN:27,_ZNSt3__1L7forwardImEEOT_RNS_16remove_referenceIS1_E4typeE
FNDA:0,_ZNSt3__1L7forwardImEEOT_RNS_16remove_referenceIS1_E4typeE
FN:27,_ZNSt3__1L7forwardIRNS_9allocatorImEEEEOT_RNS_16remove_referenceIS4_E4typeE
FNDA:0,_ZNSt3__1L7forwardIRNS_9allocatorImEEEEOT_RNS_16remove_referenceIS4_E4typeE
FN:27,_ZNSt3__1L7forwardIRKN7testing14TestPartResultEEEOT_RNS_16remove_referenceIS5_E4typeE
FNDA:0,_ZNSt3__1L7forwardIRKN7testing14TestPartResultEEEOT_RNS_16remove_referenceIS5_E4typeE
FN:27,_ZNSt3__1L7forwardIRNS_9allocatorIN7testing14TestPartResultEEEEEOT_RNS_16remove_referenceIS6_E4typeE
FNDA:0,_ZNSt3__1L7forwardIRNS_9allocatorIN7testing14TestPartResultEEEEEOT_RNS_16remove_referenceIS6_E4typeE
FN:27,_ZNSt3__1L7forwardIN7testing14TestPartResultEEEOT_RNS_16remove_referenceIS3_E4typeE
FNDA:0,_ZNSt3__1L7forwardIN7testing14TestPartResultEEEOT_RNS_16remove_referenceIS3_E4typeE
FN:27,_ZNSt3__1L7forwardIRKN7testing12TestPropertyEEEOT_RNS_16remove_referenceIS5_E4typeE
FNDA:0,_ZNSt3__1L7forwardIRKN7testing12TestPropertyEEEOT_RNS_16remove_referenceIS5_E4typeE
FN:27,_ZNSt3__1L7forwardIRNS_9allocatorIN7testing12TestPropertyEEEEEOT_RNS_16remove_referenceIS6_E4typeE
FNDA:0,_ZNSt3__1L7forwardIRNS_9allocatorIN7testing12TestPropertyEEEEEOT_RNS_16remove_referenceIS6_E4typeE
FN:27,_ZNSt3__1L7forwardIN7testing12TestPropertyEEEOT_RNS_16remove_referenceIS3_E4typeE
FNDA:0,_ZNSt3__1L7forwardIN7testing12TestPropertyEEEOT_RNS_16remove_referenceIS3_E4typeE
FN:27,_ZNSt3__1L7forwardIRPN7testing8internal14GTestFlagSaverEEEOT_RNS_16remove_referenceIS6_E4typeE
FNDA:38,_ZNSt3__1L7forwardIRPN7testing8internal14GTestFlagSaverEEEOT_RNS_16remove_referenceIS6_E4typeE
FN:27,_ZNSt3__1L7forwardIRPKNS_12basic_stringIcNS_11char_traitsIcEENS_9allocatorIcEEEEEEOT_RNS_16remove_referenceISA_E4typeE
FNDA:1600,_ZNSt3__1L7forwardIRPKNS_12basic_stringIcNS_11char_traitsIcEENS_9allocatorIcEEEEEEOT_RNS_16remove_referenceISA_E4typeE
FN:27,_ZNSt3__1L7forwardIRKPN7testing8TestInfoEEEOT_RNS_16remove_referenceIS6_E4typeE
FNDA:1140,_ZNSt3__1L7forwardIRKPN7testing8TestInfoEEEOT_RNS_16remove_referenceIS6_E4typeE
FN:27,_ZNSt3__1L7forwardIRNS_9allocatorIPN7testing8TestInfoEEEEEOT_RNS_16remove_referenceIS7_E4typeE
FNDA:320,_ZNSt3__1L7forwardIRNS_9allocatorIPN7testing8TestInfoEEEEEOT_RNS_16remove_referenceIS7_E4typeE
FN:27,_ZNSt3__1L7forwardIRNS_9allocatorIiEEEEOT_RNS_16remove_referenceIS4_E4typeE
FNDA:6812,_ZNSt3__1L7forwardIRNS_9allocatorIiEEEEOT_RNS_16remove_referenceIS4_E4typeE
FN:27,_ZNSt3__1L7forwardIRKPN7testing17TestEventListenerEEEOT_RNS_16remove_referenceIS6_E4typeE
FNDA:60,_ZNSt3__1L7forwardIRKPN7testing17TestEventListenerEEEOT_RNS_16remove_referenceIS6_E4typeE
FN:27,_ZNSt3__1L7forwardIRNS_9allocatorIPN7testing17TestEventListenerEEEEEOT_RNS_16remove_referenceIS7_E4typeE
FNDA:40,_ZNSt3__1L7forwardIRNS_9allocatorIPN7testing17TestEventListenerEEEEEOT_RNS_16remove_referenceIS7_E4typeE
FN:27,_ZNSt3__1L7forwardIRKPN7testing11EnvironmentEEEOT_RNS_16remove_referenceIS6_E4typeE
FNDA:0,_ZNSt3__1L7forwardIRKPN7testing11EnvironmentEEEOT_RNS_16remove_referenceIS6_E4typeE
FN:27,_ZNSt3__1L7forwardIRNS_9allocatorIPN7testing11EnvironmentEEEEEOT_RNS_16remove_referenceIS7_E4typeE
FNDA:0,_ZNSt3__1L7forwardIRNS_9allocatorIPN7testing11EnvironmentEEEEEOT_RNS_16remove_referenceIS7_E4typeE
FN:27,_ZNSt3__1L7forwardIRKN7testing8internal9TraceInfoEEEOT_RNS_16remove_referenceIS6_E4typeE
FNDA:0,_ZNSt3__1L7forwardIRKN7testing8internal9TraceInfoEEEOT_RNS_16remove_referenceIS6_E4typeE
FN:27,_ZNSt3__1L7forwardIRNS_9allocatorIN7testing8internal9TraceInfoEEEEEOT_RNS_16remove_referenceIS7_E4typeE
FNDA:0,_ZNSt3__1L7forwardIRNS_9allocatorIN7testing8internal9TraceInfoEEEEEOT_RNS_16remove_referenceIS7_E4typeE
FN:27,_ZNSt3__1L7forwardIN7testing8internal9TraceInfoEEEOT_RNS_16remove_referenceIS4_E4typeE
FNDA:0,_ZNSt3__1L7forwardIN7testing8internal9TraceInfoEEEOT_RNS_16remove_referenceIS4_E4typeE
FN:27,_ZNSt3__1L7forwardIRPN7testing8internal11ThreadLocalIPNS1_31TestPartResultReporterInterfaceEE18ValueHolderFactoryEEEOT_RNS_16remove_referenceISA_E4typeE
FNDA:40,_ZNSt3__1L7forwardIRPN7testing8internal11ThreadLocalIPNS1_31TestPartResultReporterInterfaceEE18ValueHolderFactoryEEEOT_RNS_16remove_referenceISA_E4typeE
FN:27,_ZNSt3__1L7forwardIRPN7testing8internal16DeathTestFactoryEEEOT_RNS_16remove_referenceIS6_E4typeE
FNDA:40,_ZNSt3__1L7forwardIRPN7testing8internal16DeathTestFactoryEEEOT_RNS_16remove_referenceIS6_E4typeE
FN:27,_ZNSt3__1L7forwardIRKNS_4lessINS_12basic_stringIcNS_11char_traitsIcEENS_9allocatorIcEEEEEEEEOT_RNS_16remove_referenceISB_E4typeE
FNDA:40,_ZNSt3__1L7forwardIRKNS_4lessINS_12basic_stringIcNS_11char_traitsIcEENS_9allocatorIcEEEEEEEEOT_RNS_16remove_referenceISB_E4typeE
FN:27,_ZNSt3__1L7forwardIRPN7testing8internal11ThreadLocalINS_6vectorINS2_9TraceInfoENS_9allocatorIS5_EEEEE18ValueHolderFactoryEEEOT_RNS_16remove_referenceISD_E4typeE
FNDA:40,_ZNSt3__1L7forwardIRPN7testing8internal11ThreadLocalINS_6vectorINS2_9TraceInfoENS_9allocatorIS5_EEEEE18ValueHolderFactoryEEEOT_RNS_16remove_referenceISD_E4typeE
FN:27,_ZNSt3__1L7forwardIRKPN7testing9TestSuiteEEEOT_RNS_16remove_referenceIS6_E4typeE
FNDA:120,_ZNSt3__1L7forwardIRKPN7testing9TestSuiteEEEOT_RNS_16remove_referenceIS6_E4typeE
FN:27,_ZNSt3__1L7forwardIPN7testing9TestSuiteEEEOT_RNS_16remove_referenceIS4_E4typeE
FNDA:0,_ZNSt3__1L7forwardIPN7testing9TestSuiteEEEOT_RNS_16remove_referenceIS4_E4typeE
FN:27,_ZNSt3__1L7forwardIRNS_9allocatorIPN7testing9TestSuiteEEEEEOT_RNS_16remove_referenceIS7_E4typeE
FNDA:80,_ZNSt3__1L7forwardIRNS_9allocatorIPN7testing9TestSuiteEEEEEOT_RNS_16remove_referenceIS7_E4typeE
FN:27,_ZNSt3__1L7forwardIN7testing8internal9EqMatcherINS_12basic_stringIcNS_11char_traitsIcEENS_9allocatorIcEEEEEEEEOT_RNS_16remove_referenceISB_E4typeE
FNDA:0,_ZNSt3__1L7forwardIN7testing8internal9EqMatcherINS_12basic_stringIcNS_11char_traitsIcEENS_9allocatorIcEEEEEEEEOT_RNS_16remove_referenceISB_E4typeE
FN:27,_ZNSt3__1L7forwardIPKN7testing8internal11MatcherBaseIRKNS_12basic_stringIcNS_11char_traitsIcEENS_9allocatorIcEEEEEEEEOT_RNS_16remove_referenceISF_E4typeE
FNDA:0,_ZNSt3__1L7forwardIPKN7testing8internal11MatcherBaseIRKNS_12basic_stringIcNS_11char_traitsIcEENS_9allocatorIcEEEEEEEEOT_RNS_16remove_referenceISF_E4typeE
FN:27,_ZNSt3__1L7forwardIPKN7testing8internal9EqMatcherINS_12basic_stringIcNS_11char_traitsIcEENS_9allocatorIcEEEEEEEEOT_RNS_16remove_referenceISD_E4typeE
FNDA:0,_ZNSt3__1L7forwardIPKN7testing8internal9EqMatcherINS_12basic_stringIcNS_11char_traitsIcEENS_9allocatorIcEEEEEEEEOT_RNS_16remove_referenceISD_E4typeE
FN:27,_ZNSt3__1L7forwardIPKN7testing8internal11MatcherBaseINS_12basic_stringIcNS_11char_traitsIcEENS_9allocatorIcEEEEEEEEOT_RNS_16remove_referenceISD_E4typeE
FNDA:0,_ZNSt3__1L7forwardIPKN7testing8internal11MatcherBaseINS_12basic_stringIcNS_11char_traitsIcEENS_9allocatorIcEEEEEEEEOT_RNS_16remove_referenceISD_E4typeE
FN:27,_ZNSt3__1L7forwardIPKN7testing8internal11MatcherBaseIRKNS_17basic_string_viewIcNS_11char_traitsIcEEEEEEEEOT_RNS_16remove_referenceISD_E4typeE
FNDA:0,_ZNSt3__1L7forwardIPKN7testing8internal11MatcherBaseIRKNS_17basic_string_viewIcNS_11char_traitsIcEEEEEEEEOT_RNS_16remove_referenceISD_E4typeE
FN:27,_ZNSt3__1L7forwardIPKN7testing8internal11MatcherBaseINS_17basic_string_viewIcNS_11char_traitsIcEEEEEEEEOT_RNS_16remove_referenceISB_E4typeE
FNDA:0,_ZNSt3__1L7forwardIPKN7testing8internal11MatcherBaseINS_17basic_string_viewIcNS_11char_traitsIcEEEEEEEEOT_RNS_16remove_referenceISB_E4typeE
DA:27,38656
DA:28,38656
FNF:77
FNH:24
LF:2
LH:2
end_of_record
SF:/Users/dogukanarat/Desktop/Workspace/RocketLab/Binaries/Debug/Intermediate/_deps/googletest-src/googletest/src/gtest.cc
FN:181,_ZN7testing8internalL18OpenFileForWritingERKNSt3__112basic_stringIcNS1_11char_traitsIcEENS1_9allocatorIcEEEE
FNDA:0,_ZN7testing8internalL18OpenFileForWritingERKNSt3__112basic_stringIcNS1_11char_traitsIcEENS1_9allocatorIcEEEE
FN:199,_ZN7testingL16GetDefaultFilterEv
FNDA:20,_ZN7testingL16GetDefaultFilterEv
FN:210,_ZN7testingL18GetDefaultFailFastEv
FNDA:20,_ZN7testingL18GetDefaultFailFastEv
FN:348,_ZN7testing8internal6Random8GenerateEj
FNDA:0,_ZN7testing8internal6Random8GenerateEj
FN:368,_ZN7testing8internalL18GTestIsInitializedEv
FNDA:40,_ZN7testing8internalL18GTestIsInitializedEv
FN:373,_ZN7testing8internalL20SumOverTestSuiteListERKNSt3__16vectorIPNS_9TestSuiteENS1_9allocatorIS4_EEEEMS3_KFivE
FNDA:95,_ZN7testing8internalL20SumOverTestSuiteListERKNSt3__16vectorIPNS_9TestSuiteENS1_9allocatorIS4_EEEEMS3_KFivE
FN:383,_ZN7testing8internalL15TestSuitePassedEPKNS_9TestSuiteE
FNDA:0,_ZN7testing8internalL15TestSuitePassedEPKNS_9TestSuiteE
FN:388,_ZN7testing8internalL15TestSuiteFailedEPKNS_9TestSuiteE
FNDA:76,_ZN7testing8internalL15TestSuiteFailedEPKNS_9TestSuiteE
FN:394,_ZN7testing8internalL18ShouldRunTestSuiteEPKNS_9TestSuiteE
FNDA:76,_ZN7testing8internalL18ShouldRunTestSuiteEPKNS_9TestSuiteE
FN:399,_ZN7testing8internal12AssertHelperC2ENS_14TestPartResult4TypeEPKciS5_
FNDA:0,_ZN7testing8internal12AssertHelperC2ENS_14TestPartResult4TypeEPKciS5_
FN:399,_ZN7testing8internal12AssertHelperC1ENS_14TestPartResult4TypeEPKciS5_
FNDA:0,_ZN7testing8internal12AssertHelperC1ENS_14TestPartResult4TypeEPKciS5_
FN:406,_ZN7testing8internal12AssertHelperD2Ev
FNDA:0,_ZN7testing8internal12AssertHelperD2Ev
FN:406,_ZN7testing8internal12AssertHelperD1Ev
FNDA:0,_ZN7testing8internal12AssertHelperD1Ev
FN:411,_ZNK7testing8internal12AssertHelperaSERKNS_7MessageE
FNDA:0,_ZNK7testing8internal12AssertHelperaSERKNS_7MessageE
FN:432,_ZN7testing8internal12_GLOBAL__N_111FailureTestD1Ev
FNDA:0,_ZN7testing8internal12_GLOBAL__N_111FailureTestD1Ev
FN:432,_ZN7testing8internal12_GLOBAL__N_111FailureTestD0Ev
FNDA:0,_ZN7testing8internal12_GLOBAL__N_111FailureTestD0Ev
FN:432,_ZN7testing8internal12_GLOBAL__N_111FailureTestD2Ev
FNDA:0,_ZN7testing8internal12_GLOBAL__N_111FailureTestD2Ev
FN:434,_ZN7testing8internal12_GLOBAL__N_111FailureTestC1ERKNS0_12CodeLocationENSt3__112basic_stringIcNS6_11char_traitsIcEENS6_9allocatorIcEEEEb
FNDA:0,_ZN7testing8internal12_GLOBAL__N_111FailureTestC1ERKNS0_12CodeLocationENSt3__112basic_stringIcNS6_11char_traitsIcEENS6_9allocatorIcEEEEb
FN:434,_ZN7testing8internal12_GLOBAL__N_111FailureTestC2ERKNS0_12CodeLocationENSt3__112basic_stringIcNS6_11char_traitsIcEENS6_9allocatorIcEEEEb
FNDA:0,_ZN7testing8internal12_GLOBAL__N_111FailureTestC2ERKNS0_12CodeLocationENSt3__112basic_stringIcNS6_11char_traitsIcEENS6_9allocatorIcEEEEb
FN:440,_ZN7testing8internal12_GLOBAL__N_111FailureTest8TestBodyEv
FNDA:0,_ZN7testing8internal12_GLOBAL__N_111FailureTest8TestBodyEv
FN:458,_ZN7testing8internal33GetIgnoredParameterizedTestSuitesEv
FNDA:20,_ZN7testing8internal33GetIgnoredParameterizedTestSuitesEv
FN:463,_ZN7testing8internal13MarkAsIgnoredC2EPKc
FNDA:0,_ZN7testing8internal13MarkAsIgnoredC2EPKc
FN:463,_ZN7testing8internal13MarkAsIgnoredC1EPKc
FNDA:0,_ZN7testing8internal13MarkAsIgnoredC1EPKc
FN:469,_ZN7testing8internal23InsertSyntheticTestCaseERKNSt3__112basic_stringIcNS1_11char_traitsIcEENS1_9allocatorIcEEEENS0_12CodeLocationEb
FNDA:0,_ZN7testing8internal23InsertSyntheticTestCaseERKNSt3__112basic_stringIcNS1_11char_traitsIcEENS1_9allocatorIcEEEENS0_12CodeLocationEb
FN:506,_ZZN7testing8internal23InsertSyntheticTestCaseERKNSt3__112basic_stringIcNS1_11char_traitsIcEENS1_9allocatorIcEEEENS0_12CodeLocationEbEN3$_0D1Ev
FNDA:0,_ZZN7testing8internal23InsertSyntheticTestCaseERKNSt3__112basic_stringIcNS1_11char_traitsIcEENS1_9allocatorIcEEEENS0_12CodeLocationEbEN3$_0D1Ev
FN:506,_ZZN7testing8internal23InsertSyntheticTestCaseERKNSt3__112basic_stringIcNS1_11char_traitsIcEENS1_9allocatorIcEEEENS0_12CodeLocationEbEN3$_0D2Ev
FNDA:0,_ZZN7testing8internal23InsertSyntheticTestCaseERKNSt3__112basic_stringIcNS1_11char_traitsIcEENS1_9allocatorIcEEEENS0_12CodeLocationEbEN3$_0D2Ev
FN:506,_ZZN7testing8internal23InsertSyntheticTestCaseERKNSt3__112basic_stringIcNS1_11char_traitsIcEENS1_9allocatorIcEEEENS0_12CodeLocationEbEN3$_0C1EOSB_
FNDA:0,_ZZN7testing8internal23InsertSyntheticTestCaseERKNSt3__112basic_stringIcNS1_11char_traitsIcEENS1_9allocatorIcEEEENS0_12CodeLocationEbEN3$_0C1EOSB_
FN:506,_ZZN7testing8internal23InsertSyntheticTestCaseERKNSt3__112basic_stringIcNS1_11char_traitsIcEENS1_9allocatorIcEEEENS0_12CodeLocationEbEN3$_0C2EOSB_
FNDA:0,_ZZN7testing8internal23InsertSyntheticTestCaseERKNSt3__112basic_stringIcNS1_11char_traitsIcEENS1_9allocatorIcEEEENS0_12CodeLocationEbEN3$_0C2EOSB_
FN:506,_ZZN7testing8internal23InsertSyntheticTestCaseERKNSt3__112basic_stringIcNS1_11char_traitsIcEENS1_9allocatorIcEEEENS0_12CodeLocationEbENK3$_0clEv
FNDA:0,_ZZN7testing8internal23InsertSyntheticTestCaseERKNSt3__112basic_stringIcNS1_11char_traitsIcEENS1_9allocatorIcEEEENS0_12CodeLocationEbENK3$_0clEv
FN:512,_ZN7testing8internal34RegisterTypeParameterizedTestSuiteEPKcNS0_12CodeLocationE
FNDA:0,_ZN7testing8internal34RegisterTypeParameterizedTestSuiteEPKcNS0_12CodeLocationE
FN:518,_ZN7testing8internal47RegisterTypeParameterizedTestSuiteInstantiationEPKc
FNDA:0,_ZN7testing8internal47RegisterTypeParameterizedTestSuiteInstantiationEPKc
FN:524,_ZN7testing8internal34TypeParameterizedTestSuiteRegistry17RegisterTestSuiteEPKcNS0_12CodeLocationE
FNDA:0,_ZN7testing8internal34TypeParameterizedTestSuiteRegistry17RegisterTestSuiteEPKcNS0_12CodeLocationE
FN:530,_ZN7testing8internal34TypeParameterizedTestSuiteRegistry21RegisterInstantiationEPKc
FNDA:0,_ZN7testing8internal34TypeParameterizedTestSuiteRegistry21RegisterInstantiationEPKc
FN:541,_ZN7testing8internal34TypeParameterizedTestSuiteRegistry22CheckForInstantiationsEv
FNDA:20,_ZN7testing8internal34TypeParameterizedTestSuiteRegistry22CheckForInstantiationsEv
FN:570,_ZZN7testing8internal34TypeParameterizedTestSuiteRegistry22CheckForInstantiationsEvEN3$_1D1Ev
FNDA:0,_ZZN7testing8internal34TypeParameterizedTestSuiteRegistry22CheckForInstantiationsEvEN3$_1D1Ev
FN:570,_ZZN7testing8internal34TypeParameterizedTestSuiteRegistry22CheckForInstantiationsEvEN3$_1D2Ev
FNDA:0,_ZZN7testing8internal34TypeParameterizedTestSuiteRegistry22CheckForInstantiationsEvEN3$_1D2Ev
FN:570,_ZZN7testing8internal34TypeParameterizedTestSuiteRegistry22CheckForInstantiationsEvEN3$_1C1EOS2_
FNDA:0,_ZZN7testing8internal34TypeParameterizedTestSuiteRegistry22CheckForInstantiationsEvEN3$_1C1EOS2_
FN:570,_ZZN7testing8internal34TypeParameterizedTestSuiteRegistry22CheckForInstantiationsEvEN3$_1C2EOS2_
FNDA:0,_ZZN7testing8internal34TypeParameterizedTestSuiteRegistry22CheckForInstantiationsEvEN3$_1C2EOS2_
FN:570,_ZZN7testing8internal34TypeParameterizedTestSuiteRegistry22CheckForInstantiationsEvENK3$_1clEv
FNDA:0,_ZZN7testing8internal34TypeParameterizedTestSuiteRegistry22CheckForInstantiationsEvENK3$_1clEv
FN:580,_ZN7testing8internal8GetArgvsEv
FNDA:40,_ZN7testing8internal8GetArgvsEv
FN:593,_ZN7testing8internal24GetCurrentExecutableNameEv
FNDA:0,_ZN7testing8internal24GetCurrentExecutableNameEv
FN:608,_ZN7testing8internal15UnitTestOptions15GetOutputFormatEv
FNDA:21,_ZN7testing8internal15UnitTestOptions15GetOutputFormatEv
FN:619,_ZN7testing8internal15UnitTestOptions27GetAbsolutePathToOutputFileEv
FNDA:0,_ZN7testing8internal15UnitTestOptions27GetAbsolutePathToOutputFileEv
FN:655,_ZN7testing8internalL20PatternMatchesStringERKNSt3__112basic_stringIcNS1_11char_traitsIcEENS1_9allocatorIcEEEEPKcSB_
FNDA:2018,_ZN7testing8internalL20PatternMatchesStringERKNSt3__112basic_stringIcNS1_11char_traitsIcEENS1_9allocatorIcEEEEPKcSB_
FN:702,_ZN7testing8internal15UnitTestOptions13MatchesFilterERKNSt3__112basic_stringIcNS2_11char_traitsIcEENS2_9allocatorIcEEEEPKc
FNDA:1218,_ZN7testing8internal15UnitTestOptions13MatchesFilterERKNSt3__112basic_stringIcNS2_11char_traitsIcEENS2_9allocatorIcEEEEPKc
FN:729,_ZN7testing8internal15UnitTestOptions17FilterMatchesTestERKNSt3__112basic_stringIcNS2_11char_traitsIcEENS2_9allocatorIcEEEESA_
FNDA:380,_ZN7testing8internal15UnitTestOptions17FilterMatchesTestERKNSt3__112basic_stringIcNS2_11char_traitsIcEENS2_9allocatorIcEEEESA_
FN:790,_ZN7testing32ScopedFakeTestPartResultReporterC2EPNS_19TestPartResultArrayE
FNDA:0,_ZN7testing32ScopedFakeTestPartResultReporterC2EPNS_19TestPartResultArrayE
FN:790,_ZN7testing32ScopedFakeTestPartResultReporterC1EPNS_19TestPartResultArrayE
FNDA:0,_ZN7testing32ScopedFakeTestPartResultReporterC1EPNS_19TestPartResultArrayE
FN:800,_ZN7testing32ScopedFakeTestPartResultReporterC2ENS0_13InterceptModeEPNS_19TestPartResultArrayE
FNDA:0,_ZN7testing32ScopedFakeTestPartResultReporterC2ENS0_13InterceptModeEPNS_19TestPartResultArrayE
FN:800,_ZN7testing32ScopedFakeTestPartResultReporterC1ENS0_13InterceptModeEPNS_19TestPartResultArrayE
FNDA:0,_ZN7testing32ScopedFakeTestPartResultReporterC1ENS0_13InterceptModeEPNS_19TestPartResultArrayE
FN:807,_ZN7testing32ScopedFakeTestPartResultReporter4InitEv
FNDA:0,_ZN7testing32ScopedFakeTestPartResultReporter4InitEv
FN:820,_ZN7testing32ScopedFakeTestPartResultReporterD2Ev
FNDA:0,_ZN7testing32ScopedFakeTestPartResultReporterD2Ev
FN:820,_ZN7testing32ScopedFakeTestPartResultReporterD1Ev
FNDA:0,_ZN7testing32ScopedFakeTestPartResultReporterD1Ev
FN:820,_ZN7testing32ScopedFakeTestPartResultReporterD0Ev
FNDA:0,_ZN7testing32ScopedFakeTestPartResultReporterD0Ev
FN:831,_ZN7testing32ScopedFakeTestPartResultReporter20ReportTestPartResultERKNS_14TestPartResultE
FNDA:0,_ZN7testing32ScopedFakeTestPartResultReporter20ReportTestPartResultERKNS_14TestPartResultE
FN:847,_ZN7testing8internal13GetTestTypeIdEv
FNDA:20,_ZN7testing8internal13GetTestTypeIdEv
FN:858,_ZN7testing8internalL13HasOneFailureEPKcS2_S2_RKNS_19TestPartResultArrayENS_14TestPartResult4TypeERKNSt3__112basic_stringIcNS8_11char_traitsIcEENS8_9allocatorIcEEEE
FNDA:0,_ZN7testing8internalL13HasOneFailureEPKcS2_S2_RKNS_19TestPartResultArrayENS_14TestPartResult4TypeERKNSt3__112basic_stringIcNS8_11char_traitsIcEENS8_9allocatorIcEEEE
FN:897,_ZN7testing8internal20SingleFailureCheckerC2EPKNS_19TestPartResultArrayENS_14TestPartResult4TypeERKNSt3__112basic_stringIcNS7_11char_traitsIcEENS7_9allocatorIcEEEE
FNDA:0,_ZN7testing8internal20SingleFailureCheckerC2EPKNS_19TestPartResultArrayENS_14TestPartResult4TypeERKNSt3__112basic_stringIcNS7_11char_traitsIcEENS7_9allocatorIcEEEE
FN:897,_ZN7testing8internal20SingleFailureCheckerC1EPKNS_19TestPartResultArrayENS_14TestPartResult4TypeERKNSt3__112basic_stringIcNS7_11char_traitsIcEENS7_9allocatorIcEEEE
FNDA:0,_ZN7testing8internal20SingleFailureCheckerC1EPKNS_19TestPartResultArrayENS_14TestPartResult4TypeERKNSt3__112basic_stringIcNS7_11char_traitsIcEENS7_9allocatorIcEEEE
FN:906,_ZN7testing8internal20SingleFailureCheckerD2Ev
FNDA:0,_ZN7testing8internal20SingleFailureCheckerD2Ev
FN:906,_ZN7testing8internal20SingleFailureCheckerD1Ev
FNDA:0,_ZN7testing8internal20SingleFailureCheckerD1Ev
FN:910,_ZN7testing8internal35DefaultGlobalTestPartResultReporterC2EPNS0_12UnitTestImplE
FNDA:20,_ZN7testing8internal35DefaultGlobalTestPartResultReporterC2EPNS0_12UnitTestImplE
FN:910,_ZN7testing8internal35DefaultGlobalTestPartResultReporterC1EPNS0_12UnitTestImplE
FNDA:20,_ZN7testing8internal35DefaultGlobalTestPartResultReporterC1EPNS0_12UnitTestImplE
FN:913,_ZN7testing8internal35DefaultGlobalTestPartResultReporter20ReportTestPartResultERKNS_14TestPartResultE
FNDA:0,_ZN7testing8internal35DefaultGlobalTestPartResultReporter20ReportTestPartResultERKNS_14TestPartResultE
FN:919,_ZN7testing8internal38DefaultPerThreadTestPartResultReporterC2EPNS0_12UnitTestImplE
FNDA:20,_ZN7testing8internal38DefaultPerThreadTestPartResultReporterC2EPNS0_12UnitTestImplE
FN:919,_ZN7testing8internal38DefaultPerThreadTestPartResultReporterC1EPNS0_12UnitTestImplE
FNDA:20,_ZN7testing8internal38DefaultPerThreadTestPartResultReporterC1EPNS0_12UnitTestImplE
FN:922,_ZN7testing8internal38DefaultPerThreadTestPartResultReporter20ReportTestPartResultERKNS_14TestPartResultE
FNDA:0,_ZN7testing8internal38DefaultPerThreadTestPartResultReporter20ReportTestPartResultERKNS_14TestPartResultE
FN:929,_ZN7testing8internal12UnitTestImpl31GetGlobalTestPartResultReporterEv
FNDA:0,_ZN7testing8internal12UnitTestImpl31GetGlobalTestPartResultReporterEv
FN:935,_ZN7testing8internal12UnitTestImpl31SetGlobalTestPartResultReporterEPNS_31TestPartResultReporterInterfaceE
FNDA:0,_ZN7testing8internal12UnitTestImpl31SetGlobalTestPartResultReporterEPNS_31TestPartResultReporterInterfaceE
FN:943,_ZN7testing8internal12UnitTestImpl41GetTestPartResultReporterForCurrentThreadEv
FNDA:0,_ZN7testing8internal12UnitTestImpl41GetTestPartResultReporterForCurrentThreadEv
FN:948,_ZN7testing8internal12UnitTestImpl41SetTestPartResultReporterForCurrentThreadEPNS_31TestPartResultReporterInterfaceE
FNDA:0,_ZN7testing8internal12UnitTestImpl41SetTestPartResultReporterForCurrentThreadEPNS_31TestPartResultReporterInterfaceE
FN:954,_ZNK7testing8internal12UnitTestImpl27successful_test_suite_countEv
FNDA:0,_ZNK7testing8internal12UnitTestImpl27successful_test_suite_countEv
FN:959,_ZNK7testing8internal12UnitTestImpl23failed_test_suite_countEv
FNDA:38,_ZNK7testing8internal12UnitTestImpl23failed_test_suite_countEv
FN:964,_ZNK7testing8internal12UnitTestImpl22total_test_suite_countEv
FNDA:57,_ZNK7testing8internal12UnitTestImpl22total_test_suite_countEv
FN:970,_ZNK7testing8internal12UnitTestImpl23test_suite_to_run_countEv
FNDA:38,_ZNK7testing8internal12UnitTestImpl23test_suite_to_run_countEv
FN:975,_ZNK7testing8internal12UnitTestImpl21successful_test_countEv
FNDA:19,_ZNK7testing8internal12UnitTestImpl21successful_test_countEv
FN:980,_ZNK7testing8internal12UnitTestImpl18skipped_test_countEv
FNDA:19,_ZNK7testing8internal12UnitTestImpl18skipped_test_countEv
FN:985,_ZNK7testing8internal12UnitTestImpl17failed_test_countEv
FNDA:0,_ZNK7testing8internal12UnitTestImpl17failed_test_countEv
FN:990,_ZNK7testing8internal12UnitTestImpl30reportable_disabled_test_countEv
FNDA:19,_ZNK7testing8internal12UnitTestImpl30reportable_disabled_test_countEv
FN:996,_ZNK7testing8internal12UnitTestImpl19disabled_test_countEv
FNDA:0,_ZNK7testing8internal12UnitTestImpl19disabled_test_countEv
FN:1001,_ZNK7testing8internal12UnitTestImpl21reportable_test_countEv
FNDA:0,_ZNK7testing8internal12UnitTestImpl21reportable_test_countEv
FN:1006,_ZNK7testing8internal12UnitTestImpl16total_test_countEv
FNDA:0,_ZNK7testing8internal12UnitTestImpl16total_test_countEv
FN:1011,_ZNK7testing8internal12UnitTestImpl17test_to_run_countEv
FNDA:38,_ZNK7testing8internal12UnitTestImpl17test_to_run_countEv
FN:1025,_ZN7testing8internal12UnitTestImpl28CurrentOsStackTraceExceptTopEi
FNDA:0,_ZN7testing8internal12UnitTestImpl28CurrentOsStackTraceExceptTopEi
FN:1035,_ZN7testing8internal15GetTimeInMillisEv
FNDA:133,_ZN7testing8internal15GetTimeInMillisEv
FN:1086,_ZN7testing8internal6String13CStringEqualsEPKcS3_
FNDA:228,_ZN7testing8internal6String13CStringEqualsEPKcS3_
FN:1098,_ZN7testing8internalL24StreamWideCharsToMessageEPKwmPNS_7MessageE
FNDA:0,_ZN7testing8internalL24StreamWideCharsToMessageEPKwmPNS_7MessageE
FN:1114,_ZN7testing8internal11SplitStringERKNSt3__112basic_stringIcNS1_11char_traitsIcEENS1_9allocatorIcEEEEcPNS1_6vectorIS7_NS5_IS7_EEEE
FNDA:0,_ZN7testing8internal11SplitStringERKNSt3__112basic_stringIcNS1_11char_traitsIcEENS1_9allocatorIcEEEEcPNS1_6vectorIS7_NS5_IS7_EEEE
FN:1138,_ZN7testing7MessageC1Ev
FNDA:1088,_ZN7testing7MessageC1Ev
FN:1138,_ZN7testing7MessageC2Ev
FNDA:1088,_ZN7testing7MessageC2Ev
FN:1146,_ZN7testing7MessagelsEPKw
FNDA:0,_ZN7testing7MessagelsEPKw
FN:1149,_ZN7testing7MessagelsEPw
FNDA:0,_ZN7testing7MessagelsEPw
FN:1156,_ZN7testing7MessagelsERKNSt3__112basic_stringIwNS1_11char_traitsIwEENS1_9allocatorIwEEEE
FNDA:0,_ZN7testing7MessagelsERKNSt3__112basic_stringIwNS1_11char_traitsIwEENS1_9allocatorIwEEEE
FN:1164,_ZNK7testing7Message9GetStringEv
FNDA:1088,_ZNK7testing7Message9GetStringEv
FN:1170,_ZN7testing15AssertionResultC2ERKS0_
FNDA:0,_ZN7testing15AssertionResultC2ERKS0_
FN:1170,_ZN7testing15AssertionResultC1ERKS0_
FNDA:0,_ZN7testing15AssertionResultC1ERKS0_
FN:1177,_ZN7testing15AssertionResult4swapERS0_
FNDA:0,_ZN7testing15AssertionResult4swapERS0_
FN:1184,_ZNK7testing15AssertionResultntEv
FNDA:0,_ZNK7testing15AssertionResultntEv
FN:1191,_ZN7testing16AssertionSuccessEv
FNDA:32,_ZN7testing16AssertionSuccessEv
FN:1196,_ZN7testing16AssertionFailureEv
FNDA:0,_ZN7testing16AssertionFailureEv
FN:1202,_ZN7testing16AssertionFailureERKNS_7MessageE
FNDA:0,_ZN7testing16AssertionFailureERKNS_7MessageE
FN:1209,_ZN7testing8internal13edit_distance21CalculateOptimalEditsERKNSt3__16vectorImNS2_9allocatorImEEEES8_
FNDA:0,_ZN7testing8internal13edit_distance21CalculateOptimalEditsERKNSt3__16vectorImNS2_9allocatorImEEEES8_
FN:1269,_ZN7testing8internal13edit_distance12_GLOBAL__N_115InternalStringsC1Ev
FNDA:0,_ZN7testing8internal13edit_distance12_GLOBAL__N_115InternalStringsC1Ev
FN:1269,_ZN7testing8internal13edit_distance12_GLOBAL__N_115InternalStringsD1Ev
FNDA:0,_ZN7testing8internal13edit_distance12_GLOBAL__N_115InternalStringsD1Ev
FN:1269,_ZN7testing8internal13edit_distance12_GLOBAL__N_115InternalStringsC2Ev
FNDA:0,_ZN7testing8internal13edit_distance12_GLOBAL__N_115InternalStringsC2Ev
FN:1269,_ZN7testing8internal13edit_distance12_GLOBAL__N_115InternalStringsD2Ev
FNDA:0,_ZN7testing8internal13edit_distance12_GLOBAL__N_115InternalStringsD2Ev
FN:1271,_ZN7testing8internal13edit_distance12_GLOBAL__N_115InternalStrings5GetIdERKNSt3__112basic_stringIcNS4_11char_traitsIcEENS4_9allocatorIcEEEE
FNDA:0,_ZN7testing8internal13edit_distance12_GLOBAL__N_115InternalStrings5GetIdERKNSt3__112basic_stringIcNS4_11char_traitsIcEENS4_9allocatorIcEEEE
FN:1285,_ZN7testing8internal13edit_distance21CalculateOptimalEditsERKNSt3__16vectorINS2_12basic_stringIcNS2_11char_traitsIcEENS2_9allocatorIcEEEENS7_IS9_EEEESD_
FNDA:0,_ZN7testing8internal13edit_distance21CalculateOptimalEditsERKNSt3__16vectorINS2_12basic_stringIcNS2_11char_traitsIcEENS2_9allocatorIcEEEENS7_IS9_EEEESD_
FN:1307,_ZN7testing8internal13edit_distance12_GLOBAL__N_14HunkD1Ev
FNDA:0,_ZN7testing8internal13edit_distance12_GLOBAL__N_14HunkD1Ev
FN:1307,_ZN7testing8internal13edit_distance12_GLOBAL__N_14HunkD2Ev
FNDA:0,_ZN7testing8internal13edit_distance12_GLOBAL__N_14HunkD2Ev
FN:1309,_ZN7testing8internal13edit_distance12_GLOBAL__N_14HunkC1Emm
FNDA:0,_ZN7testing8internal13edit_distance12_GLOBAL__N_14HunkC1Emm
FN:1309,_ZN7testing8internal13edit_distance12_GLOBAL__N_14HunkC2Emm
FNDA:0,_ZN7testing8internal13edit_distance12_GLOBAL__N_14HunkC2Emm
FN:1316,_ZN7testing8internal13edit_distance12_GLOBAL__N_14Hunk8PushLineEcPKc
FNDA:0,_ZN7testing8internal13edit_distance12_GLOBAL__N_14Hunk8PushLineEcPKc
FN:1334,_ZN7testing8internal13edit_distance12_GLOBAL__N_14Hunk7PrintToEPNSt3__113basic_ostreamIcNS4_11char_traitsIcEEEE
FNDA:0,_ZN7testing8internal13edit_distance12_GLOBAL__N_14Hunk7PrintToEPNSt3__113basic_ostreamIcNS4_11char_traitsIcEEEE
FN:1344,_ZNK7testing8internal13edit_distance12_GLOBAL__N_14Hunk9has_editsEv
FNDA:0,_ZNK7testing8internal13edit_distance12_GLOBAL__N_14Hunk9has_editsEv
FN:1347,_ZN7testing8internal13edit_distance12_GLOBAL__N_14Hunk10FlushEditsEv
FNDA:0,_ZN7testing8internal13edit_distance12_GLOBAL__N_14Hunk10FlushEditsEv
FN:1356,_ZNK7testing8internal13edit_distance12_GLOBAL__N_14Hunk11PrintHeaderEPNSt3__113basic_ostreamIcNS4_11char_traitsIcEEEE
FNDA:0,_ZNK7testing8internal13edit_distance12_GLOBAL__N_14Hunk11PrintHeaderEPNSt3__113basic_ostreamIcNS4_11char_traitsIcEEEE
FN:1384,_ZN7testing8internal13edit_distance17CreateUnifiedDiffERKNSt3__16vectorINS2_12basic_stringIcNS2_11char_traitsIcEENS2_9allocatorIcEEEENS7_IS9_EEEESD_m
FNDA:0,_ZN7testing8internal13edit_distance17CreateUnifiedDiffERKNSt3__16vectorINS2_12basic_stringIcNS2_11char_traitsIcEENS2_9allocatorIcEEEENS7_IS9_EEEESD_m
FN:1454,_ZN7testing8internal12_GLOBAL__N_118SplitEscapedStringERKNSt3__112basic_stringIcNS2_11char_traitsIcEENS2_9allocatorIcEEEE
FNDA:0,_ZN7testing8internal12_GLOBAL__N_118SplitEscapedStringERKNSt3__112basic_stringIcNS2_11char_traitsIcEENS2_9allocatorIcEEEE
FN:1494,_ZN7testing8internal9EqFailureEPKcS2_RKNSt3__112basic_stringIcNS3_11char_traitsIcEENS3_9allocatorIcEEEESB_b
FNDA:0,_ZN7testing8internal9EqFailureEPKcS2_RKNSt3__112basic_stringIcNS3_11char_traitsIcEENS3_9allocatorIcEEEESB_b
FN:1529,_ZN7testing8internal30GetBoolAssertionFailureMessageERKNS_15AssertionResultEPKcS5_S5_
FNDA:0,_ZN7testing8internal30GetBoolAssertionFailureMessageERKNS_15AssertionResultEPKcS5_S5_
FN:1545,_ZN7testing8internal20DoubleNearPredFormatEPKcS2_S2_ddd
FNDA:2,_ZN7testing8internal20DoubleNearPredFormatEPKcS2_S2_ddd
FN:1590,_ZN7testing8internal15FloatingPointLEIfEENS_15AssertionResultEPKcS4_T_S5_
FNDA:0,_ZN7testing8internal15FloatingPointLEIfEENS_15AssertionResultEPKcS4_T_S5_
FN:1590,_ZN7testing8internal15FloatingPointLEIdEENS_15AssertionResultEPKcS4_T_S5_
FNDA:0,_ZN7testing8internal15FloatingPointLEIdEENS_15AssertionResultEPKcS4_T_S5_
FN:1627,_ZN7testing7FloatLEEPKcS1_ff
FNDA:0,_ZN7testing7FloatLEEPKcS1_ff
FN:1634,_ZN7testing8DoubleLEEPKcS1_dd
FNDA:0,_ZN7testing8DoubleLEEPKcS1_dd
FN:1642,_ZN7testing8internal14CmpHelperSTREQEPKcS2_S2_S2_
FNDA:0,_ZN7testing8internal14CmpHelperSTREQEPKcS2_S2_S2_
FN:1658,_ZN7testing8internal18CmpHelperSTRCASEEQEPKcS2_S2_S2_
FNDA:0,_ZN7testing8internal18CmpHelperSTRCASEEQEPKcS2_S2_S2_
FN:1674,_ZN7testing8internal14CmpHelperSTRNEEPKcS2_S2_S2_
FNDA:0,_ZN7testing8internal14CmpHelperSTRNEEPKcS2_S2_S2_
FN:1688,_ZN7testing8internal18CmpHelperSTRCASENEEPKcS2_S2_S2_
FNDA:0,_ZN7testing8internal18CmpHelperSTRCASENEEPKcS2_S2_S2_
FN:1712,_ZN7testing12_GLOBAL__N_115IsSubstringPredEPKcS2_
FNDA:0,_ZN7testing12_GLOBAL__N_115IsSubstringPredEPKcS2_
FN:1718,_ZN7testing12_GLOBAL__N_115IsSubstringPredEPKwS2_
FNDA:0,_ZN7testing12_GLOBAL__N_115IsSubstringPredEPKwS2_
FN:1726,_ZN7testing12_GLOBAL__N_115IsSubstringPredINSt3__112basic_stringIcNS2_11char_traitsIcEENS2_9allocatorIcEEEEEEbRKT_SB_
FNDA:0,_ZN7testing12_GLOBAL__N_115IsSubstringPredINSt3__112basic_stringIcNS2_11char_traitsIcEENS2_9allocatorIcEEEEEEbRKT_SB_
FN:1726,_ZN7testing12_GLOBAL__N_115IsSubstringPredINSt3__112basic_stringIwNS2_11char_traitsIwEENS2_9allocatorIwEEEEEEbRKT_SB_
FNDA:0,_ZN7testing12_GLOBAL__N_115IsSubstringPredINSt3__112basic_stringIwNS2_11char_traitsIwEENS2_9allocatorIwEEEEEEbRKT_SB_
FN:1736,_ZN7testing12_GLOBAL__N_115IsSubstringImplIPKcEENS_15AssertionResultEbS3_S3_RKT_S7_
FNDA:0,_ZN7testing12_GLOBAL__N_115IsSubstringImplIPKcEENS_15AssertionResultEbS3_S3_RKT_S7_
FN:1736,_ZN7testing12_GLOBAL__N_115IsSubstringImplIPKwEENS_15AssertionResultEbPKcS6_RKT_S9_
FNDA:0,_ZN7testing12_GLOBAL__N_115IsSubstringImplIPKwEENS_15AssertionResultEbPKcS6_RKT_S9_
FN:1736,_ZN7testing12_GLOBAL__N_115IsSubstringImplINSt3__112basic_stringIcNS2_11char_traitsIcEENS2_9allocatorIcEEEEEENS_15AssertionResultEbPKcSB_RKT_SE_
FNDA:0,_ZN7testing12_GLOBAL__N_115IsSubstringImplINSt3__112basic_stringIcNS2_11char_traitsIcEENS2_9allocatorIcEEEEEENS_15AssertionResultEbPKcSB_RKT_SE_
FN:1736,_ZN7testing12_GLOBAL__N_115IsSubstringImplINSt3__112basic_stringIwNS2_11char_traitsIwEENS2_9allocatorIwEEEEEENS_15AssertionResultEbPKcSB_RKT_SE_
FNDA:0,_ZN7testing12_GLOBAL__N_115IsSubstringImplINSt3__112basic_stringIwNS2_11char_traitsIwEENS2_9allocatorIwEEEEEENS_15AssertionResultEbPKcSB_RKT_SE_
FN:1759,_ZN7testing11IsSubstringEPKcS1_S1_S1_
FNDA:0,_ZN7testing11IsSubstringEPKcS1_S1_S1_
FN:1765,_ZN7testing11IsSubstringEPKcS1_PKwS3_
FNDA:0,_ZN7testing11IsSubstringEPKcS1_PKwS3_
FN:1771,_ZN7testing14IsNotSubstringEPKcS1_S1_S1_
FNDA:0,_ZN7testing14IsNotSubstringEPKcS1_S1_S1_
FN:1777,_ZN7testing14IsNotSubstringEPKcS1_PKwS3_
FNDA:0,_ZN7testing14IsNotSubstringEPKcS1_PKwS3_
FN:1783,_ZN7testing11IsSubstringEPKcS1_RKNSt3__112basic_stringIcNS2_11char_traitsIcEENS2_9allocatorIcEEEESA_
FNDA:0,_ZN7testing11IsSubstringEPKcS1_RKNSt3__112basic_stringIcNS2_11char_traitsIcEENS2_9allocatorIcEEEESA_
FN:1789,_ZN7testing14IsNotSubstringEPKcS1_RKNSt3__112basic_stringIcNS2_11char_traitsIcEENS2_9allocatorIcEEEESA_
FNDA:0,_ZN7testing14IsNotSubstringEPKcS1_RKNSt3__112basic_stringIcNS2_11char_traitsIcEENS2_9allocatorIcEEEESA_
FN:1796,_ZN7testing11IsSubstringEPKcS1_RKNSt3__112basic_stringIwNS2_11char_traitsIwEENS2_9allocatorIwEEEESA_
FNDA:0,_ZN7testing11IsSubstringEPKcS1_RKNSt3__112basic_stringIwNS2_11char_traitsIwEENS2_9allocatorIwEEEESA_
FN:1802,_ZN7testing14IsNotSubstringEPKcS1_RKNSt3__112basic_stringIwNS2_11char_traitsIwEENS2_9allocatorIwEEEESA_
FNDA:0,_ZN7testing14IsNotSubstringEPKcS1_RKNSt3__112basic_stringIwNS2_11char_traitsIwEENS2_9allocatorIwEEEESA_
FN:1900,_ZN7testing8internal11ChopLowBitsEPji
FNDA:0,_ZN7testing8internal11ChopLowBitsEPji
FN:1912,_ZN7testing8internal15CodePointToUtf8Ej
FNDA:0,_ZN7testing8internal15CodePointToUtf8Ej
FN:1947,_ZN7testing8internal20IsUtf16SurrogatePairEww
FNDA:0,_ZN7testing8internal20IsUtf16SurrogatePairEww
FN:1953,_ZN7testing8internal37CreateCodePointFromUtf16SurrogatePairEww
FNDA:0,_ZN7testing8internal37CreateCodePointFromUtf16SurrogatePairEww
FN:1979,_ZN7testing8internal16WideStringToUtf8EPKwi
FNDA:0,_ZN7testing8internal16WideStringToUtf8EPKwi
FN:2004,_ZN7testing8internal6String15ShowWideCStringEPKw
FNDA:0,_ZN7testing8internal6String15ShowWideCStringEPKw
FN:2016,_ZN7testing8internal6String17WideCStringEqualsEPKwS3_
FNDA:0,_ZN7testing8internal6String17WideCStringEqualsEPKwS3_
FN:2025,_ZN7testing8internal14CmpHelperSTREQEPKcS2_PKwS4_
FNDA:0,_ZN7testing8internal14CmpHelperSTREQEPKcS2_PKwS4_
FN:2041,_ZN7testing8internal14CmpHelperSTRNEEPKcS2_PKwS4_
FNDA:0,_ZN7testing8internal14CmpHelperSTRNEEPKcS2_PKwS4_
FN:2061,_ZN7testing8internal6String28CaseInsensitiveCStringEqualsEPKcS3_
FNDA:19,_ZN7testing8internal6String28CaseInsensitiveCStringEqualsEPKcS3_
FN:2079,_ZN7testing8internal6String32CaseInsensitiveWideCStringEqualsEPKwS3_
FNDA:0,_ZN7testing8internal6String32CaseInsensitiveWideCStringEqualsEPKwS3_
FN:2103,_ZN7testing8internal6String23EndsWithCaseInsensitiveERKNSt3__112basic_stringIcNS2_11char_traitsIcEENS2_9allocatorIcEEEESA_
FNDA:0,_ZN7testing8internal6String23EndsWithCaseInsensitiveERKNSt3__112basic_stringIcNS2_11char_traitsIcEENS2_9allocatorIcEEEESA_
FN:2113,_ZN7testing8internal6String15FormatIntWidth2Ei
FNDA:0,_ZN7testing8internal6String15FormatIntWidth2Ei
FN:2118,_ZN7testing8internal6String15FormatIntWidthNEii
FNDA:0,_ZN7testing8internal6String15FormatIntWidthNEii
FN:2125,_ZN7testing8internal6String15FormatHexUInt32Ej
FNDA:0,_ZN7testing8internal6String15FormatHexUInt32Ej
FN:2132,_ZN7testing8internal6String12FormatHexIntEi
FNDA:0,_ZN7testing8internal6String12FormatHexIntEi
FN:2137,_ZN7testing8internal6String10FormatByteEh
FNDA:0,_ZN7testing8internal6String10FormatByteEh
FN:2146,_ZN7testing8internal20StringStreamToStringEPNSt3__118basic_stringstreamIcNS1_11char_traitsIcEENS1_9allocatorIcEEEE
FNDA:1088,_ZN7testing8internal20StringStreamToStringEPNSt3__118basic_stringstreamIcNS1_11char_traitsIcEENS1_9allocatorIcEEEE
FN:2165,_ZN7testing8internal17AppendUserMessageERKNSt3__112basic_stringIcNS1_11char_traitsIcEENS1_9allocatorIcEEEERKNS_7MessageE
FNDA:0,_ZN7testing8internal17AppendUserMessageERKNSt3__112basic_stringIcNS1_11char_traitsIcEENS1_9allocatorIcEEEERKNS_7MessageE
FN:2183,_ZN7testing10TestResultC2Ev
FNDA:440,_ZN7testing10TestResultC2Ev
FN:2183,_ZN7testing10TestResultC1Ev
FNDA:440,_ZN7testing10TestResultC1Ev
FN:2187,_ZN7testing10TestResultD2Ev
FNDA:0,_ZN7testing10TestResultD2Ev
FN:2187,_ZN7testing10TestResultD1Ev
FNDA:0,_ZN7testing10TestResultD1Ev
FN:2193,_ZNK7testing10TestResult17GetTestPartResultEi
FNDA:0,_ZNK7testing10TestResult17GetTestPartResultEi
FN:2202,_ZNK7testing10TestResult15GetTestPropertyEi
FNDA:0,_ZNK7testing10TestResult15GetTestPropertyEi
FN:2209,_ZN7testing10TestResult20ClearTestPartResultsEv
FNDA:0,_ZN7testing10TestResult20ClearTestPartResultsEv
FN:2214,_ZN7testing10TestResult17AddTestPartResultERKNS_14TestPartResultE
FNDA:0,_ZN7testing10TestResult17AddTestPartResultERKNS_14TestPartResultE
FN:2221,_ZN7testing10TestResult14RecordPropertyERKNSt3__112basic_stringIcNS1_11char_traitsIcEENS1_9allocatorIcEEEERKNS_12TestPropertyE
FNDA:0,_ZN7testing10TestResult14RecordPropertyERKNSt3__112basic_stringIcNS1_11char_traitsIcEENS1_9allocatorIcEEEERKNS_12TestPropertyE
FN:2268,_ZN7testing13ArrayAsVectorILm8EEENSt3__16vectorINS1_12basic_stringIcNS1_11char_traitsIcEENS1_9allocatorIcEEEENS6_IS8_EEEERAT__KPKc
FNDA:0,_ZN7testing13ArrayAsVectorILm8EEENSt3__16vectorINS1_12basic_stringIcNS1_11char_traitsIcEENS1_9allocatorIcEEEENS6_IS8_EEEERAT__KPKc
FN:2268,_ZN7testing13ArrayAsVectorILm10EEENSt3__16vectorINS1_12basic_stringIcNS1_11char_traitsIcEENS1_9allocatorIcEEEENS6_IS8_EEEERAT__KPKc
FNDA:0,_ZN7testing13ArrayAsVectorILm10EEENSt3__16vectorINS1_12basic_stringIcNS1_11char_traitsIcEENS1_9allocatorIcEEEENS6_IS8_EEEERAT__KPKc
FN:2272,_ZN7testingL31GetReservedAttributesForElementERKNSt3__112basic_stringIcNS0_11char_traitsIcEENS0_9allocatorIcEEEE
FNDA:0,_ZN7testingL31GetReservedAttributesForElementERKNSt3__112basic_stringIcNS0_11char_traitsIcEENS0_9allocatorIcEEEE
FN:2288,_ZN7testingL37GetReservedOutputAttributesForElementERKNSt3__112basic_stringIcNS0_11char_traitsIcEENS0_9allocatorIcEEEE
FNDA:0,_ZN7testingL37GetReservedOutputAttributesForElementERKNSt3__112basic_stringIcNS0_11char_traitsIcEENS0_9allocatorIcEEEE
FN:2303,_ZN7testingL14FormatWordListERKNSt3__16vectorINS0_12basic_stringIcNS0_11char_traitsIcEENS0_9allocatorIcEEEENS5_IS7_EEEE
FNDA:0,_ZN7testingL14FormatWordListERKNSt3__16vectorINS0_12basic_stringIcNS0_11char_traitsIcEENS0_9allocatorIcEEEENS5_IS7_EEEE
FN:2317,_ZN7testingL24ValidateTestPropertyNameERKNSt3__112basic_stringIcNS0_11char_traitsIcEENS0_9allocatorIcEEEERKNS0_6vectorIS6_NS4_IS6_EEEE
FNDA:0,_ZN7testingL24ValidateTestPropertyNameERKNSt3__112basic_stringIcNS0_11char_traitsIcEENS0_9allocatorIcEEEERKNS0_6vectorIS6_NS4_IS6_EEEE
FN:2332,_ZN7testing10TestResult20ValidateTestPropertyERKNSt3__112basic_stringIcNS1_11char_traitsIcEENS1_9allocatorIcEEEERKNS_12TestPropertyE
FNDA:0,_ZN7testing10TestResult20ValidateTestPropertyERKNSt3__112basic_stringIcNS1_11char_traitsIcEENS1_9allocatorIcEEEERKNS_12TestPropertyE
FN:2339,_ZN7testing10TestResult5ClearEv
FNDA:399,_ZN7testing10TestResult5ClearEv
FN:2347,_ZN7testingL15TestPartSkippedERKNS_14TestPartResultE
FNDA:0,_ZN7testingL15TestPartSkippedERKNS_14TestPartResultE
FN:2352,_ZNK7testing10TestResult7SkippedEv
FNDA:114,_ZNK7testing10TestResult7SkippedEv
FN:2357,_ZNK7testing10TestResult6FailedEv
FNDA:285,_ZNK7testing10TestResult6FailedEv
FN:2366,_ZN7testingL21TestPartFatallyFailedERKNS_14TestPartResultE
FNDA:0,_ZN7testingL21TestPartFatallyFailedERKNS_14TestPartResultE
FN:2371,_ZNK7testing10TestResult15HasFatalFailureEv
FNDA:57,_ZNK7testing10TestResult15HasFatalFailureEv
FN:2376,_ZN7testingL24TestPartNonfatallyFailedERKNS_14TestPartResultE
FNDA:0,_ZN7testingL24TestPartNonfatallyFailedERKNS_14TestPartResultE
FN:2381,_ZNK7testing10TestResult18HasNonfatalFailureEv
FNDA:0,_ZNK7testing10TestResult18HasNonfatalFailureEv
FN:2387,_ZNK7testing10TestResult16total_part_countEv
FNDA:285,_ZNK7testing10TestResult16total_part_countEv
FN:2392,_ZNK7testing10TestResult19test_property_countEv
FNDA:0,_ZNK7testing10TestResult19test_property_countEv
FN:2401,_ZN7testing4TestC2Ev
FNDA:19,_ZN7testing4TestC2Ev
FN:2408,_ZN7testing4TestD2Ev
FNDA:19,_ZN7testing4TestD2Ev
FN:2408,_ZN7testing4TestD1Ev
FNDA:0,_ZN7testing4TestD1Ev
FN:2408,_ZN7testing4TestD0Ev
FNDA:0,_ZN7testing4TestD0Ev
FN:2414,_ZN7testing4Test5SetUpEv
FNDA:0,_ZN7testing4Test5SetUpEv
FN:2420,_ZN7testing4Test8TearDownEv
FNDA:0,_ZN7testing4Test8TearDownEv
FN:2424,_ZN7testing4Test14RecordPropertyERKNSt3__112basic_stringIcNS1_11char_traitsIcEENS1_9allocatorIcEEEES9_
FNDA:0,_ZN7testing4Test14RecordPropertyERKNSt3__112basic_stringIcNS1_11char_traitsIcEENS1_9allocatorIcEEEES9_
FN:2429,_ZN7testing4Test14RecordPropertyERKNSt3__112basic_stringIcNS1_11char_traitsIcEENS1_9allocatorIcEEEEi
FNDA:0,_ZN7testing4Test14RecordPropertyERKNSt3__112basic_stringIcNS1_11char_traitsIcEENS1_9allocatorIcEEEEi
FN:2437,_ZN7testing8internal30ReportFailureInUnknownLocationENS_14TestPartResult4TypeERKNSt3__112basic_stringIcNS3_11char_traitsIcEENS3_9allocatorIcEEEE
FNDA:0,_ZN7testing8internal30ReportFailureInUnknownLocationENS_14TestPartResult4TypeERKNSt3__112basic_stringIcNS3_11char_traitsIcEENS3_9allocatorIcEEEE
FN:2456,_ZN7testing4Test19HasSameFixtureClassEv
FNDA:19,_ZN7testing4Test19HasSameFixtureClassEv
FN:2539,_ZN7testing8internalL25FormatCxxExceptionMessageEPKcS2_
FNDA:0,_ZN7testing8internalL25FormatCxxExceptionMessageEPKcS2_
FN:2555,_ZN7testing8internal26GoogleTestFailureExceptionC2ERKNS_14TestPartResultE
FNDA:0,_ZN7testing8internal26GoogleTestFailureExceptionC2ERKNS_14TestPartResultE
FN:2555,_ZN7testing8internal26GoogleTestFailureExceptionC1ERKNS_14TestPartResultE
FNDA:0,_ZN7testing8internal26GoogleTestFailureExceptionC1ERKNS_14TestPartResultE
FN:2570,_ZN7testing8internal38HandleSehExceptionsInMethodIfSupportedINS_4TestEvEET0_PT_MS4_FS3_vEPKc
FNDA:76,_ZN7testing8internal38HandleSehExceptionsInMethodIfSupportedINS_4TestEvEET0_PT_MS4_FS3_vEPKc
FN:2570,_ZN7testing8internal38HandleSehExceptionsInMethodIfSupportedINS0_15TestFactoryBaseEPNS_4TestEEET0_PT_MS6_FS5_vEPKc
FNDA:19,_ZN7testing8internal38HandleSehExceptionsInMethodIfSupportedINS0_15TestFactoryBaseEPNS_4TestEEET0_PT_MS6_FS5_vEPKc
FN:2570,_ZN7testing8internal38HandleSehExceptionsInMethodIfSupportedINS_9TestSuiteEvEET0_PT_MS4_FS3_vEPKc
FNDA:38,_ZN7testing8internal38HandleSehExceptionsInMethodIfSupportedINS_9TestSuiteEvEET0_PT_MS4_FS3_vEPKc
FN:2570,_ZN7testing8internal38HandleSehExceptionsInMethodIfSupportedINS0_12UnitTestImplEbEET0_PT_MS4_FS3_vEPKc
FNDA:20,_ZN7testing8internal38HandleSehExceptionsInMethodIfSupportedINS0_12UnitTestImplEbEET0_PT_MS4_FS3_vEPKc
FN:2597,_ZN7testing8internal35HandleExceptionsInMethodIfSupportedINS_4TestEvEET0_PT_MS4_FS3_vEPKc
FNDA:76,_ZN7testing8internal35HandleExceptionsInMethodIfSupportedINS_4TestEvEET0_PT_MS4_FS3_vEPKc
FN:2597,_ZN7testing8internal35HandleExceptionsInMethodIfSupportedINS0_15TestFactoryBaseEPNS_4TestEEET0_PT_MS6_FS5_vEPKc
FNDA:19,_ZN7testing8internal35HandleExceptionsInMethodIfSupportedINS0_15TestFactoryBaseEPNS_4TestEEET0_PT_MS6_FS5_vEPKc
FN:2597,_ZN7testing8internal35HandleExceptionsInMethodIfSupportedINS_9TestSuiteEvEET0_PT_MS4_FS3_vEPKc
FNDA:38,_ZN7testing8internal35HandleExceptionsInMethodIfSupportedINS_9TestSuiteEvEET0_PT_MS4_FS3_vEPKc
FN:2597,_ZN7testing8internal35HandleExceptionsInMethodIfSupportedINS0_12UnitTestImplEbEET0_PT_MS4_FS3_vEPKc
FNDA:20,_ZN7testing8internal35HandleExceptionsInMethodIfSupportedINS0_12UnitTestImplEbEET0_PT_MS4_FS3_vEPKc
FN:2654,_ZN7testing4Test3RunEv
FNDA:19,_ZN7testing4Test3RunEv
FN:2677,_ZN7testing4Test15HasFatalFailureEv
FNDA:57,_ZN7testing4Test15HasFatalFailureEv
FN:2682,_ZN7testing4Test18HasNonfatalFailureEv
FNDA:0,_ZN7testing4Test18HasNonfatalFailureEv
FN:2688,_ZN7testing4Test9IsSkippedEv
FNDA:57,_ZN7testing4Test9IsSkippedEv
FN:2696,_ZN7testing8TestInfoC2ERKNSt3__112basic_stringIcNS1_11char_traitsIcEENS1_9allocatorIcEEEES9_PKcSB_NS_8internal12CodeLocationEPKvPNSC_15TestFactoryBaseE
FNDA:380,_ZN7testing8TestInfoC2ERKNSt3__112basic_stringIcNS1_11char_traitsIcEENS1_9allocatorIcEEEES9_PKcSB_NS_8internal12CodeLocationEPKvPNSC_15TestFactoryBaseE
FN:2696,_ZN7testing8TestInfoC1ERKNSt3__112basic_stringIcNS1_11char_traitsIcEENS1_9allocatorIcEEEES9_PKcSB_NS_8internal12CodeLocationEPKvPNSC_15TestFactoryBaseE
FNDA:380,_ZN7testing8TestInfoC1ERKNSt3__112basic_stringIcNS1_11char_traitsIcEENS1_9allocatorIcEEEES9_PKcSB_NS_8internal12CodeLocationEPKvPNSC_15TestFactoryBaseE
FN:2716,_ZN7testing8TestInfoD2Ev
FNDA:0,_ZN7testing8TestInfoD2Ev
FN:2716,_ZN7testing8TestInfoD1Ev
FNDA:0,_ZN7testing8TestInfoD1Ev
FN:2738,_ZN7testing8internal23MakeAndRegisterTestInfoEPKcS2_S2_S2_NS0_12CodeLocationEPKvPFvvES7_PNS0_15TestFactoryBaseE
FNDA:380,_ZN7testing8internal23MakeAndRegisterTestInfoEPKcS2_S2_S2_NS0_12CodeLocationEPKvPFvvES7_PNS0_15TestFactoryBaseE
FN:2750,_ZN7testing8internal26ReportInvalidTestSuiteTypeEPKcNS0_12CodeLocationE
FNDA:0,_ZN7testing8internal26ReportInvalidTestSuiteTypeEPKcNS0_12CodeLocationE
FN:2803,_ZN7testing8internal12UnitTestImpl26RegisterParameterizedTestsEv
FNDA:20,_ZN7testing8internal12UnitTestImpl26RegisterParameterizedTestsEv
FN:2815,_ZN7testing8TestInfo3RunEv
FNDA:241,_ZN7testing8TestInfo3RunEv
FN:2864,_ZN7testing8TestInfo4SkipEv
FNDA:0,_ZN7testing8TestInfo4SkipEv
FN:2888,_ZNK7testing9TestSuite21successful_test_countEv
FNDA:38,_ZNK7testing9TestSuite21successful_test_countEv
FN:2893,_ZNK7testing9TestSuite18skipped_test_countEv
FNDA:38,_ZNK7testing9TestSuite18skipped_test_countEv
FN:2898,_ZNK7testing9TestSuite17failed_test_countEv
FNDA:38,_ZNK7testing9TestSuite17failed_test_countEv
FN:2903,_ZNK7testing9TestSuite30reportable_disabled_test_countEv
FNDA:38,_ZNK7testing9TestSuite30reportable_disabled_test_countEv
FN:2908,_ZNK7testing9TestSuite19disabled_test_countEv
FNDA:0,_ZNK7testing9TestSuite19disabled_test_countEv
FN:2913,_ZNK7testing9TestSuite21reportable_test_countEv
FNDA:0,_ZNK7testing9TestSuite21reportable_test_countEv
FN:2918,_ZNK7testing9TestSuite17test_to_run_countEv
FNDA:114,_ZNK7testing9TestSuite17test_to_run_countEv
FN:2923,_ZNK7testing9TestSuite16total_test_countEv
FNDA:260,_ZNK7testing9TestSuite16total_test_countEv
FN:2936,_ZN7testing9TestSuiteC2EPKcS2_PFvvES4_
FNDA:40,_ZN7testing9TestSuiteC2EPKcS2_PFvvES4_
FN:2936,_ZN7testing9TestSuiteC1EPKcS2_PFvvES4_
FNDA:40,_ZN7testing9TestSuiteC1EPKcS2_PFvvES4_
FN:2948,_ZN7testing9TestSuiteD2Ev
FNDA:0,_ZN7testing9TestSuiteD2Ev
FN:2948,_ZN7testing9TestSuiteD1Ev
FNDA:0,_ZN7testing9TestSuiteD1Ev
FN:2948,_ZN7testing9TestSuiteD0Ev
FNDA:0,_ZN7testing9TestSuiteD0Ev
FN:2955,_ZNK7testing9TestSuite11GetTestInfoEi
FNDA:0,_ZNK7testing9TestSuite11GetTestInfoEi
FN:2962,_ZN7testing9TestSuite18GetMutableTestInfoEi
FNDA:241,_ZN7testing9TestSuite18GetMutableTestInfoEi
FN:2969,_ZN7testing9TestSuite11AddTestInfoEPNS_8TestInfoE
FNDA:380,_ZN7testing9TestSuite11AddTestInfoEPNS_8TestInfoE
FN:2975,_ZN7testing9TestSuite3RunEv
FNDA:38,_ZN7testing9TestSuite3RunEv
FN:3021,_ZN7testing9TestSuite4SkipEv
FNDA:0,_ZN7testing9TestSuite4SkipEv
FN:3051,_ZN7testing9TestSuite11ClearResultEv
FNDA:38,_ZN7testing9TestSuite11ClearResultEv
FN:3057,_ZN7testing9TestSuite12ShuffleTestsEPNS_8internal6RandomE
FNDA:0,_ZN7testing9TestSuite12ShuffleTestsEPNS_8internal6RandomE
FN:3062,_ZN7testing9TestSuite14UnshuffleTestsEv
FNDA:38,_ZN7testing9TestSuite14UnshuffleTestsEv
FN:3073,_ZN7testingL19FormatCountableNounEiPKcS1_
FNDA:133,_ZN7testingL19FormatCountableNounEiPKcS1_
FN:3081,_ZN7testingL15FormatTestCountEi
FNDA:57,_ZN7testingL15FormatTestCountEi
FN:3086,_ZN7testingL20FormatTestSuiteCountEi
FNDA:38,_ZN7testingL20FormatTestSuiteCountEi
FN:3094,_ZN7testingL26TestPartResultTypeToStringENS_14TestPartResult4TypeE
FNDA:0,_ZN7testingL26TestPartResultTypeToStringENS_14TestPartResult4TypeE
FN:3119,_ZN7testing8internalL27PrintTestPartResultToStringERKNS_14TestPartResultE
FNDA:0,_ZN7testing8internalL27PrintTestPartResultToStringERKNS_14TestPartResultE
FN:3129,_ZN7testing8internalL19PrintTestPartResultERKNS_14TestPartResultE
FNDA:0,_ZN7testing8internalL19PrintTestPartResultERKNS_14TestPartResultE
FN:3199,_ZN7testing8internalL16GetAnsiColorCodeENS0_12_GLOBAL__N_110GTestColorE
FNDA:0,_ZN7testing8internalL16GetAnsiColorCodeENS0_12_GLOBAL__N_110GTestColorE
FN:3215,_ZN7testing8internal14ShouldUseColorEb
FNDA:19,_ZN7testing8internal14ShouldUseColorEb
FN:3257,_ZN7testing8internalL13ColoredPrintfENS0_12_GLOBAL__N_110GTestColorEPKcz
FNDA:190,_ZN7testing8internalL13ColoredPrintfENS0_12_GLOBAL__N_110GTestColorEPKcz
FN:3310,_ZN7testing8internalL29PrintFullTestCommentIfPresentERKNS_8TestInfoE
FNDA:0,_ZN7testing8internalL29PrintFullTestCommentIfPresentERKNS_8TestInfoE
FN:3329,_ZN7testing8internal27PrettyUnitTestResultPrinterD1Ev
FNDA:0,_ZN7testing8internal27PrettyUnitTestResultPrinterD1Ev
FN:3329,_ZN7testing8internal27PrettyUnitTestResultPrinterD0Ev
FNDA:0,_ZN7testing8internal27PrettyUnitTestResultPrinterD0Ev
FN:3329,_ZN7testing8internal27PrettyUnitTestResultPrinterD2Ev
FNDA:0,_ZN7testing8internal27PrettyUnitTestResultPrinterD2Ev
FN:3331,_ZN7testing8internal27PrettyUnitTestResultPrinterC1Ev
FNDA:20,_ZN7testing8internal27PrettyUnitTestResultPrinterC1Ev
FN:3331,_ZN7testing8internal27PrettyUnitTestResultPrinterC2Ev
FNDA:20,_ZN7testing8internal27PrettyUnitTestResultPrinterC2Ev
FN:3332,_ZN7testing8internal27PrettyUnitTestResultPrinter13PrintTestNameEPKcS3_
FNDA:38,_ZN7testing8internal27PrettyUnitTestResultPrinter13PrintTestNameEPKcS3_
FN:3337,_ZN7testing8internal27PrettyUnitTestResultPrinter18OnTestProgramStartERKNS_8UnitTestE
FNDA:19,_ZN7testing8internal27PrettyUnitTestResultPrinter18OnTestProgramStartERKNS_8UnitTestE
FN:3340,_ZN7testing8internal27PrettyUnitTestResultPrinter22OnEnvironmentsSetUpEndERKNS_8UnitTestE
FNDA:19,_ZN7testing8internal27PrettyUnitTestResultPrinter22OnEnvironmentsSetUpEndERKNS_8UnitTestE
FN:3358,_ZN7testing8internal27PrettyUnitTestResultPrinter25OnEnvironmentsTearDownEndERKNS_8UnitTestE
FNDA:19,_ZN7testing8internal27PrettyUnitTestResultPrinter25OnEnvironmentsTearDownEndERKNS_8UnitTestE
FN:3360,_ZN7testing8internal27PrettyUnitTestResultPrinter16OnTestProgramEndERKNS_8UnitTestE
FNDA:19,_ZN7testing8internal27PrettyUnitTestResultPrinter16OnTestProgramEndERKNS_8UnitTestE
FN:3369,_ZN7testing8internal27PrettyUnitTestResultPrinter20OnTestIterationStartERKNS_8UnitTestEi
FNDA:19,_ZN7testing8internal27PrettyUnitTestResultPrinter20OnTestIterationStartERKNS_8UnitTestEi
FN:3403,_ZN7testing8internal27PrettyUnitTestResultPrinter24OnEnvironmentsSetUpStartERKNS_8UnitTestE
FNDA:19,_ZN7testing8internal27PrettyUnitTestResultPrinter24OnEnvironmentsSetUpStartERKNS_8UnitTestE
FN:3411,_ZN7testing8internal27PrettyUnitTestResultPrinter15OnTestCaseStartERKNS_9TestSuiteE
FNDA:19,_ZN7testing8internal27PrettyUnitTestResultPrinter15OnTestCaseStartERKNS_9TestSuiteE
FN:3439,_ZN7testing8internal27PrettyUnitTestResultPrinter11OnTestStartERKNS_8TestInfoE
FNDA:19,_ZN7testing8internal27PrettyUnitTestResultPrinter11OnTestStartERKNS_8TestInfoE
FN:3447,_ZN7testing8internal27PrettyUnitTestResultPrinter16OnTestPartResultERKNS_14TestPartResultE
FNDA:0,_ZN7testing8internal27PrettyUnitTestResultPrinter16OnTestPartResultERKNS_14TestPartResultE
FN:3461,_ZN7testing8internal27PrettyUnitTestResultPrinter9OnTestEndERKNS_8TestInfoE
FNDA:19,_ZN7testing8internal27PrettyUnitTestResultPrinter9OnTestEndERKNS_8TestInfoE
FN:3483,_ZN7testing8internal27PrettyUnitTestResultPrinter13OnTestCaseEndERKNS_9TestSuiteE
FNDA:19,_ZN7testing8internal27PrettyUnitTestResultPrinter13OnTestCaseEndERKNS_9TestSuiteE
FN:3506,_ZN7testing8internal27PrettyUnitTestResultPrinter27OnEnvironmentsTearDownStartERKNS_8UnitTestE
FNDA:19,_ZN7testing8internal27PrettyUnitTestResultPrinter27OnEnvironmentsTearDownStartERKNS_8UnitTestE
FN:3514,_ZN7testing8internal27PrettyUnitTestResultPrinter16PrintFailedTestsERKNS_8UnitTestE
FNDA:0,_ZN7testing8internal27PrettyUnitTestResultPrinter16PrintFailedTestsERKNS_8UnitTestE
FN:3541,_ZN7testing8internal27PrettyUnitTestResultPrinter21PrintFailedTestSuitesERKNS_8UnitTestE
FNDA:0,_ZN7testing8internal27PrettyUnitTestResultPrinter21PrintFailedTestSuitesERKNS_8UnitTestE
FN:3562,_ZN7testing8internal27PrettyUnitTestResultPrinter17PrintSkippedTestsERKNS_8UnitTestE
FNDA:0,_ZN7testing8internal27PrettyUnitTestResultPrinter17PrintSkippedTestsERKNS_8UnitTestE
FN:3585,_ZN7testing8internal27PrettyUnitTestResultPrinter18OnTestIterationEndERKNS_8UnitTestEi
FNDA:19,_ZN7testing8internal27PrettyUnitTestResultPrinter18OnTestIterationEndERKNS_8UnitTestEi
FN:3628,_ZN7testing8internal26BriefUnitTestResultPrinterD1Ev
FNDA:0,_ZN7testing8internal26BriefUnitTestResultPrinterD1Ev
FN:3628,_ZN7testing8internal26BriefUnitTestResultPrinterD0Ev
FNDA:0,_ZN7testing8internal26BriefUnitTestResultPrinterD0Ev
FN:3628,_ZN7testing8internal26BriefUnitTestResultPrinterD2Ev
FNDA:0,_ZN7testing8internal26BriefUnitTestResultPrinterD2Ev
FN:3630,_ZN7testing8internal26BriefUnitTestResultPrinterC1Ev
FNDA:0,_ZN7testing8internal26BriefUnitTestResultPrinterC1Ev
FN:3630,_ZN7testing8internal26BriefUnitTestResultPrinterC2Ev
FNDA:0,_ZN7testing8internal26BriefUnitTestResultPrinterC2Ev
FN:3631,_ZN7testing8internal26BriefUnitTestResultPrinter13PrintTestNameEPKcS3_
FNDA:0,_ZN7testing8internal26BriefUnitTestResultPrinter13PrintTestNameEPKcS3_
FN:3636,_ZN7testing8internal26BriefUnitTestResultPrinter18OnTestProgramStartERKNS_8UnitTestE
FNDA:0,_ZN7testing8internal26BriefUnitTestResultPrinter18OnTestProgramStartERKNS_8UnitTestE
FN:3637,_ZN7testing8internal26BriefUnitTestResultPrinter20OnTestIterationStartERKNS_8UnitTestEi
FNDA:0,_ZN7testing8internal26BriefUnitTestResultPrinter20OnTestIterationStartERKNS_8UnitTestEi
FN:3639,_ZN7testing8internal26BriefUnitTestResultPrinter24OnEnvironmentsSetUpStartERKNS_8UnitTestE
FNDA:0,_ZN7testing8internal26BriefUnitTestResultPrinter24OnEnvironmentsSetUpStartERKNS_8UnitTestE
FN:3640,_ZN7testing8internal26BriefUnitTestResultPrinter22OnEnvironmentsSetUpEndERKNS_8UnitTestE
FNDA:0,_ZN7testing8internal26BriefUnitTestResultPrinter22OnEnvironmentsSetUpEndERKNS_8UnitTestE
FN:3642,_ZN7testing8internal26BriefUnitTestResultPrinter15OnTestCaseStartERKNS_9TestSuiteE
FNDA:0,_ZN7testing8internal26BriefUnitTestResultPrinter15OnTestCaseStartERKNS_9TestSuiteE
FN:3647,_ZN7testing8internal26BriefUnitTestResultPrinter11OnTestStartERKNS_8TestInfoE
FNDA:0,_ZN7testing8internal26BriefUnitTestResultPrinter11OnTestStartERKNS_8TestInfoE
FN:3652,_ZN7testing8internal26BriefUnitTestResultPrinter13OnTestCaseEndERKNS_9TestSuiteE
FNDA:0,_ZN7testing8internal26BriefUnitTestResultPrinter13OnTestCaseEndERKNS_9TestSuiteE
FN:3657,_ZN7testing8internal26BriefUnitTestResultPrinter27OnEnvironmentsTearDownStartERKNS_8UnitTestE
FNDA:0,_ZN7testing8internal26BriefUnitTestResultPrinter27OnEnvironmentsTearDownStartERKNS_8UnitTestE
FN:3658,_ZN7testing8internal26BriefUnitTestResultPrinter25OnEnvironmentsTearDownEndERKNS_8UnitTestE
FNDA:0,_ZN7testing8internal26BriefUnitTestResultPrinter25OnEnvironmentsTearDownEndERKNS_8UnitTestE
FN:3660,_ZN7testing8internal26BriefUnitTestResultPrinter16OnTestProgramEndERKNS_8UnitTestE
FNDA:0,_ZN7testing8internal26BriefUnitTestResultPrinter16OnTestProgramEndERKNS_8UnitTestE
FN:3664,_ZN7testing8internal26BriefUnitTestResultPrinter16OnTestPartResultERKNS_14TestPartResultE
FNDA:0,_ZN7testing8internal26BriefUnitTestResultPrinter16OnTestPartResultERKNS_14TestPartResultE
FN:3678,_ZN7testing8internal26BriefUnitTestResultPrinter9OnTestEndERKNS_8TestInfoE
FNDA:0,_ZN7testing8internal26BriefUnitTestResultPrinter9OnTestEndERKNS_8TestInfoE
FN:3695,_ZN7testing8internal26BriefUnitTestResultPrinter18OnTestIterationEndERKNS_8UnitTestEi
FNDA:0,_ZN7testing8internal26BriefUnitTestResultPrinter18OnTestIterationEndERKNS_8UnitTestEi
FN:3734,_ZN7testing8internal17TestEventRepeaterC1Ev
FNDA:20,_ZN7testing8internal17TestEventRepeaterC1Ev
FN:3734,_ZN7testing8internal17TestEventRepeaterC2Ev
FNDA:20,_ZN7testing8internal17TestEventRepeaterC2Ev
FN:3741,_ZNK7testing8internal17TestEventRepeater18forwarding_enabledEv
FNDA:0,_ZNK7testing8internal17TestEventRepeater18forwarding_enabledEv
FN:3742,_ZN7testing8internal17TestEventRepeater22set_forwarding_enabledEb
FNDA:0,_ZN7testing8internal17TestEventRepeater22set_forwarding_enabledEb
FN:3776,_ZN7testing8internal17TestEventRepeaterD2Ev
FNDA:0,_ZN7testing8internal17TestEventRepeaterD2Ev
FN:3776,_ZN7testing8internal17TestEventRepeaterD1Ev
FNDA:0,_ZN7testing8internal17TestEventRepeaterD1Ev
FN:3776,_ZN7testing8internal17TestEventRepeaterD0Ev
FNDA:0,_ZN7testing8internal17TestEventRepeaterD0Ev
FN:3780,_ZN7testing8internal17TestEventRepeater6AppendEPNS_17TestEventListenerE
FNDA:20,_ZN7testing8internal17TestEventRepeater6AppendEPNS_17TestEventListenerE
FN:3784,_ZN7testing8internal17TestEventRepeater7ReleaseEPNS_17TestEventListenerE
FNDA:20,_ZN7testing8internal17TestEventRepeater7ReleaseEPNS_17TestEventListenerE
FN:3816,_ZN7testing8internal17TestEventRepeater18OnTestProgramStartERKNS_8UnitTestE
FNDA:19,_ZN7testing8internal17TestEventRepeater18OnTestProgramStartERKNS_8UnitTestE
FN:3817,_ZN7testing8internal17TestEventRepeater24OnEnvironmentsSetUpStartERKNS_8UnitTestE
FNDA:19,_ZN7testing8internal17TestEventRepeater24OnEnvironmentsSetUpStartERKNS_8UnitTestE
FN:3820,_ZN7testing8internal17TestEventRepeater15OnTestCaseStartERKNS_9TestSuiteE
FNDA:19,_ZN7testing8internal17TestEventRepeater15OnTestCaseStartERKNS_9TestSuiteE
FN:3822,_ZN7testing8internal17TestEventRepeater16OnTestSuiteStartERKNS_9TestSuiteE
FNDA:19,_ZN7testing8internal17TestEventRepeater16OnTestSuiteStartERKNS_9TestSuiteE
FN:3823,_ZN7testing8internal17TestEventRepeater11OnTestStartERKNS_8TestInfoE
FNDA:19,_ZN7testing8internal17TestEventRepeater11OnTestStartERKNS_8TestInfoE
FN:3824,_ZN7testing8internal17TestEventRepeater16OnTestPartResultERKNS_14TestPartResultE
FNDA:0,_ZN7testing8internal17TestEventRepeater16OnTestPartResultERKNS_14TestPartResultE
FN:3825,_ZN7testing8internal17TestEventRepeater27OnEnvironmentsTearDownStartERKNS_8UnitTestE
FNDA:19,_ZN7testing8internal17TestEventRepeater27OnEnvironmentsTearDownStartERKNS_8UnitTestE
FN:3826,_ZN7testing8internal17TestEventRepeater22OnEnvironmentsSetUpEndERKNS_8UnitTestE
FNDA:19,_ZN7testing8internal17TestEventRepeater22OnEnvironmentsSetUpEndERKNS_8UnitTestE
FN:3827,_ZN7testing8internal17TestEventRepeater25OnEnvironmentsTearDownEndERKNS_8UnitTestE
FNDA:19,_ZN7testing8internal17TestEventRepeater25OnEnvironmentsTearDownEndERKNS_8UnitTestE
FN:3828,_ZN7testing8internal17TestEventRepeater9OnTestEndERKNS_8TestInfoE
FNDA:19,_ZN7testing8internal17TestEventRepeater9OnTestEndERKNS_8TestInfoE
FN:3831,_ZN7testing8internal17TestEventRepeater13OnTestCaseEndERKNS_9TestSuiteE
FNDA:19,_ZN7testing8internal17TestEventRepeater13OnTestCaseEndERKNS_9TestSuiteE
FN:3833,_ZN7testing8internal17TestEventRepeater14OnTestSuiteEndERKNS_9TestSuiteE
FNDA:19,_ZN7testing8internal17TestEventRepeater14OnTestSuiteEndERKNS_9TestSuiteE
FN:3834,_ZN7testing8internal17TestEventRepeater16OnTestProgramEndERKNS_8UnitTestE
FNDA:19,_ZN7testing8internal17TestEventRepeater16OnTestProgramEndERKNS_8UnitTestE
FN:3839,_ZN7testing8internal17TestEventRepeater20OnTestIterationStartERKNS_8UnitTestEi
FNDA:19,_ZN7testing8internal17TestEventRepeater20OnTestIterationStartERKNS_8UnitTestEi
FN:3848,_ZN7testing8internal17TestEventRepeater18OnTestIterationEndERKNS_8UnitTestEi
FNDA:19,_ZN7testing8internal17TestEventRepeater18OnTestIterationEndERKNS_8UnitTestEi
FN:3860,_ZN7testing8internal24XmlUnitTestResultPrinterD1Ev
FNDA:0,_ZN7testing8internal24XmlUnitTestResultPrinterD1Ev
FN:3860,_ZN7testing8internal24XmlUnitTestResultPrinterD0Ev
FNDA:0,_ZN7testing8internal24XmlUnitTestResultPrinterD0Ev
FN:3860,_ZN7testing8internal24XmlUnitTestResultPrinterD2Ev
FNDA:0,_ZN7testing8internal24XmlUnitTestResultPrinterD2Ev
FN:3874,_ZN7testing8internal24XmlUnitTestResultPrinter24IsNormalizableWhitespaceEc
FNDA:0,_ZN7testing8internal24XmlUnitTestResultPrinter24IsNormalizableWhitespaceEc
FN:3879,_ZN7testing8internal24XmlUnitTestResultPrinter19IsValidXmlCharacterEc
FNDA:0,_ZN7testing8internal24XmlUnitTestResultPrinter19IsValidXmlCharacterEc
FN:3893,_ZN7testing8internal24XmlUnitTestResultPrinter18EscapeXmlAttributeERKNSt3__112basic_stringIcNS2_11char_traitsIcEENS2_9allocatorIcEEEE
FNDA:0,_ZN7testing8internal24XmlUnitTestResultPrinter18EscapeXmlAttributeERKNSt3__112basic_stringIcNS2_11char_traitsIcEENS2_9allocatorIcEEEE
FN:3943,_ZN7testing8internal24XmlUnitTestResultPrinterC2EPKc
FNDA:0,_ZN7testing8internal24XmlUnitTestResultPrinterC2EPKc
FN:3943,_ZN7testing8internal24XmlUnitTestResultPrinterC1EPKc
FNDA:0,_ZN7testing8internal24XmlUnitTestResultPrinterC1EPKc
FN:3951,_ZN7testing8internal24XmlUnitTestResultPrinter18OnTestIterationEndERKNS_8UnitTestEi
FNDA:0,_ZN7testing8internal24XmlUnitTestResultPrinter18OnTestIterationEndERKNS_8UnitTestEi
FN:3960,_ZN7testing8internal24XmlUnitTestResultPrinter23ListTestsMatchingFilterERKNSt3__16vectorIPNS_9TestSuiteENS2_9allocatorIS5_EEEE
FNDA:0,_ZN7testing8internal24XmlUnitTestResultPrinter23ListTestsMatchingFilterERKNSt3__16vectorIPNS_9TestSuiteENS2_9allocatorIS5_EEEE
FN:3979,_ZN7testing8internal24XmlUnitTestResultPrinter9EscapeXmlERKNSt3__112basic_stringIcNS2_11char_traitsIcEENS2_9allocatorIcEEEEb
FNDA:0,_ZN7testing8internal24XmlUnitTestResultPrinter9EscapeXmlERKNSt3__112basic_stringIcNS2_11char_traitsIcEENS2_9allocatorIcEEEEb
FN:4025,_ZN7testing8internal24XmlUnitTestResultPrinter26RemoveInvalidXmlCharactersERKNSt3__112basic_stringIcNS2_11char_traitsIcEENS2_9allocatorIcEEEE
FNDA:0,_ZN7testing8internal24XmlUnitTestResultPrinter26RemoveInvalidXmlCharactersERKNSt3__112basic_stringIcNS2_11char_traitsIcEENS2_9allocatorIcEEEE
FN:4054,_ZN7testing8internal27FormatTimeInMillisAsSecondsEx
FNDA:0,_ZN7testing8internal27FormatTimeInMillisAsSecondsEx
FN:4060,_ZN7testing8internalL17PortableLocaltimeElP2tm
FNDA:0,_ZN7testing8internalL17PortableLocaltimeElP2tm
FN:4077,_ZN7testing8internal32FormatEpochTimeInMillisAsIso8601Ex
FNDA:0,_ZN7testing8internal32FormatEpochTimeInMillisAsIso8601Ex
FN:4092,_ZN7testing8internal24XmlUnitTestResultPrinter21OutputXmlCDataSectionEPNSt3__113basic_ostreamIcNS2_11char_traitsIcEEEEPKc
FNDA:0,_ZN7testing8internal24XmlUnitTestResultPrinter21OutputXmlCDataSectionEPNSt3__113basic_ostreamIcNS2_11char_traitsIcEEEEPKc
FN:4111,_ZN7testing8internal24XmlUnitTestResultPrinter18OutputXmlAttributeEPNSt3__113basic_ostreamIcNS2_11char_traitsIcEEEERKNS2_12basic_stringIcS5_NS2_9allocatorIcEEEESD_SD_
FNDA:0,_ZN7testing8internal24XmlUnitTestResultPrinter18OutputXmlAttributeEPNSt3__113basic_ostreamIcNS2_11char_traitsIcEEEERKNS2_12basic_stringIcS5_NS2_9allocatorIcEEEESD_SD_
FN:4128,_ZN7testing8internal24XmlUnitTestResultPrinter17OutputXmlTestInfoEPNSt3__113basic_ostreamIcNS2_11char_traitsIcEEEEPKcRKNS_8TestInfoE
FNDA:0,_ZN7testing8internal24XmlUnitTestResultPrinter17OutputXmlTestInfoEPNSt3__113basic_ostreamIcNS2_11char_traitsIcEEEEPKcRKNS_8TestInfoE
FN:4216,_ZN7testing8internal24XmlUnitTestResultPrinter17PrintXmlTestSuiteEPNSt3__113basic_ostreamIcNS2_11char_traitsIcEEEERKNS_9TestSuiteE
FNDA:0,_ZN7testing8internal24XmlUnitTestResultPrinter17PrintXmlTestSuiteEPNSt3__113basic_ostreamIcNS2_11char_traitsIcEEEERKNS_9TestSuiteE
FN:4250,_ZN7testing8internal24XmlUnitTestResultPrinter16PrintXmlUnitTestEPNSt3__113basic_ostreamIcNS2_11char_traitsIcEEEERKNS_8UnitTestE
FNDA:0,_ZN7testing8internal24XmlUnitTestResultPrinter16PrintXmlUnitTestEPNSt3__113basic_ostreamIcNS2_11char_traitsIcEEEERKNS_8UnitTestE
FN:4287,_ZN7testing8internal24XmlUnitTestResultPrinter17PrintXmlTestsListEPNSt3__113basic_ostreamIcNS2_11char_traitsIcEEEERKNS2_6vectorIPNS_9TestSuiteENS2_9allocatorISA_EEEE
FNDA:0,_ZN7testing8internal24XmlUnitTestResultPrinter17PrintXmlTestsListEPNSt3__113basic_ostreamIcNS2_11char_traitsIcEEEERKNS2_6vectorIPNS_9TestSuiteENS2_9allocatorISA_EEEE
FN:4311,_ZN7testing8internal24XmlUnitTestResultPrinter29TestPropertiesAsXmlAttributesERKNS_10TestResultE
FNDA:0,_ZN7testing8internal24XmlUnitTestResultPrinter29TestPropertiesAsXmlAttributesERKNS_10TestResultE
FN:4322,_ZN7testing8internal24XmlUnitTestResultPrinter23OutputXmlTestPropertiesEPNSt3__113basic_ostreamIcNS2_11char_traitsIcEEEERKNS_10TestResultE
FNDA:0,_ZN7testing8internal24XmlUnitTestResultPrinter23OutputXmlTestPropertiesEPNSt3__113basic_ostreamIcNS2_11char_traitsIcEEEERKNS_10TestResultE
FN:4345,_ZN7testing8internal25JsonUnitTestResultPrinterD1Ev
FNDA:0,_ZN7testing8internal25JsonUnitTestResultPrinterD1Ev
FN:4345,_ZN7testing8internal25JsonUnitTestResultPrinterD0Ev
FNDA:0,_ZN7testing8internal25JsonUnitTestResultPrinterD0Ev
FN:4345,_ZN7testing8internal25JsonUnitTestResultPrinterD2Ev
FNDA:0,_ZN7testing8internal25JsonUnitTestResultPrinterD2Ev
FN:4399,_ZN7testing8internal25JsonUnitTestResultPrinterC2EPKc
FNDA:0,_ZN7testing8internal25JsonUnitTestResultPrinterC2EPKc
FN:4399,_ZN7testing8internal25JsonUnitTestResultPrinterC1EPKc
FNDA:0,_ZN7testing8internal25JsonUnitTestResultPrinterC1EPKc
FN:4406,_ZN7testing8internal25JsonUnitTestResultPrinter18OnTestIterationEndERKNS_8UnitTestEi
FNDA:0,_ZN7testing8internal25JsonUnitTestResultPrinter18OnTestIterationEndERKNS_8UnitTestEi
FN:4416,_ZN7testing8internal25JsonUnitTestResultPrinter10EscapeJsonERKNSt3__112basic_stringIcNS2_11char_traitsIcEENS2_9allocatorIcEEEE
FNDA:0,_ZN7testing8internal25JsonUnitTestResultPrinter10EscapeJsonERKNSt3__112basic_stringIcNS2_11char_traitsIcEENS2_9allocatorIcEEEE
FN:4459,_ZN7testing8internalL28FormatTimeInMillisAsDurationEx
FNDA:0,_ZN7testing8internalL28FormatTimeInMillisAsDurationEx
FN:4467,_ZN7testing8internalL32FormatEpochTimeInMillisAsRFC3339Ex
FNDA:0,_ZN7testing8internalL32FormatEpochTimeInMillisAsRFC3339Ex
FN:4480,_ZN7testing8internalL6IndentEm
FNDA:0,_ZN7testing8internalL6IndentEm
FN:4484,_ZN7testing8internal25JsonUnitTestResultPrinter13OutputJsonKeyEPNSt3__113basic_ostreamIcNS2_11char_traitsIcEEEERKNS2_12basic_stringIcS5_NS2_9allocatorIcEEEESD_SD_SD_b
FNDA:0,_ZN7testing8internal25JsonUnitTestResultPrinter13OutputJsonKeyEPNSt3__113basic_ostreamIcNS2_11char_traitsIcEEEERKNS2_12basic_stringIcS5_NS2_9allocatorIcEEEESD_SD_SD_b
FN:4504,_ZN7testing8internal25JsonUnitTestResultPrinter13OutputJsonKeyEPNSt3__113basic_ostreamIcNS2_11char_traitsIcEEEERKNS2_12basic_stringIcS5_NS2_9allocatorIcEEEESD_iSD_b
FNDA:0,_ZN7testing8internal25JsonUnitTestResultPrinter13OutputJsonKeyEPNSt3__113basic_ostreamIcNS2_11char_traitsIcEEEERKNS2_12basic_stringIcS5_NS2_9allocatorIcEEEESD_iSD_b
FN:4525,_ZN7testing8internal25JsonUnitTestResultPrinter18OutputJsonTestInfoEPNSt3__113basic_ostreamIcNS2_11char_traitsIcEEEEPKcRKNS_8TestInfoE
FNDA:0,_ZN7testing8internal25JsonUnitTestResultPrinter18OutputJsonTestInfoEPNSt3__113basic_ostreamIcNS2_11char_traitsIcEEEEPKcRKNS_8TestInfoE
FN:4591,_ZN7testing8internal25JsonUnitTestResultPrinter18PrintJsonTestSuiteEPNSt3__113basic_ostreamIcNS2_11char_traitsIcEEEERKNS_9TestSuiteE
FNDA:0,_ZN7testing8internal25JsonUnitTestResultPrinter18PrintJsonTestSuiteEPNSt3__113basic_ostreamIcNS2_11char_traitsIcEEEERKNS_9TestSuiteE
FN:4634,_ZN7testing8internal25JsonUnitTestResultPrinter17PrintJsonUnitTestEPNSt3__113basic_ostreamIcNS2_11char_traitsIcEEEERKNS_8UnitTestE
FNDA:0,_ZN7testing8internal25JsonUnitTestResultPrinter17PrintJsonUnitTestEPNSt3__113basic_ostreamIcNS2_11char_traitsIcEEEERKNS_8UnitTestE
FN:4679,_ZN7testing8internal25JsonUnitTestResultPrinter17PrintJsonTestListEPNSt3__113basic_ostreamIcNS2_11char_traitsIcEEEERKNS2_6vectorIPNS_9TestSuiteENS2_9allocatorISA_EEEE
FNDA:0,_ZN7testing8internal25JsonUnitTestResultPrinter17PrintJsonTestListEPNSt3__113basic_ostreamIcNS2_11char_traitsIcEEEERKNS2_6vectorIPNS_9TestSuiteENS2_9allocatorISA_EEEE
FN:4706,_ZN7testing8internal25JsonUnitTestResultPrinter20TestPropertiesAsJsonERKNS_10TestResultERKNSt3__112basic_stringIcNS5_11char_traitsIcEENS5_9allocatorIcEEEE
FNDA:0,_ZN7testing8internal25JsonUnitTestResultPrinter20TestPropertiesAsJsonERKNS_10TestResultERKNSt3__112basic_stringIcNS5_11char_traitsIcEENS5_9allocatorIcEEEE
FN:4794,_ZN7testing8internal18OsStackTraceGetter17CurrentStackTraceEii
FNDA:0,_ZN7testing8internal18OsStackTraceGetter17CurrentStackTraceEii
FN:4844,_ZN7testing8internal18OsStackTraceGetter16UponLeavingGTestEv
FNDA:133,_ZN7testing8internal18OsStackTraceGetter16UponLeavingGTestEv
FN:4860,_ZN7testing8internal23ScopedPrematureExitFileC1EPKc
FNDA:20,_ZN7testing8internal23ScopedPrematureExitFileC1EPKc
FN:4860,_ZN7testing8internal23ScopedPrematureExitFileC2EPKc
FNDA:20,_ZN7testing8internal23ScopedPrematureExitFileC2EPKc
FN:4874,_ZN7testing8internal23ScopedPrematureExitFileD1Ev
FNDA:20,_ZN7testing8internal23ScopedPrematureExitFileD1Ev
FN:4874,_ZN7testing8internal23ScopedPrematureExitFileD2Ev
FNDA:20,_ZN7testing8internal23ScopedPrematureExitFileD2Ev
FN:4897,_ZN7testing18TestEventListenersC2Ev
FNDA:20,_ZN7testing18TestEventListenersC2Ev
FN:4897,_ZN7testing18TestEventListenersC1Ev
FNDA:20,_ZN7testing18TestEventListenersC1Ev
FN:4902,_ZN7testing18TestEventListenersD2Ev
FNDA:0,_ZN7testing18TestEventListenersD2Ev
FN:4902,_ZN7testing18TestEventListenersD1Ev
FNDA:0,_ZN7testing18TestEventListenersD1Ev
FN:4908,_ZN7testing18TestEventListeners6AppendEPNS_17TestEventListenerE
FNDA:20,_ZN7testing18TestEventListeners6AppendEPNS_17TestEventListenerE
FN:4915,_ZN7testing18TestEventListeners7ReleaseEPNS_17TestEventListenerE
FNDA:20,_ZN7testing18TestEventListeners7ReleaseEPNS_17TestEventListenerE
FN:4925,_ZN7testing18TestEventListeners8repeaterEv
FNDA:57,_ZN7testing18TestEventListeners8repeaterEv
FN:4932,_ZN7testing18TestEventListeners23SetDefaultResultPrinterEPNS_17TestEventListenerE
FNDA:20,_ZN7testing18TestEventListeners23SetDefaultResultPrinterEPNS_17TestEventListenerE
FN:4947,_ZN7testing18TestEventListeners22SetDefaultXmlGeneratorEPNS_17TestEventListenerE
FNDA:0,_ZN7testing18TestEventListeners22SetDefaultXmlGeneratorEPNS_17TestEventListenerE
FN:4959,_ZNK7testing18TestEventListeners22EventForwardingEnabledEv
FNDA:0,_ZNK7testing18TestEventListeners22EventForwardingEnabledEv
FN:4963,_ZN7testing18TestEventListeners23SuppressEventForwardingEv
FNDA:0,_ZN7testing18TestEventListeners23SuppressEventForwardingEv
FN:4976,_ZN7testing8UnitTest11GetInstanceEv
FNDA:821,_ZN7testing8UnitTest11GetInstanceEv
FN:4991,_ZNK7testing8UnitTest27successful_test_suite_countEv
FNDA:0,_ZNK7testing8UnitTest27successful_test_suite_countEv
FN:4996,_ZNK7testing8UnitTest23failed_test_suite_countEv
FNDA:0,_ZNK7testing8UnitTest23failed_test_suite_countEv
FN:5001,_ZNK7testing8UnitTest22total_test_suite_countEv
FNDA:0,_ZNK7testing8UnitTest22total_test_suite_countEv
FN:5007,_ZNK7testing8UnitTest23test_suite_to_run_countEv
FNDA:38,_ZNK7testing8UnitTest23test_suite_to_run_countEv
FN:5013,_ZNK7testing8UnitTest26successful_test_case_countEv
FNDA:0,_ZNK7testing8UnitTest26successful_test_case_countEv
FN:5016,_ZNK7testing8UnitTest22failed_test_case_countEv
FNDA:0,_ZNK7testing8UnitTest22failed_test_case_countEv
FN:5019,_ZNK7testing8UnitTest21total_test_case_countEv
FNDA:0,_ZNK7testing8UnitTest21total_test_case_countEv
FN:5022,_ZNK7testing8UnitTest22test_case_to_run_countEv
FNDA:0,_ZNK7testing8UnitTest22test_case_to_run_countEv
FN:5028,_ZNK7testing8UnitTest21successful_test_countEv
FNDA:19,_ZNK7testing8UnitTest21successful_test_countEv
FN:5033,_ZNK7testing8UnitTest18skipped_test_countEv
FNDA:19,_ZNK7testing8UnitTest18skipped_test_countEv
FN:5038,_ZNK7testing8UnitTest17failed_test_countEv
FNDA:0,_ZNK7testing8UnitTest17failed_test_countEv
FN:5041,_ZNK7testing8UnitTest30reportable_disabled_test_countEv
FNDA:19,_ZNK7testing8UnitTest30reportable_disabled_test_countEv
FN:5046,_ZNK7testing8UnitTest19disabled_test_countEv
FNDA:0,_ZNK7testing8UnitTest19disabled_test_countEv
FN:5051,_ZNK7testing8UnitTest21reportable_test_countEv
FNDA:0,_ZNK7testing8UnitTest21reportable_test_countEv
FN:5056,_ZNK7testing8UnitTest16total_test_countEv
FNDA:0,_ZNK7testing8UnitTest16total_test_countEv
FN:5059,_ZNK7testing8UnitTest17test_to_run_countEv
FNDA:38,_ZNK7testing8UnitTest17test_to_run_countEv
FN:5063,_ZNK7testing8UnitTest15start_timestampEv
FNDA:0,_ZNK7testing8UnitTest15start_timestampEv
FN:5068,_ZNK7testing8UnitTest12elapsed_timeEv
FNDA:19,_ZNK7testing8UnitTest12elapsed_timeEv
FN:5074,_ZNK7testing8UnitTest6PassedEv
FNDA:19,_ZNK7testing8UnitTest6PassedEv
FN:5078,_ZNK7testing8UnitTest6FailedEv
FNDA:0,_ZNK7testing8UnitTest6FailedEv
FN:5082,_ZNK7testing8UnitTest12GetTestSuiteEi
FNDA:0,_ZNK7testing8UnitTest12GetTestSuiteEi
FN:5088,_ZNK7testing8UnitTest11GetTestCaseEi
FNDA:0,_ZNK7testing8UnitTest11GetTestCaseEi
FN:5095,_ZNK7testing8UnitTest18ad_hoc_test_resultEv
FNDA:0,_ZNK7testing8UnitTest18ad_hoc_test_resultEv
FN:5101,_ZN7testing8UnitTest19GetMutableTestSuiteEi
FNDA:0,_ZN7testing8UnitTest19GetMutableTestSuiteEi
FN:5107,_ZN7testing8UnitTest9listenersEv
FNDA:38,_ZN7testing8UnitTest9listenersEv
FN:5121,_ZN7testing8UnitTest14AddEnvironmentEPNS_11EnvironmentE
FNDA:0,_ZN7testing8UnitTest14AddEnvironmentEPNS_11EnvironmentE
FN:5134,_ZN7testing8UnitTest17AddTestPartResultENS_14TestPartResult4TypeEPKciRKNSt3__112basic_stringIcNS5_11char_traitsIcEENS5_9allocatorIcEEEESD_
FNDA:0,_ZN7testing8UnitTest17AddTestPartResultENS_14TestPartResult4TypeEPKciRKNSt3__112basic_stringIcNS5_11char_traitsIcEENS5_9allocatorIcEEEESD_
FN:5204,_ZN7testing8UnitTest14RecordPropertyERKNSt3__112basic_stringIcNS1_11char_traitsIcEENS1_9allocatorIcEEEES9_
FNDA:0,_ZN7testing8UnitTest14RecordPropertyERKNSt3__112basic_stringIcNS1_11char_traitsIcEENS1_9allocatorIcEEEES9_
FN:5214,_ZN7testing8UnitTest3RunEv
FNDA:20,_ZN7testing8UnitTest3RunEv
FN:5299,_ZNK7testing8UnitTest20original_working_dirEv
FNDA:0,_ZNK7testing8UnitTest20original_working_dirEv
FN:5305,_ZNK7testing8UnitTest18current_test_suiteEv
FNDA:0,_ZNK7testing8UnitTest18current_test_suiteEv
FN:5313,_ZNK7testing8UnitTest17current_test_caseEv
FNDA:0,_ZNK7testing8UnitTest17current_test_caseEv
FN:5322,_ZNK7testing8UnitTest17current_test_infoEv
FNDA:0,_ZNK7testing8UnitTest17current_test_infoEv
FN:5329,_ZNK7testing8UnitTest11random_seedEv
FNDA:0,_ZNK7testing8UnitTest11random_seedEv
FN:5334,_ZN7testing8UnitTest27parameterized_test_registryEv
FNDA:0,_ZN7testing8UnitTest27parameterized_test_registryEv
FN:5339,_ZN7testing8UnitTestC1Ev
FNDA:20,_ZN7testing8UnitTestC1Ev
FN:5339,_ZN7testing8UnitTestC2Ev
FNDA:20,_ZN7testing8UnitTestC2Ev
FN:5344,_ZN7testing8UnitTestD1Ev
FNDA:0,_ZN7testing8UnitTestD1Ev
FN:5344,_ZN7testing8UnitTestD2Ev
FNDA:0,_ZN7testing8UnitTestD2Ev
FN:5344,_ZN7testing8UnitTestD0Ev
FNDA:0,_ZN7testing8UnitTestD0Ev
FN:5350,_ZN7testing8UnitTest14PushGTestTraceERKNS_8internal9TraceInfoE
FNDA:0,_ZN7testing8UnitTest14PushGTestTraceERKNS_8internal9TraceInfoE
FN:5357,_ZN7testing8UnitTest13PopGTestTraceEv
FNDA:0,_ZN7testing8UnitTest13PopGTestTraceEv
FN:5365,_ZN7testing8internal12UnitTestImplC1EPNS_8UnitTestE
FNDA:20,_ZN7testing8internal12UnitTestImplC1EPNS_8UnitTestE
FN:5365,_ZN7testing8internal12UnitTestImplC2EPNS_8UnitTestE
FNDA:20,_ZN7testing8internal12UnitTestImplC2EPNS_8UnitTestE
FN:5394,_ZN7testing8internal12UnitTestImplD2Ev
FNDA:0,_ZN7testing8internal12UnitTestImplD2Ev
FN:5394,_ZN7testing8internal12UnitTestImplD1Ev
FNDA:0,_ZN7testing8internal12UnitTestImplD1Ev
FN:5394,_ZN7testing8internal12UnitTestImplD0Ev
FNDA:0,_ZN7testing8internal12UnitTestImplD0Ev
FN:5409,_ZN7testing8internal12UnitTestImpl14RecordPropertyERKNS_12TestPropertyE
FNDA:0,_ZN7testing8internal12UnitTestImpl14RecordPropertyERKNS_12TestPropertyE
FN:5429,_ZN7testing8internal12UnitTestImpl32SuppressTestEventsIfInSubprocessEv
FNDA:20,_ZN7testing8internal12UnitTestImpl32SuppressTestEventsIfInSubprocessEv
FN:5437,_ZN7testing8internal12UnitTestImpl18ConfigureXmlOutputEv
FNDA:20,_ZN7testing8internal12UnitTestImpl18ConfigureXmlOutputEv
FN:5474,_ZN7testing8internal12UnitTestImpl19PostFlagParsingInitEv
FNDA:40,_ZN7testing8internal12UnitTestImpl19PostFlagParsingInitEv
FN:5524,_ZN7testing8internal15TestSuiteNameIsD1Ev
FNDA:380,_ZN7testing8internal15TestSuiteNameIsD1Ev
FN:5524,_ZN7testing8internal15TestSuiteNameIsD2Ev
FNDA:380,_ZN7testing8internal15TestSuiteNameIsD2Ev
FN:5527,_ZN7testing8internal15TestSuiteNameIsC1ERKNSt3__112basic_stringIcNS2_11char_traitsIcEENS2_9allocatorIcEEEE
FNDA:380,_ZN7testing8internal15TestSuiteNameIsC1ERKNSt3__112basic_stringIcNS2_11char_traitsIcEENS2_9allocatorIcEEEE
FN:5527,_ZN7testing8internal15TestSuiteNameIsC2ERKNSt3__112basic_stringIcNS2_11char_traitsIcEENS2_9allocatorIcEEEE
FNDA:380,_ZN7testing8internal15TestSuiteNameIsC2ERKNSt3__112basic_stringIcNS2_11char_traitsIcEENS2_9allocatorIcEEEE
FN:5530,_ZNK7testing8internal15TestSuiteNameIsclEPKNS_9TestSuiteE
FNDA:360,_ZNK7testing8internal15TestSuiteNameIsclEPKNS_9TestSuiteE
FN:5551,_ZN7testing8internal12UnitTestImpl12GetTestSuiteEPKcS3_PFvvES5_
FNDA:380,_ZN7testing8internal12UnitTestImpl12GetTestSuiteEPKcS3_PFvvES5_
FN:5587,_ZN7testing8internalL16SetUpEnvironmentEPNS_11EnvironmentE
FNDA:0,_ZN7testing8internalL16SetUpEnvironmentEPNS_11EnvironmentE
FN:5588,_ZN7testing8internalL19TearDownEnvironmentEPNS_11EnvironmentE
FNDA:0,_ZN7testing8internalL19TearDownEnvironmentEPNS_11EnvironmentE
FN:5599,_ZN7testing8internal12UnitTestImpl11RunAllTestsEv
FNDA:20,_ZN7testing8internal12UnitTestImpl11RunAllTestsEv
FN:5773,_ZN7testing8internal30WriteToShardStatusFileIfNeededEv
FNDA:20,_ZN7testing8internal30WriteToShardStatusFileIfNeededEv
FN:5795,_ZN7testing8internal11ShouldShardEPKcS2_b
FNDA:39,_ZN7testing8internal11ShouldShardEPKcS2_b
FN:5840,_ZN7testing8internal17Int32FromEnvOrDieEPKci
FNDA:78,_ZN7testing8internal17Int32FromEnvOrDieEPKci
FN:5858,_ZN7testing8internal20ShouldRunTestOnShardEiii
FNDA:0,_ZN7testing8internal20ShouldRunTestOnShardEiii
FN:5869,_ZN7testing8internal12UnitTestImpl11FilterTestsENS1_18ReactionToShardingE
FNDA:20,_ZN7testing8internal12UnitTestImpl11FilterTestsENS1_18ReactionToShardingE
FN:5924,_ZN7testing8internalL14PrintOnOneLineEPKci
FNDA:0,_ZN7testing8internalL14PrintOnOneLineEPKci
FN:5943,_ZN7testing8internal12UnitTestImpl23ListTestsMatchingFilterEv
FNDA:1,_ZN7testing8internal12UnitTestImpl23ListTestsMatchingFilterEv
FN:6000,_ZN7testing8internal12UnitTestImpl25set_os_stack_trace_getterEPNS0_27OsStackTraceGetterInterfaceE
FNDA:0,_ZN7testing8internal12UnitTestImpl25set_os_stack_trace_getterEPNS0_27OsStackTraceGetterInterfaceE
FN:6011,_ZN7testing8internal12UnitTestImpl21os_stack_trace_getterEv
FNDA:133,_ZN7testing8internal12UnitTestImpl21os_stack_trace_getterEv
FN:6024,_ZN7testing8internal12UnitTestImpl19current_test_resultEv
FNDA:114,_ZN7testing8internal12UnitTestImpl19current_test_resultEv
FN:6036,_ZN7testing8internal12UnitTestImpl12ShuffleTestsEv
FNDA:0,_ZN7testing8internal12UnitTestImpl12ShuffleTestsEv
FN:6051,_ZN7testing8internal12UnitTestImpl14UnshuffleTestsEv
FNDA:19,_ZN7testing8internal12UnitTestImpl14UnshuffleTestsEv
FN:6070,_ZN7testing8internal31GetCurrentOsStackTraceExceptTopEPNS_8UnitTestEi
FNDA:0,_ZN7testing8internal31GetCurrentOsStackTraceExceptTopEPNS_8UnitTestEi
FN:6083,_ZN7testing8internal6IsTrueEb
FNDA:780,_ZN7testing8internal6IsTrueEb
FN:6085,_ZN7testing8internal10AlwaysTrueEv
FNDA:0,_ZN7testing8internal10AlwaysTrueEv
FN:6098,_ZN7testing8internal10SkipPrefixEPKcPS2_
FNDA:0,_ZN7testing8internal10SkipPrefixEPKcPS2_
FN:6112,_ZN7testing8internalL14ParseFlagValueEPKcS2_b
FNDA:181,_ZN7testing8internalL14ParseFlagValueEPKcS2_b
FN:6149,_ZN7testing8internalL13ParseBoolFlagEPKcS2_Pb
FNDA:120,_ZN7testing8internalL13ParseBoolFlagEPKcS2_Pb
FN:6165,_ZN7testing8internal14ParseInt32FlagEPKcS2_Pi
FNDA:0,_ZN7testing8internal14ParseInt32FlagEPKcS2_Pi
FN:6182,_ZN7testing8internalL15ParseStringFlagINSt3__112basic_stringIcNS2_11char_traitsIcEENS2_9allocatorIcEEEEEEbPKcSA_PT_
FNDA:61,_ZN7testing8internalL15ParseStringFlagINSt3__112basic_stringIcNS2_11char_traitsIcEENS2_9allocatorIcEEEEEEbPKcSA_PT_
FN:6200,_ZN7testing8internalL23HasGoogleTestFlagPrefixEPKc
FNDA:0,_ZN7testing8internalL23HasGoogleTestFlagPrefixEPKc
FN:6218,_ZN7testing8internalL17PrintColorEncodedEPKc
FNDA:0,_ZN7testing8internalL17PrintColorEncodedEPKc
FN:6344,_ZN7testing8internalL19ParseGoogleTestFlagEPKc
FNDA:39,_ZN7testing8internalL19ParseGoogleTestFlagEPKc
FN:6376,_ZN7testing8internalL17LoadFlagsFromFileERKNSt3__112basic_stringIcNS1_11char_traitsIcEENS1_9allocatorIcEEEE
FNDA:0,_ZN7testing8internalL17LoadFlagsFromFileERKNSt3__112basic_stringIcNS1_11char_traitsIcEENS1_9allocatorIcEEEE
FN:6399,_ZN7testing8internal28ParseGoogleTestFlagsOnlyImplIcEEvPiPPT_
FNDA:20,_ZN7testing8internal28ParseGoogleTestFlagsOnlyImplIcEEvPiPPT_
FN:6399,_ZN7testing8internal28ParseGoogleTestFlagsOnlyImplIwEEvPiPPT_
FNDA:0,_ZN7testing8internal28ParseGoogleTestFlagsOnlyImplIwEEvPiPPT_
FN:6452,_ZN7testing8internal24ParseGoogleTestFlagsOnlyEPiPPc
FNDA:20,_ZN7testing8internal24ParseGoogleTestFlagsOnlyEPiPPc
FN:6466,_ZN7testing8internal24ParseGoogleTestFlagsOnlyEPiPPw
FNDA:0,_ZN7testing8internal24ParseGoogleTestFlagsOnlyEPiPPw
FN:6475,_ZN7testing8internal18InitGoogleTestImplIcEEvPiPPT_
FNDA:20,_ZN7testing8internal18InitGoogleTestImplIcEEvPiPPT_
FN:6475,_ZN7testing8internal18InitGoogleTestImplIwEEvPiPPT_
FNDA:0,_ZN7testing8internal18InitGoogleTestImplIwEEvPiPPT_
FN:6505,_ZN7testing14InitGoogleTestEPiPPc
FNDA:20,_ZN7testing14InitGoogleTestEPiPPc
FN:6515,_ZN7testing14InitGoogleTestEPiPPw
FNDA:0,_ZN7testing14InitGoogleTestEPiPPw
FN:6525,_ZN7testing14InitGoogleTestEv
FNDA:0,_ZN7testing14InitGoogleTestEv
FN:6539,_ZN7testing7TempDirEv
FNDA:0,_ZN7testing7TempDirEv
FN:6576,_ZN7testing11ScopedTrace9PushTraceEPKciNSt3__112basic_stringIcNS3_11char_traitsIcEENS3_9allocatorIcEEEE
FNDA:0,_ZN7testing11ScopedTrace9PushTraceEPKciNSt3__112basic_stringIcNS3_11char_traitsIcEENS3_9allocatorIcEEEE
FN:6586,_ZN7testing11ScopedTraceD2Ev
FNDA:0,_ZN7testing11ScopedTraceD2Ev
FN:6586,_ZN7testing11ScopedTraceD1Ev
FNDA:0,_ZN7testing11ScopedTraceD1Ev
DA:181,0
DA:182,0
DA:183,0
DA:184,0
DA:186,0
DA:187,0
DA:188,0
DA:189,0
DA:190,0
DA:191,0
DA:192,0
DA:193,0
DA:199,20
DA:200,20
DA:201,20
DA:202,20
DA:203,0
DA:205,20
DA:206,20
DA:210,20
DA:211,20
DA:212,20
DA:213,20
DA:214,0
DA:216,20
DA:217,20
DA:348,0
DA:351,0
DA:353,0
DA:354,0
DA:355,0
DA:356,0
DA:357,0
DA:362,0
DA:363,0
DA:368,40
DA:373,95
DA:375,95
DA:376,285
DA:377,190
DA:378,190
DA:379,95
DA:383,0
DA:384,0
DA:388,76
DA:389,76
DA:394,76
DA:395,76
DA:399,0
DA:403,0
DA:404,0
DA:406,0
DA:407,0
DA:408,0
DA:411,0
DA:412,0
DA:413,0
DA:414,0
DA:415,0
DA:416,0
DA:419,0
DA:434,0
DA:436,0
DA:437,0
DA:438,0
DA:440,0
DA:441,0
DA:442,0
DA:443,0
DA:444,0
DA:445,0
DA:447,0
DA:458,20
DA:459,20
DA:463,0
DA:464,0
DA:465,0
DA:469,0
DA:471,0
DA:472,0
DA:474,0
DA:483,0
DA:493,0
DA:494,0
DA:499,0
DA:501,0
DA:502,0
DA:503,0
DA:506,0
DA:507,0
DA:509,0
DA:510,0
DA:512,0
DA:514,0
DA:515,0
DA:516,0
DA:518,0
DA:519,0
DA:520,0
DA:521,0
DA:522,0
DA:524,0
DA:526,0
DA:527,0
DA:528,0
DA:530,0
DA:532,0
DA:533,0
DA:534,0
DA:535,0
DA:536,0
DA:537,0
DA:539,0
DA:541,20
DA:542,20
DA:543,20
DA:544,0
DA:545,0
DA:548,0
DA:560,0
DA:561,0
DA:564,0
DA:565,0
DA:566,0
DA:569,0
DA:570,0
DA:571,0
DA:573,0
DA:574,0
DA:575,20
DA:580,40
DA:587,40
DA:593,0
DA:594,0
DA:599,0
DA:602,0
DA:603,0
DA:608,21
DA:609,21
DA:610,21
DA:611,21
DA:612,21
DA:613,0
DA:614,0
DA:619,0
DA:620,0
DA:622,0
DA:623,0
DA:624,0
DA:626,0
DA:627,0
DA:628,0
DA:629,0
DA:630,0
DA:631,0
DA:632,0
DA:634,0
DA:635,0
DA:636,0
DA:637,0
DA:638,0
DA:640,0
DA:641,0
DA:643,0
DA:644,0
DA:645,0
DA:646,0
DA:647,0
DA:655,2018
DA:657,2018
DA:658,2018
DA:659,2018
DA:661,2018
DA:662,2018
DA:664,42543
DA:665,42505
DA:666,41720
DA:668,24335
DA:669,6614
DA:670,6614
DA:671,6614
DA:673,17721
DA:675,0
DA:676,0
DA:677,0
DA:678,0
DA:680,0
DA:685,17385
DA:686,17385
DA:687,17385
DA:688,17385
DA:690,17721
DA:692,18076
DA:693,16526
DA:694,16526
DA:695,16526
DA:697,1980
DA:699,38
DA:700,2018
DA:702,1218
DA:705,1218
DA:706,2018
DA:708,2018
DA:709,2018
DA:710,2018
DA:713,2018
DA:714,38
DA:719,1980
DA:720,1180
DA:722,800
DA:725,1218
DA:729,380
DA:731,380
DA:735,380
DA:736,380
DA:737,380
DA:738,380
DA:739,380
DA:740,380
DA:741,380
DA:742,380
DA:743,0
DA:744,0
DA:745,0
DA:747,0
DA:748,0
DA:753,380
DA:754,38
DA:755,380
DA:790,0
DA:792,0
DA:793,0
DA:794,0
DA:795,0
DA:800,0
DA:802,0
DA:803,0
DA:804,0
DA:805,0
DA:807,0
DA:808,0
DA:809,0
DA:810,0
DA:811,0
DA:812,0
DA:813,0
DA:814,0
DA:816,0
DA:820,0
DA:821,0
DA:822,0
DA:823,0
DA:824,0
DA:825,0
DA:827,0
DA:831,0
DA:833,0
DA:834,0
DA:847,20
DA:848,20
DA:858,0
DA:864,0
DA:867,0
DA:868,0
DA:869,0
DA:870,0
DA:871,0
DA:872,0
DA:873,0
DA:874,0
DA:877,0
DA:878,0
DA:879,0
DA:880,0
DA:881,0
DA:884,0
DA:885,0
DA:886,0
DA:887,0
DA:888,0
DA:891,0
DA:892,0
DA:897,0
DA:900,0
DA:906,0
DA:907,0
DA:908,0
DA:910,60
DA:911,60
DA:913,0
DA:915,0
DA:916,0
DA:917,0
DA:919,60
DA:920,60
DA:922,0
DA:924,0
DA:925,0
DA:929,0
DA:930,0
DA:931,0
DA:932,0
DA:935,0
DA:937,0
DA:938,0
DA:939,0
DA:943,0
DA:944,0
DA:948,0
DA:950,0
DA:951,0
DA:954,0
DA:955,0
DA:959,38
DA:960,38
DA:964,57
DA:965,57
DA:970,38
DA:971,38
DA:975,19
DA:976,19
DA:980,19
DA:981,19
DA:985,0
DA:986,0
DA:990,19
DA:991,19
DA:996,0
DA:997,0
DA:1001,0
DA:1002,0
DA:1006,0
DA:1007,0
DA:1011,38
DA:1012,38
DA:1025,0
DA:1026,0
DA:1027,0
DA:1028,0
DA:1035,133
DA:1036,266
DA:1037,266
DA:1038,133
DA:1039,133
DA:1086,228
DA:1087,228
DA:1089,19
DA:1091,19
DA:1092,228
DA:1098,0
DA:1100,0
DA:1101,0
DA:1102,0
DA:1103,0
DA:1104,0
DA:1105,0
DA:1106,0
DA:1107,0
DA:1110,0
DA:1114,0
DA:1116,0
DA:1117,0
DA:1118,0
DA:1119,0
DA:1120,0
DA:1121,0
DA:1122,0
DA:1124,0
DA:1125,0
DA:1128,0
DA:1129,0
DA:1138,2176
DA:1141,1088
DA:1142,2176
DA:1146,0
DA:1147,0
DA:1148,0
DA:1149,0
DA:1150,0
DA:1151,0
DA:1156,0
DA:1157,0
DA:1158,0
DA:1164,1088
DA:1165,1088
DA:1170,0
DA:1171,0
DA:1172,0
DA:1173,0
DA:1174,0
DA:1177,0
DA:1179,0
DA:1180,0
DA:1181,0
DA:1184,0
DA:1185,0
DA:1186,0
DA:1187,0
DA:1188,0
DA:1191,32
DA:1192,32
DA:1196,0
DA:1197,0
DA:1202,0
DA:1203,0
DA:1204,0
DA:1209,0
DA:1211,0
DA:1212,0
DA:1213,0
DA:1214,0
DA:1217,0
DA:1218,0
DA:1219,0
DA:1220,0
DA:1222,0
DA:1223,0
DA:1224,0
DA:1225,0
DA:1227,0
DA:1228,0
DA:1229,0
DA:1231,0
DA:1232,0
DA:1233,0
DA:1236,0
DA:1237,0
DA:1238,0
DA:1239,0
DA:1240,0
DA:1241,0
DA:1242,0
DA:1243,0
DA:1244,0
DA:1245,0
DA:1248,0
DA:1249,0
DA:1251,0
DA:1252,0
DA:1255,0
DA:1256,0
DA:1257,0
DA:1258,0
DA:1259,0
DA:1260,0
DA:1262,0
DA:1263,0
DA:1264,0
DA:1271,0
DA:1272,0
DA:1273,0
DA:1274,0
DA:1275,0
DA:1276,0
DA:1285,0
DA:1288,0
DA:1290,0
DA:1291,0
DA:1292,0
DA:1293,0
DA:1294,0
DA:1295,0
DA:1296,0
DA:1297,0
DA:1298,0
DA:1299,0
DA:1309,0
DA:1310,0
DA:1311,0
DA:1312,0
DA:1313,0
DA:1314,0
DA:1316,0
DA:1317,0
DA:1319,0
DA:1320,0
DA:1321,0
DA:1322,0
DA:1324,0
DA:1325,0
DA:1326,0
DA:1328,0
DA:1329,0
DA:1330,0
DA:1332,0
DA:1334,0
DA:1335,0
DA:1336,0
DA:1337,0
DA:1338,0
DA:1339,0
DA:1340,0
DA:1341,0
DA:1342,0
DA:1344,0
DA:1347,0
DA:1348,0
DA:1349,0
DA:1350,0
DA:1356,0
DA:1357,0
DA:1358,0
DA:1359,0
DA:1360,0
DA:1361,0
DA:1362,0
DA:1363,0
DA:1364,0
DA:1365,0
DA:1366,0
DA:1367,0
DA:1368,0
DA:1384,0
DA:1387,0
DA:1389,0
DA:1390,0
DA:1391,0
DA:1393,0
DA:1394,0
DA:1395,0
DA:1396,0
DA:1400,0
DA:1401,0
DA:1402,0
DA:1403,0
DA:1404,0
DA:1408,0
DA:1409,0
DA:1410,0
DA:1412,0
DA:1413,0
DA:1414,0
DA:1415,0
DA:1417,0
DA:1419,0
DA:1421,0
DA:1423,0
DA:1425,0
DA:1426,0
DA:1427,0
DA:1428,0
DA:1429,0
DA:1430,0
DA:1433,0
DA:1434,0
DA:1435,0
DA:1437,0
DA:1439,0
DA:1442,0
DA:1443,0
DA:1444,0
DA:1445,0
DA:1454,0
DA:1455,0
DA:1456,0
DA:1457,0
DA:1458,0
DA:1459,0
DA:1460,0
DA:1461,0
DA:1462,0
DA:1463,0
DA:1464,0
DA:1465,0
DA:1466,0
DA:1467,0
DA:1468,0
DA:1469,0
DA:1470,0
DA:1472,0
DA:1473,0
DA:1474,0
DA:1475,0
DA:1494,0
DA:1499,0
DA:1500,0
DA:1501,0
DA:1502,0
DA:1503,0
DA:1504,0
DA:1505,0
DA:1506,0
DA:1507,0
DA:1508,0
DA:1510,0
DA:1511,0
DA:1512,0
DA:1514,0
DA:1516,0
DA:1518,0
DA:1519,0
DA:1520,0
DA:1521,0
DA:1522,0
DA:1523,0
DA:1525,0
DA:1526,0
DA:1529,0
DA:1534,0
DA:1535,0
DA:1536,0
DA:1537,0
DA:1538,0
DA:1539,0
DA:1540,0
DA:1541,0
DA:1542,0
DA:1545,2
DA:1551,2
DA:1552,2
DA:1555,0
DA:1557,0
DA:1558,0
DA:1565,0
DA:1566,0
DA:1567,0
DA:1568,0
DA:1569,0
DA:1570,0
DA:1571,0
DA:1572,0
DA:1573,0
DA:1575,0
DA:1576,0
DA:1579,0
DA:1580,0
DA:1581,0
DA:1582,0
DA:1583,0
DA:1584,0
DA:1585,2
DA:1590,0
DA:1595,0
DA:1596,0
DA:1600,0
DA:1601,0
DA:1602,0
DA:1609,0
DA:1610,0
DA:1611,0
DA:1613,0
DA:1614,0
DA:1615,0
DA:1617,0
DA:1618,0
DA:1619,0
DA:1620,0
DA:1621,0
DA:1627,0
DA:1629,0
DA:1634,0
DA:1636,0
DA:1642,0
DA:1646,0
DA:1647,0
DA:1650,0
DA:1651,0
DA:1652,0
DA:1653,0
DA:1655,0
DA:1658,0
DA:1662,0
DA:1663,0
DA:1666,0
DA:1667,0
DA:1668,0
DA:1669,0
DA:1671,0
DA:1674,0
DA:1678,0
DA:1679,0
DA:1681,0
DA:1682,0
DA:1683,0
DA:1685,0
DA:1688,0
DA:1692,0
DA:1693,0
DA:1695,0
DA:1696,0
DA:1697,0
DA:1698,0
DA:1700,0
DA:1712,0
DA:1713,0
DA:1715,0
DA:1716,0
DA:1718,0
DA:1719,0
DA:1721,0
DA:1722,0
DA:1726,0
DA:1728,0
DA:1736,0
DA:1740,0
DA:1741,0
DA:1743,0
DA:1744,0
DA:1745,0
DA:1746,0
DA:1747,0
DA:1748,0
DA:1749,0
DA:1750,0
DA:1751,0
DA:1759,0
DA:1762,0
DA:1765,0
DA:1768,0
DA:1771,0
DA:1774,0
DA:1777,0
DA:1780,0
DA:1783,0
DA:1786,0
DA:1789,0
DA:1792,0
DA:1796,0
DA:1799,0
DA:1802,0
DA:1805,0
DA:1900,0
DA:1901,0
DA:1902,0
DA:1903,0
DA:1912,0
DA:1913,0
DA:1914,0
DA:1918,0
DA:1919,0
DA:1920,0
DA:1921,0
DA:1922,0
DA:1923,0
DA:1924,0
DA:1925,0
DA:1926,0
DA:1927,0
DA:1928,0
DA:1929,0
DA:1930,0
DA:1931,0
DA:1932,0
DA:1933,0
DA:1934,0
DA:1935,0
DA:1937,0
DA:1938,0
DA:1947,0
DA:1948,0
DA:1953,0
DA:1955,0
DA:1956,0
DA:1957,0
DA:1958,0
DA:1963,0
DA:1979,0
DA:1980,0
DA:1981,0
DA:1983,0
DA:1984,0
DA:1987,0
DA:1988,0
DA:1989,0
DA:1990,0
DA:1991,0
DA:1992,0
DA:1993,0
DA:1994,0
DA:1997,0
DA:1998,0
DA:1999,0
DA:2000,0
DA:2004,0
DA:2005,0
DA:2007,0
DA:2008,0
DA:2016,0
DA:2017,0
DA:2019,0
DA:2021,0
DA:2022,0
DA:2025,0
DA:2029,0
DA:2030,0
DA:2033,0
DA:2034,0
DA:2035,0
DA:2036,0
DA:2038,0
DA:2041,0
DA:2045,0
DA:2046,0
DA:2049,0
DA:2050,0
DA:2051,0
DA:2052,0
DA:2053,0
DA:2061,19
DA:2062,19
DA:2063,19
DA:2064,19
DA:2065,19
DA:2079,0
DA:2081,0
DA:2083,0
DA:2093,0
DA:2094,0
DA:2095,0
DA:2096,0
DA:2097,0
DA:2099,0
DA:2103,0
DA:2105,0
DA:2106,0
DA:2107,0
DA:2108,0
DA:2109,0
DA:2113,0
DA:2114,0
DA:2118,0
DA:2119,0
DA:2120,0
DA:2121,0
DA:2122,0
DA:2125,0
DA:2126,0
DA:2127,0
DA:2128,0
DA:2129,0
DA:2132,0
DA:2133,0
DA:2137,0
DA:2138,0
DA:2139,0
DA:2140,0
DA:2141,0
DA:2142,0
DA:2146,1088
DA:2147,1088
DA:2148,1088
DA:2149,1088
DA:2151,1088
DA:2152,1088
DA:2153,21174
DA:2154,20086
DA:2155,0
DA:2156,0
DA:2157,20086
DA:2159,20086
DA:2161,1088
DA:2162,1088
DA:2165,0
DA:2168,0
DA:2169,0
DA:2170,0
DA:2172,0
DA:2173,0
DA:2175,0
DA:2176,0
DA:2183,880
DA:2184,880
DA:2187,0
DA:2188,0
DA:2193,0
DA:2194,0
DA:2195,0
DA:2196,0
DA:2202,0
DA:2203,0
DA:2204,0
DA:2205,0
DA:2209,0
DA:2210,0
DA:2211,0
DA:2214,0
DA:2215,0
DA:2216,0
DA:2221,0
DA:2223,0
DA:2224,0
DA:2226,0
DA:2228,0
DA:2229,0
DA:2230,0
DA:2231,0
DA:2232,0
DA:2234,0
DA:2235,0
DA:2268,0
DA:2269,0
DA:2272,0
DA:2274,0
DA:2275,0
DA:2276,0
DA:2277,0
DA:2278,0
DA:2279,0
DA:2281,0
DA:2284,0
DA:2285,0
DA:2288,0
DA:2290,0
DA:2291,0
DA:2292,0
DA:2293,0
DA:2294,0
DA:2295,0
DA:2297,0
DA:2300,0
DA:2301,0
DA:2303,0
DA:2304,0
DA:2305,0
DA:2306,0
DA:2307,0
DA:2308,0
DA:2309,0
DA:2310,0
DA:2311,0
DA:2312,0
DA:2313,0
DA:2314,0
DA:2315,0
DA:2317,0
DA:2320,0
DA:2321,0
DA:2322,0
DA:2323,0
DA:2324,0
DA:2325,0
DA:2327,0
DA:2328,0
DA:2332,0
DA:2334,0
DA:2335,0
DA:2336,0
DA:2339,399
DA:2340,399
DA:2341,399
DA:2342,399
DA:2343,399
DA:2344,399
DA:2347,0
DA:2348,0
DA:2352,114
DA:2353,114
DA:2357,285
DA:2358,285
DA:2359,0
DA:2360,0
DA:2361,0
DA:2362,285
DA:2363,285
DA:2366,0
DA:2367,0
DA:2371,57
DA:2372,57
DA:2376,0
DA:2377,0
DA:2381,0
DA:2382,0
DA:2387,285
DA:2388,285
DA:2392,0
DA:2393,0
DA:2401,19
DA:2402,19
DA:2403,19
DA:2408,19
DA:2409,19
DA:2414,0
DA:2415,0
DA:2420,0
DA:2421,0
DA:2424,0
DA:2425,0
DA:2426,0
DA:2429,0
DA:2430,0
DA:2431,0
DA:2432,0
DA:2433,0
DA:2437,0
DA:2441,0
DA:2442,0
DA:2445,0
DA:2446,0
DA:2447,0
DA:2456,19
DA:2457,19
DA:2458,19
DA:2461,19
DA:2462,19
DA:2463,19
DA:2466,19
DA:2467,19
DA:2468,19
DA:2470,19
DA:2472,0
DA:2474,0
DA:2476,0
DA:2483,0
DA:2484,0
DA:2485,0
DA:2486,0
DA:2488,0
DA:2489,0
DA:2490,0
DA:2491,0
DA:2492,0
DA:2493,0
DA:2494,0
DA:2495,0
DA:2496,0
DA:2497,0
DA:2500,0
DA:2501,0
DA:2502,0
DA:2503,0
DA:2504,0
DA:2505,0
DA:2506,0
DA:2507,0
DA:2508,0
DA:2509,0
DA:2511,0
DA:2514,19
DA:2515,19
DA:2539,0
DA:2541,0
DA:2542,0
DA:2543,0
DA:2544,0
DA:2545,0
DA:2547,0
DA:2549,0
DA:2550,0
DA:2555,0
DA:2557,0
DA:2570,153
DA:2589,153
DA:2597,153
DA:2622,153
DA:2625,153
DA:2626,0
DA:2628,0
DA:2632,0
DA:2633,0
DA:2634,0
DA:2636,0
DA:2637,0
DA:2638,0
DA:2640,0
DA:2641,0
DA:2642,0
DA:2647,0
DA:2649,153
DA:2654,19
DA:2655,19
DA:2657,19
DA:2658,19
DA:2659,19
DA:2662,19
DA:2663,19
DA:2664,19
DA:2666,19
DA:2671,19
DA:2672,19
DA:2674,19
DA:2677,57
DA:2678,57
DA:2682,0
DA:2683,0
DA:2684,0
DA:2688,57
DA:2689,57
DA:2696,760
DA:2702,380
DA:2703,380
DA:2704,380
DA:2705,380
DA:2706,380
DA:2707,380
DA:2708,380
DA:2709,380
DA:2710,380
DA:2711,380
DA:2712,380
DA:2713,760
DA:2716,0
DA:2738,380
DA:2743,380
DA:2744,380
DA:2745,380
DA:2746,380
DA:2747,380
DA:2748,0
DA:2750,0
DA:2752,0
DA:2754,0
DA:2755,0
DA:2756,0
DA:2757,0
DA:2758,0
DA:2759,0
DA:2760,0
DA:2761,0
DA:2763,0
DA:2764,0
DA:2765,0
DA:2766,0
DA:2803,20
DA:2804,20
DA:2805,20
DA:2806,20
DA:2807,20
DA:2808,20
DA:2809,20
DA:2815,241
DA:2816,241
DA:2819,19
DA:2820,19
DA:2822,19
DA:2825,19
DA:2827,19
DA:2829,19
DA:2832,19
DA:2833,19
DA:2839,19
DA:2842,19
DA:2843,19
DA:2845,19
DA:2847,19
DA:2848,19
DA:2849,19
DA:2850,19
DA:2852,19
DA:2853,19
DA:2856,19
DA:2860,19
DA:2861,241
DA:2864,0
DA:2865,0
DA:2867,0
DA:2868,0
DA:2870,0
DA:2873,0
DA:2876,0
DA:2877,0
DA:2881,0
DA:2882,0
DA:2883,0
DA:2888,38
DA:2889,38
DA:2893,38
DA:2894,38
DA:2898,38
DA:2899,38
DA:2903,38
DA:2904,38
DA:2908,0
DA:2909,0
DA:2913,0
DA:2914,0
DA:2918,114
DA:2919,114
DA:2923,260
DA:2924,260
DA:2936,160
DA:2939,40
DA:2940,40
DA:2941,40
DA:2942,40
DA:2943,40
DA:2944,40
DA:2945,120
DA:2948,0
DA:2950,0
DA:2951,0
DA:2955,0
DA:2956,0
DA:2957,0
DA:2962,241
DA:2963,241
DA:2964,241
DA:2969,380
DA:2970,380
DA:2971,380
DA:2972,380
DA:2975,38
DA:2976,38
DA:2978,19
DA:2979,19
DA:2981,19
DA:2984,19
DA:2987,19
DA:2990,19
DA:2991,19
DA:2994,19
DA:2995,260
DA:2996,241
DA:2997,241
DA:2998,0
DA:2999,0
DA:3000,0
DA:3001,0
DA:3003,241
DA:3004,19
DA:3006,19
DA:3007,19
DA:3011,19
DA:3014,19
DA:3017,19
DA:3018,38
DA:3021,0
DA:3022,0
DA:3024,0
DA:3025,0
DA:3027,0
DA:3030,0
DA:3033,0
DA:3036,0
DA:3037,0
DA:3038,0
DA:3041,0
DA:3044,0
DA:3047,0
DA:3048,0
DA:3051,38
DA:3052,38
DA:3053,38
DA:3054,38
DA:3057,0
DA:3058,0
DA:3059,0
DA:3062,38
DA:3063,399
DA:3064,361
DA:3065,361
DA:3066,38
DA:3073,133
DA:3076,266
DA:3077,133
DA:3078,0
DA:3081,57
DA:3082,57
DA:3086,38
DA:3087,38
DA:3094,0
DA:3095,0
DA:3097,0
DA:3099,0
DA:3106,0
DA:3109,0
DA:3111,0
DA:3119,0
DA:3121,0
DA:3122,0
DA:3123,0
DA:3124,0
DA:3125,0
DA:3126,0
DA:3129,0
DA:3130,0
DA:3131,0
DA:3132,0
DA:3133,0
DA:3145,0
DA:3199,0
DA:3200,0
DA:3202,0
DA:3204,0
DA:3206,0
DA:3208,0
DA:3210,0
DA:3215,19
DA:3216,19
DA:3218,19
DA:3225,19
DA:3226,38
DA:3227,19
DA:3228,19
DA:3229,19
DA:3230,19
DA:3231,19
DA:3232,19
DA:3233,19
DA:3234,19
DA:3235,19
DA:3236,19
DA:3237,19
DA:3238,38
DA:3242,0
DA:3243,0
DA:3244,0
DA:3245,0
DA:3249,19
DA:3257,190
DA:3259,190
DA:3265,209
DA:3266,19
DA:3267,38
DA:3270,190
DA:3271,190
DA:3272,190
DA:3273,190
DA:3298,0
DA:3299,0
DA:3300,0
DA:3302,0
DA:3303,190
DA:3310,0
DA:3311,0
DA:3312,0
DA:3314,0
DA:3315,0
DA:3316,0
DA:3317,0
DA:3318,0
DA:3319,0
DA:3320,0
DA:3321,0
DA:3322,0
DA:3323,0
DA:3324,0
DA:3331,40
DA:3332,38
DA:3333,38
DA:3334,38
DA:3337,19
DA:3340,19
DA:3358,19
DA:3360,19
DA:3369,19
DA:3371,19
DA:3372,0
DA:3374,19
DA:3378,19
DA:3379,19
DA:3380,19
DA:3381,19
DA:3383,38
DA:3384,0
DA:3385,0
DA:3386,0
DA:3387,0
DA:3388,0
DA:3390,0
DA:3391,0
DA:3393,0
DA:3394,0
DA:3396,19
DA:3397,19
DA:3398,19
DA:3399,19
DA:3400,19
DA:3401,19
DA:3403,19
DA:3405,19
DA:3406,19
DA:3407,19
DA:3408,19
DA:3411,19
DA:3413,19
DA:3414,19
DA:3415,19
DA:3416,19
DA:3417,19
DA:3418,19
DA:3419,0
DA:3421,19
DA:3422,19
DA:3439,19
DA:3440,19
DA:3441,19
DA:3442,19
DA:3443,19
DA:3444,19
DA:3447,0
DA:3449,0
DA:3452,0
DA:3456,0
DA:3457,0
DA:3458,0
DA:3459,0
DA:3461,19
DA:3462,19
DA:3463,19
DA:3464,19
DA:3465,0
DA:3466,0
DA:3467,0
DA:3469,19
DA:3470,19
DA:3471,0
DA:3473,19
DA:3474,38
DA:3475,38
DA:3476,19
DA:3477,0
DA:3479,19
DA:3480,19
DA:3483,19
DA:3484,19
DA:3487,19
DA:3488,19
DA:3489,38
DA:3490,19
DA:3491,19
DA:3492,19
DA:3506,19
DA:3508,19
DA:3509,19
DA:3510,19
DA:3511,19
DA:3514,0
DA:3515,0
DA:3516,0
DA:3517,0
DA:3519,0
DA:3520,0
DA:3521,0
DA:3522,0
DA:3524,0
DA:3525,0
DA:3526,0
DA:3527,0
DA:3529,0
DA:3530,0
DA:3531,0
DA:3532,0
DA:3533,0
DA:3534,0
DA:3535,0
DA:3536,0
DA:3537,0
DA:3541,0
DA:3543,0
DA:3544,0
DA:3545,0
DA:3546,0
DA:3547,0
DA:3549,0
DA:3550,0
DA:3551,0
DA:3552,0
DA:3553,0
DA:3554,0
DA:3555,0
DA:3556,0
DA:3557,0
DA:3558,0
DA:3559,0
DA:3562,0
DA:3563,0
DA:3564,0
DA:3565,0
DA:3568,0
DA:3569,0
DA:3570,0
DA:3571,0
DA:3573,0
DA:3574,0
DA:3575,0
DA:3576,0
DA:3578,0
DA:3579,0
DA:3580,0
DA:3581,0
DA:3582,0
DA:3583,0
DA:3585,19
DA:3587,19
DA:3588,19
DA:3589,19
DA:3590,19
DA:3591,19
DA:3592,19
DA:3593,19
DA:3594,19
DA:3595,19
DA:3596,19
DA:3597,19
DA:3599,19
DA:3600,19
DA:3601,0
DA:3602,0
DA:3603,0
DA:3604,0
DA:3606,0
DA:3607,0
DA:3608,0
DA:3609,0
DA:3611,0
DA:3612,0
DA:3613,0
DA:3614,0
DA:3615,0
DA:3616,0
DA:3617,0
DA:3618,0
DA:3620,19
DA:3621,19
DA:3630,0
DA:3631,0
DA:3632,0
DA:3633,0
DA:3636,0
DA:3637,0
DA:3638,0
DA:3639,0
DA:3640,0
DA:3642,0
DA:3647,0
DA:3652,0
DA:3657,0
DA:3658,0
DA:3660,0
DA:3664,0
DA:3666,0
DA:3669,0
DA:3673,0
DA:3674,0
DA:3675,0
DA:3676,0
DA:3678,0
DA:3679,0
DA:3680,0
DA:3681,0
DA:3682,0
DA:3684,0
DA:3685,0
DA:3686,0
DA:3687,0
DA:3688,0
DA:3689,0
DA:3691,0
DA:3692,0
DA:3693,0
DA:3695,0
DA:3697,0
DA:3698,0
DA:3699,0
DA:3700,0
DA:3701,0
DA:3702,0
DA:3703,0
DA:3704,0
DA:3705,0
DA:3706,0
DA:3707,0
DA:3709,0
DA:3710,0
DA:3711,0
DA:3712,0
DA:3713,0
DA:3715,0
DA:3716,0
DA:3717,0
DA:3718,0
DA:3719,0
DA:3720,0
DA:3721,0
DA:3722,0
DA:3724,0
DA:3725,0
DA:3734,40
DA:3741,0
DA:3742,0
DA:3776,0
DA:3777,0
DA:3778,0
DA:3780,20
DA:3781,20
DA:3782,20
DA:3784,20
DA:3785,20
DA:3786,0
DA:3787,0
DA:3788,0
DA:3790,0
DA:3792,20
DA:3793,20
DA:3816,38
DA:3817,38
DA:3820,38
DA:3822,38
DA:3823,38
DA:3824,0
DA:3825,38
DA:3826,38
DA:3827,38
DA:3828,38
DA:3831,38
DA:3833,38
DA:3834,38
DA:3839,19
DA:3841,19
DA:3842,38
DA:3843,19
DA:3844,19
DA:3845,19
DA:3846,19
DA:3848,19
DA:3850,19
DA:3851,38
DA:3852,19
DA:3853,19
DA:3854,19
DA:3855,19
DA:3874,0
DA:3875,0
DA:3879,0
DA:3880,0
DA:3893,0
DA:3894,0
DA:3943,0
DA:3944,0
DA:3945,0
DA:3946,0
DA:3947,0
DA:3948,0
DA:3951,0
DA:3953,0
DA:3954,0
DA:3955,0
DA:3956,0
DA:3957,0
DA:3958,0
DA:3960,0
DA:3962,0
DA:3963,0
DA:3964,0
DA:3965,0
DA:3966,0
DA:3967,0
DA:3979,0
DA:3981,0
DA:3983,0
DA:3984,0
DA:3985,0
DA:3987,0
DA:3988,0
DA:3990,0
DA:3991,0
DA:3993,0
DA:3994,0
DA:3996,0
DA:3997,0
DA:3999,0
DA:4000,0
DA:4002,0
DA:4003,0
DA:4005,0
DA:4006,0
DA:4008,0
DA:4009,0
DA:4010,0
DA:4011,0
DA:4013,0
DA:4014,0
DA:4015,0
DA:4017,0
DA:4019,0
DA:4020,0
DA:4025,0
DA:4027,0
DA:4028,0
DA:4029,0
DA:4030,0
DA:4031,0
DA:4033,0
DA:4034,0
DA:4054,0
DA:4055,0
DA:4056,0
DA:4057,0
DA:4058,0
DA:4060,0
DA:4071,0
DA:4077,0
DA:4079,0
DA:4080,0
DA:4082,0
DA:4083,0
DA:4084,0
DA:4085,0
DA:4086,0
DA:4087,0
DA:4088,0
DA:4089,0
DA:4092,0
DA:4094,0
DA:4095,0
DA:4096,0
DA:4097,0
DA:4098,0
DA:4099,0
DA:4100,0
DA:4101,0
DA:4102,0
DA:4103,0
DA:4104,0
DA:4105,0
DA:4108,0
DA:4109,0
DA:4111,0
DA:4116,0
DA:4117,0
DA:4119,0
DA:4121,0
DA:4122,0
DA:4124,0
DA:4125,0
DA:4128,0
DA:4131,0
DA:4132,0
DA:4134,0
DA:4135,0
DA:4138,0
DA:4139,0
DA:4141,0
DA:4142,0
DA:4143,0
DA:4144,0
DA:4145,0
DA:4146,0
DA:4147,0
DA:4148,0
DA:4149,0
DA:4150,0
DA:4151,0
DA:4152,0
DA:4153,0
DA:4154,0
DA:4157,0
DA:4158,0
DA:4159,0
DA:4160,0
DA:4161,0
DA:4163,0
DA:4164,0
DA:4165,0
DA:4166,0
DA:4167,0
DA:4168,0
DA:4170,0
DA:4171,0
DA:4172,0
DA:4173,0
DA:4174,0
DA:4175,0
DA:4176,0
DA:4177,0
DA:4179,0
DA:4180,0
DA:4181,0
DA:4182,0
DA:4183,0
DA:4184,0
DA:4185,0
DA:4186,0
DA:4187,0
DA:4188,0
DA:4189,0
DA:4190,0
DA:4191,0
DA:4193,0
DA:4194,0
DA:4195,0
DA:4196,0
DA:4197,0
DA:4198,0
DA:4199,0
DA:4200,0
DA:4201,0
DA:4202,0
DA:4204,0
DA:4205,0
DA:4206,0
DA:4207,0
DA:4208,0
DA:4209,0
DA:4210,0
DA:4211,0
DA:4213,0
DA:4216,0
DA:4218,0
DA:4219,0
DA:4220,0
DA:4221,0
DA:4222,0
DA:4223,0
DA:4224,0
DA:4225,0
DA:4226,0
DA:4227,0
DA:4228,0
DA:4229,0
DA:4230,0
DA:4232,0
DA:4234,0
DA:4235,0
DA:4236,0
DA:4237,0
DA:4238,0
DA:4239,0
DA:4240,0
DA:4241,0
DA:4242,0
DA:4243,0
DA:4244,0
DA:4245,0
DA:4246,0
DA:4247,0
DA:4250,0
DA:4252,0
DA:4254,0
DA:4255,0
DA:4257,0
DA:4258,0
DA:4259,0
DA:4260,0
DA:4261,0
DA:4262,0
DA:4263,0
DA:4264,0
DA:4265,0
DA:4266,0
DA:4267,0
DA:4268,0
DA:4269,0
DA:4271,0
DA:4272,0
DA:4273,0
DA:4274,0
DA:4275,0
DA:4277,0
DA:4278,0
DA:4280,0
DA:4281,0
DA:4282,0
DA:4283,0
DA:4284,0
DA:4285,0
DA:4287,0
DA:4289,0
DA:4291,0
DA:4292,0
DA:4294,0
DA:4295,0
DA:4296,0
DA:4298,0
DA:4299,0
DA:4300,0
DA:4301,0
DA:4303,0
DA:4304,0
DA:4306,0
DA:4307,0
DA:4311,0
DA:4313,0
DA:4314,0
DA:4315,0
DA:4316,0
DA:4317,0
DA:4318,0
DA:4319,0
DA:4320,0
DA:4322,0
DA:4324,0
DA:4325,0
DA:4327,0
DA:4328,0
DA:4331,0
DA:4332,0
DA:4333,0
DA:4334,0
DA:4335,0
DA:4336,0
DA:4337,0
DA:4338,0
DA:4339,0
DA:4340,0
DA:4399,0
DA:4400,0
DA:4401,0
DA:4402,0
DA:4403,0
DA:4404,0
DA:4406,0
DA:4408,0
DA:4409,0
DA:4410,0
DA:4411,0
DA:4412,0
DA:4413,0
DA:4416,0
DA:4417,0
DA:4419,0
DA:4420,0
DA:4421,0
DA:4425,0
DA:4426,0
DA:4428,0
DA:4429,0
DA:4431,0
DA:4432,0
DA:4434,0
DA:4435,0
DA:4437,0
DA:4438,0
DA:4440,0
DA:4441,0
DA:4443,0
DA:4444,0
DA:4445,0
DA:4446,0
DA:4448,0
DA:4450,0
DA:4452,0
DA:4453,0
DA:4459,0
DA:4460,0
DA:4461,0
DA:4462,0
DA:4463,0
DA:4467,0
DA:4469,0
DA:4470,0
DA:4472,0
DA:4473,0
DA:4474,0
DA:4475,0
DA:4476,0
DA:4477,0
DA:4478,0
DA:4480,0
DA:4481,0
DA:4484,0
DA:4491,0
DA:4492,0
DA:4494,0
DA:4496,0
DA:4497,0
DA:4499,0
DA:4500,0
DA:4501,0
DA:4502,0
DA:4504,0
DA:4511,0
DA:4512,0
DA:4514,0
DA:4516,0
DA:4517,0
DA:4519,0
DA:4520,0
DA:4521,0
DA:4522,0
DA:4525,0
DA:4528,0
DA:4529,0
DA:4530,0
DA:4532,0
DA:4533,0
DA:4535,0
DA:4536,0
DA:4538,0
DA:4539,0
DA:4540,0
DA:4542,0
DA:4543,0
DA:4544,0
DA:4545,0
DA:4546,0
DA:4547,0
DA:4550,0
DA:4551,0
DA:4552,0
DA:4553,0
DA:4554,0
DA:4557,0
DA:4558,0
DA:4560,0
DA:4561,0
DA:4562,0
DA:4564,0
DA:4566,0
DA:4567,0
DA:4568,0
DA:4569,0
DA:4570,0
DA:4571,0
DA:4572,0
DA:4573,0
DA:4575,0
DA:4576,0
DA:4577,0
DA:4578,0
DA:4579,0
DA:4580,0
DA:4581,0
DA:4582,0
DA:4583,0
DA:4585,0
DA:4586,0
DA:4587,0
DA:4588,0
DA:4591,0
DA:4593,0
DA:4594,0
DA:4596,0
DA:4597,0
DA:4598,0
DA:4600,0
DA:4601,0
DA:4602,0
DA:4603,0
DA:4604,0
DA:4605,0
DA:4606,0
DA:4607,0
DA:4608,0
DA:4610,0
DA:4611,0
DA:4613,0
DA:4614,0
DA:4615,0
DA:4617,0
DA:4619,0
DA:4620,0
DA:4621,0
DA:4622,0
DA:4623,0
DA:4624,0
DA:4625,0
DA:4627,0
DA:4628,0
DA:4629,0
DA:4630,0
DA:4631,0
DA:4634,0
DA:4636,0
DA:4637,0
DA:4638,0
DA:4640,0
DA:4642,0
DA:4644,0
DA:4645,0
DA:4646,0
DA:4647,0
DA:4648,0
DA:4650,0
DA:4651,0
DA:4652,0
DA:4654,0
DA:4655,0
DA:4658,0
DA:4659,0
DA:4661,0
DA:4662,0
DA:4664,0
DA:4665,0
DA:4666,0
DA:4667,0
DA:4668,0
DA:4669,0
DA:4670,0
DA:4672,0
DA:4673,0
DA:4674,0
DA:4676,0
DA:4677,0
DA:4679,0
DA:4681,0
DA:4682,0
DA:4683,0
DA:4684,0
DA:4685,0
DA:4686,0
DA:4688,0
DA:4690,0
DA:4691,0
DA:4693,0
DA:4694,0
DA:4695,0
DA:4696,0
DA:4697,0
DA:4698,0
DA:4700,0
DA:4701,0
DA:4702,0
DA:4703,0
DA:4706,0
DA:4708,0
DA:4709,0
DA:4710,0
DA:4711,0
DA:4712,0
DA:4713,0
DA:4714,0
DA:4715,0
DA:4794,0
DA:4840,0
DA:4844,133
DA:4854,133
DA:4860,40
DA:4861,20
DA:4862,20
DA:4864,20
DA:4868,0
DA:4869,0
DA:4870,0
DA:4871,0
DA:4872,40
DA:4874,40
DA:4876,20
DA:4877,0
DA:4878,0
DA:4879,0
DA:4880,0
DA:4881,0
DA:4882,0
DA:4883,0
DA:4885,40
DA:4897,40
DA:4898,20
DA:4899,20
DA:4900,40
DA:4902,0
DA:4908,20
DA:4909,20
DA:4910,20
DA:4915,20
DA:4916,20
DA:4917,20
DA:4918,0
DA:4919,0
DA:4920,20
DA:4925,57
DA:4932,20
DA:4933,20
DA:4936,20
DA:4937,20
DA:4938,20
DA:4939,20
DA:4940,20
DA:4947,0
DA:4948,0
DA:4951,0
DA:4952,0
DA:4953,0
DA:4954,0
DA:4955,0
DA:4959,0
DA:4960,0
DA:4963,0
DA:4964,0
DA:4965,0
DA:4976,821
DA:4985,821
DA:4986,821
DA:4988,0
DA:4991,0
DA:4992,0
DA:4996,0
DA:4997,0
DA:5001,0
DA:5002,0
DA:5007,38
DA:5008,38
DA:5013,0
DA:5014,0
DA:5016,0
DA:5017,0
DA:5019,0
DA:5020,0
DA:5022,0
DA:5023,0
DA:5028,19
DA:5029,19
DA:5033,19
DA:5034,19
DA:5038,0
DA:5041,19
DA:5042,19
DA:5046,0
DA:5047,0
DA:5051,0
DA:5052,0
DA:5056,0
DA:5059,38
DA:5063,0
DA:5064,0
DA:5068,19
DA:5069,19
DA:5074,19
DA:5078,0
DA:5082,0
DA:5083,0
DA:5088,0
DA:5089,0
DA:5095,0
DA:5096,0
DA:5101,0
DA:5102,0
DA:5107,38
DA:5108,38
DA:5121,0
DA:5122,0
DA:5123,0
DA:5126,0
DA:5127,0
DA:5128,0
DA:5134,0
DA:5140,0
DA:5141,0
DA:5143,0
DA:5144,0
DA:5145,0
DA:5147,0
DA:5148,0
DA:5149,0
DA:5150,0
DA:5151,0
DA:5152,0
DA:5154,0
DA:5155,0
DA:5156,0
DA:5158,0
DA:5159,0
DA:5160,0
DA:5161,0
DA:5163,0
DA:5164,0
DA:5170,0
DA:5185,0
DA:5187,0
DA:5189,0
DA:5196,0
DA:5197,0
DA:5204,0
DA:5206,0
DA:5207,0
DA:5214,20
DA:5215,20
DA:5216,20
DA:5239,20
DA:5240,20
DA:5242,20
DA:5246,20
DA:5291,20
DA:5292,20
DA:5295,20
DA:5299,0
DA:5300,0
DA:5305,0
DA:5307,0
DA:5308,0
DA:5309,0
DA:5313,0
DA:5315,0
DA:5316,0
DA:5317,0
DA:5322,0
DA:5324,0
DA:5325,0
DA:5326,0
DA:5329,0
DA:5334,0
DA:5335,0
DA:5339,40
DA:5340,20
DA:5341,40
DA:5344,0
DA:5345,0
DA:5346,0
DA:5350,0
DA:5352,0
DA:5353,0
DA:5354,0
DA:5357,0
DA:5359,0
DA:5360,0
DA:5361,0
DA:5365,120
DA:5366,20
DA:5368,20
DA:5369,20
DA:5370,40
DA:5371,20
DA:5372,40
DA:5373,20
DA:5374,20
DA:5375,20
DA:5376,20
DA:5377,20
DA:5378,20
DA:5379,20
DA:5380,20
DA:5381,20
DA:5382,20
DA:5383,20
DA:5384,20
DA:5385,20
DA:5387,20
DA:5390,60
DA:5391,20
DA:5392,40
DA:5394,0
DA:5396,0
DA:5399,0
DA:5401,0
DA:5402,0
DA:5409,0
DA:5410,0
DA:5413,0
DA:5414,0
DA:5415,0
DA:5416,0
DA:5417,0
DA:5418,0
DA:5419,0
DA:5420,0
DA:5421,0
DA:5423,0
DA:5424,0
DA:5429,20
DA:5430,20
DA:5431,0
DA:5432,20
DA:5437,20
DA:5438,20
DA:5439,20
DA:5440,0
DA:5441,0
DA:5442,20
DA:5443,0
DA:5444,0
DA:5445,20
DA:5446,0
DA:5447,0
DA:5448,0
DA:5449,20
DA:5474,40
DA:5476,40
DA:5477,20
DA:5485,20
DA:5486,20
DA:5492,20
DA:5496,20
DA:5498,20
DA:5499,0
DA:5500,0
DA:5513,20
DA:5514,40
DA:5527,760
DA:5530,360
DA:5531,720
DA:5532,360
DA:5551,380
DA:5557,380
DA:5558,380
DA:5560,380
DA:5563,40
DA:5564,40
DA:5567,40
DA:5573,0
DA:5574,0
DA:5576,0
DA:5578,40
DA:5581,40
DA:5582,40
DA:5583,380
DA:5587,0
DA:5588,0
DA:5599,20
DA:5602,20
DA:5605,20
DA:5606,0
DA:5610,20
DA:5615,20
DA:5619,20
DA:5622,20
DA:5623,20
DA:5631,20
DA:5632,20
DA:5636,40
DA:5638,20
DA:5641,20
DA:5643,1
DA:5644,1
DA:5647,19
DA:5648,0
DA:5651,19
DA:5653,19
DA:5655,19
DA:5656,19
DA:5660,19
DA:5662,19
DA:5663,38
DA:5666,19
DA:5668,19
DA:5671,19
DA:5672,0
DA:5676,0
DA:5677,0
DA:5680,19
DA:5683,19
DA:5685,19
DA:5686,19
DA:5687,19
DA:5691,19
DA:5694,0
DA:5695,0
DA:5696,0
DA:5697,0
DA:5698,0
DA:5699,0
DA:5700,0
DA:5701,0
DA:5702,0
DA:5703,0
DA:5704,0
DA:5705,19
DA:5706,57
DA:5707,38
DA:5708,38
DA:5709,38
DA:5710,0
DA:5711,0
DA:5712,0
DA:5713,0
DA:5714,0
DA:5716,38
DA:5717,19
DA:5720,19
DA:5721,19
DA:5723,19
DA:5724,19
DA:5726,38
DA:5729,38
DA:5732,38
DA:5733,0
DA:5734,0
DA:5742,0
DA:5744,0
DA:5746,0
DA:5747,0
DA:5748,19
DA:5750,19
DA:5752,19
DA:5753,0
DA:5764,0
DA:5766,19
DA:5767,20
DA:5773,20
DA:5774,20
DA:5775,20
DA:5776,0
DA:5777,0
DA:5778,0
DA:5781,0
DA:5782,0
DA:5783,0
DA:5785,0
DA:5786,0
DA:5787,20
DA:5795,39
DA:5798,39
DA:5799,0
DA:5802,39
DA:5803,39
DA:5805,39
DA:5806,39
DA:5807,0
DA:5808,0
DA:5809,0
DA:5810,0
DA:5811,0
DA:5812,0
DA:5813,0
DA:5814,0
DA:5815,0
DA:5816,0
DA:5817,0
DA:5818,0
DA:5819,0
DA:5820,0
DA:5821,0
DA:5822,0
DA:5823,0
DA:5824,0
DA:5825,0
DA:5826,0
DA:5827,0
DA:5828,0
DA:5829,0
DA:5830,0
DA:5831,0
DA:5832,0
DA:5834,0
DA:5835,39
DA:5840,78
DA:5841,78
DA:5842,78
DA:5843,78
DA:5847,0
DA:5848,0
DA:5849,0
DA:5851,0
DA:5852,78
DA:5858,0
DA:5859,0
DA:5869,20
DA:5870,20
DA:5871,0
DA:5872,20
DA:5873,0
DA:5879,20
DA:5880,20
DA:5881,60
DA:5882,40
DA:5883,40
DA:5885,420
DA:5886,380
DA:5887,380
DA:5890,760
DA:5891,760
DA:5892,380
DA:5894,380
DA:5896,380
DA:5897,380
DA:5898,380
DA:5900,760
DA:5901,380
DA:5902,380
DA:5904,38
DA:5905,760
DA:5906,0
DA:5907,38
DA:5908,38
DA:5910,380
DA:5911,380
DA:5913,380
DA:5914,380
DA:5915,380
DA:5916,40
DA:5917,20
DA:5918,0
DA:5924,0
DA:5925,0
DA:5926,0
DA:5927,0
DA:5928,0
DA:5929,0
DA:5931,0
DA:5932,0
DA:5933,0
DA:5934,0
DA:5935,0
DA:5936,0
DA:5938,0
DA:5939,0
DA:5940,0
DA:5943,1
DA:5945,1
DA:5947,3
DA:5948,2
DA:5950,21
DA:5951,19
DA:5952,19
DA:5953,19
DA:5954,2
DA:5955,2
DA:5956,2
DA:5957,0
DA:5960,0
DA:5961,0
DA:5962,2
DA:5963,2
DA:5964,4
DA:5965,4
DA:5966,0
DA:5969,0
DA:5970,0
DA:5971,19
DA:5972,19
DA:5973,19
DA:5975,1
DA:5976,1
DA:5977,1
DA:5978,0
DA:5979,0
DA:5980,0
DA:5981,0
DA:5982,0
DA:5983,0
DA:5984,0
DA:5985,0
DA:5986,0
DA:5987,0
DA:5988,0
DA:5989,0
DA:5990,0
DA:5991,0
DA:5992,0
DA:5993,1
DA:6000,0
DA:6002,0
DA:6003,0
DA:6004,0
DA:6005,0
DA:6006,0
DA:6011,133
DA:6012,133
DA:6016,19
DA:6018,19
DA:6020,133
DA:6021,0
DA:6024,114
DA:6025,114
DA:6026,76
DA:6028,38
DA:6029,0
DA:6031,38
DA:6032,114
DA:6036,0
DA:6038,0
DA:6041,0
DA:6042,0
DA:6045,0
DA:6046,0
DA:6048,0
DA:6051,19
DA:6052,57
DA:6054,38
DA:6056,38
DA:6057,38
DA:6058,19
DA:6070,0
DA:6074,0
DA:6083,780
DA:6085,0
DA:6089,0
DA:6090,0
DA:6092,0
DA:6098,0
DA:6099,0
DA:6100,0
DA:6101,0
DA:6102,0
DA:6104,0
DA:6105,0
DA:6112,181
DA:6115,181
DA:6118,181
DA:6119,181
DA:6120,181
DA:6123,39
DA:6126,39
DA:6127,20
DA:6133,19
DA:6136,19
DA:6137,181
DA:6149,120
DA:6151,120
DA:6154,120
DA:6157,20
DA:6158,20
DA:6159,120
DA:6165,0
DA:6167,0
DA:6170,0
DA:6173,0
DA:6174,0
DA:6175,0
DA:6182,61
DA:6184,61
DA:6187,61
DA:6190,19
DA:6191,19
DA:6192,61
DA:6200,0
DA:6201,0
DA:6202,0
DA:6203,0
DA:6204,0
DA:6205,0
DA:6206,0
DA:6218,0
DA:6219,0
DA:6225,0
DA:6226,0
DA:6227,0
DA:6228,0
DA:6229,0
DA:6232,0
DA:6234,0
DA:6235,0
DA:6236,0
DA:6237,0
DA:6238,0
DA:6239,0
DA:6240,0
DA:6241,0
DA:6242,0
DA:6243,0
DA:6244,0
DA:6245,0
DA:6246,0
DA:6247,0
DA:6250,0
DA:6344,39
DA:6345,78
DA:6346,39
DA:6347,20
DA:6348,20
DA:6349,20
DA:6350,20
DA:6351,20
DA:6352,20
DA:6353,20
DA:6354,20
DA:6355,20
DA:6356,20
DA:6357,20
DA:6358,1
DA:6359,1
DA:6360,1
DA:6361,0
DA:6362,0
DA:6363,0
DA:6364,0
DA:6365,0
DA:6366,0
DA:6367,0
DA:6368,0
DA:6369,0
DA:6370,0
DA:6371,0
DA:6372,0
DA:6376,0
DA:6377,0
DA:6378,0
DA:6379,0
DA:6380,0
DA:6381,0
DA:6382,0
DA:6383,0
DA:6384,0
DA:6385,0
DA:6386,0
DA:6387,0
DA:6388,0
DA:6389,0
DA:6390,0
DA:6391,0
DA:6392,0
DA:6399,20
DA:6400,59
DA:6401,39
DA:6402,39
DA:6408,39
DA:6409,39
DA:6410,39
DA:6412,39
DA:6413,0
DA:6414,0
DA:6416,0
DA:6417,0
DA:6418,0
DA:6421,0
DA:6422,0
DA:6424,39
DA:6429,97
DA:6430,58
DA:6431,58
DA:6434,39
DA:6438,39
DA:6439,39
DA:6440,39
DA:6442,20
DA:6446,0
DA:6447,0
DA:6448,20
DA:6452,20
DA:6453,20
DA:6460,20
DA:6461,20
DA:6462,20
DA:6465,20
DA:6466,0
DA:6467,0
DA:6468,0
DA:6475,20
DA:6477,20
DA:6479,20
DA:6481,20
DA:6482,79
DA:6483,59
DA:6484,59
DA:6490,20
DA:6491,20
DA:6492,20
DA:6505,20
DA:6509,20
DA:6511,20
DA:6515,0
DA:6519,0
DA:6521,0
DA:6525,0
DA:6527,0
DA:6528,0
DA:6529,0
DA:6530,0
DA:6535,0
DA:6537,0
DA:6539,0
DA:6568,0
DA:6576,0
DA:6577,0
DA:6578,0
DA:6579,0
DA:6580,0
DA:6582,0
DA:6583,0
DA:6586,0
DA:6587,0
DA:6588,0
DA:6589,0
FNF:476
FNH:163
LF:2832
LH:793
end_of_record
SF:/Library/Developer/CommandLineTools/SDKs/MacOSX12.3.sdk/usr/include/c++/v1/limits
FN:214,_ZNSt3__123__libcpp_numeric_limitsIlLb1EE3maxEv
FNDA:299,_ZNSt3__123__libcpp_numeric_limitsIlLb1EE3maxEv
FN:378,_ZNSt3__123__libcpp_numeric_limitsIdLb1EE8infinityEv
FNDA:0,_ZNSt3__123__libcpp_numeric_limitsIdLb1EE8infinityEv
FN:451,_ZNSt3__114numeric_limitsIlE3maxEv
FNDA:299,_ZNSt3__114numeric_limitsIlE3maxEv
FN:474,_ZNSt3__114numeric_limitsIdE8infinityEv
FNDA:0,_ZNSt3__114numeric_limitsIdE8infinityEv
DA:214,299
DA:378,0
DA:451,299
DA:474,0
FNF:4
FNH:2
LF:4
LH:2
end_of_record
SF:/Users/dogukanarat/Desktop/Workspace/RocketLab/Binaries/Debug/Intermediate/_deps/googletest-src/googletest/include/gtest/gtest-printers.h
FN:552,_ZN7testing8internal7PrintToERKNSt3__112basic_stringIcNS1_11char_traitsIcEENS1_9allocatorIcEEEEPNS1_13basic_ostreamIcS4_EE
FNDA:0,_ZN7testing8internal7PrintToERKNSt3__112basic_stringIcNS1_11char_traitsIcEENS1_9allocatorIcEEEEPNS1_13basic_ostreamIcS4_EE
FN:559,_ZN7testing8internal7PrintToERKNSt3__112basic_stringIwNS1_11char_traitsIwEENS1_9allocatorIwEEEEPNS1_13basic_ostreamIcNS3_IcEEEE
FNDA:0,_ZN7testing8internal7PrintToERKNSt3__112basic_stringIwNS1_11char_traitsIwEENS1_9allocatorIwEEEEPNS1_13basic_ostreamIcNS3_IcEEEE
FN:665,_ZN7testing8internal16UniversalPrinterINSt3__112basic_stringIcNS2_11char_traitsIcEENS2_9allocatorIcEEEEE5PrintERKS8_PNS2_13basic_ostreamIcS5_EE
FNDA:0,_ZN7testing8internal16UniversalPrinterINSt3__112basic_stringIcNS2_11char_traitsIcEENS2_9allocatorIcEEEEE5PrintERKS8_PNS2_13basic_ostreamIcS5_EE
FN:665,_ZN7testing8internal16UniversalPrinterINSt3__112basic_stringIwNS2_11char_traitsIwEENS2_9allocatorIwEEEEE5PrintERKS8_PNS2_13basic_ostreamIcNS4_IcEEEE
FNDA:0,_ZN7testing8internal16UniversalPrinterINSt3__112basic_stringIwNS2_11char_traitsIwEENS2_9allocatorIwEEEEE5PrintERKS8_PNS2_13basic_ostreamIcNS4_IcEEEE
FN:854,_ZN7testing8internal21UniversalTersePrinterIPKcE5PrintES3_PNSt3__113basic_ostreamIcNS5_11char_traitsIcEEEE
FNDA:0,_ZN7testing8internal21UniversalTersePrinterIPKcE5PrintES3_PNSt3__113basic_ostreamIcNS5_11char_traitsIcEEEE
FN:874,_ZN7testing8internal21UniversalTersePrinterIPKwE5PrintES3_PNSt3__113basic_ostreamIcNS5_11char_traitsIcEEEE
FNDA:0,_ZN7testing8internal21UniversalTersePrinterIPKwE5PrintES3_PNSt3__113basic_ostreamIcNS5_11char_traitsIcEEEE
FN:902,_ZN7testing8internal14UniversalPrintINSt3__112basic_stringIcNS2_11char_traitsIcEENS2_9allocatorIcEEEEEEvRKT_PNS2_13basic_ostreamIcS5_EE
FNDA:0,_ZN7testing8internal14UniversalPrintINSt3__112basic_stringIcNS2_11char_traitsIcEENS2_9allocatorIcEEEEEEvRKT_PNS2_13basic_ostreamIcS5_EE
FN:902,_ZN7testing8internal14UniversalPrintINSt3__112basic_stringIwNS2_11char_traitsIwEENS2_9allocatorIwEEEEEEvRKT_PNS2_13basic_ostreamIcNS4_IcEEEE
FNDA:0,_ZN7testing8internal14UniversalPrintINSt3__112basic_stringIwNS2_11char_traitsIwEENS2_9allocatorIwEEEEEEvRKT_PNS2_13basic_ostreamIcNS4_IcEEEE
FN:942,_ZN7testing13PrintToStringIPKcEENSt3__112basic_stringIcNS3_11char_traitsIcEENS3_9allocatorIcEEEERKT_
FNDA:0,_ZN7testing13PrintToStringIPKcEENSt3__112basic_stringIcNS3_11char_traitsIcEENS3_9allocatorIcEEEERKT_
FN:942,_ZN7testing13PrintToStringIPKwEENSt3__112basic_stringIcNS3_11char_traitsIcEENS3_9allocatorIcEEEERKT_
FNDA:0,_ZN7testing13PrintToStringIPKwEENSt3__112basic_stringIcNS3_11char_traitsIcEENS3_9allocatorIcEEEERKT_
DA:552,0
DA:553,0
DA:554,0
DA:559,0
DA:560,0
DA:561,0
DA:665,0
DA:674,0
DA:675,0
DA:854,0
DA:855,0
DA:856,0
DA:857,0
DA:858,0
DA:860,0
DA:874,0
DA:875,0
DA:876,0
DA:877,0
DA:878,0
DA:880,0
DA:902,0
DA:906,0
DA:907,0
DA:942,0
DA:943,0
DA:944,0
DA:945,0
DA:946,0
FNF:10
FNH:0
LF:29
LH:0
end_of_record
SF:/Library/Developer/CommandLineTools/SDKs/MacOSX12.3.sdk/usr/include/c++/v1/__memory/unique_ptr.h
FN:52,_ZNKSt3__114default_deleteINS_12basic_stringIcNS_11char_traitsIcEENS_9allocatorIcEEEEEclEPS6_
FNDA:0,_ZNKSt3__114default_deleteINS_12basic_stringIcNS_11char_traitsIcEENS_9allocatorIcEEEEEclEPS6_
FN:52,_ZNKSt3__114default_deleteIN7testing8internal24InternalRunDeathTestFlagEEclEPS3_
FNDA:0,_ZNKSt3__114default_deleteIN7testing8internal24InternalRunDeathTestFlagEEclEPS3_
FN:52,_ZNKSt3__114default_deleteINS_18basic_stringstreamIcNS_11char_traitsIcEENS_9allocatorIcEEEEEclEPS6_
FNDA:0,_ZNKSt3__114default_deleteINS_18basic_stringstreamIcNS_11char_traitsIcEENS_9allocatorIcEEEEEclEPS6_
FN:52,_ZNKSt3__114default_deleteIN7testing8internal14GTestFlagSaverEEclEPS3_
FNDA:19,_ZNKSt3__114default_deleteIN7testing8internal14GTestFlagSaverEEclEPS3_
FN:52,_ZNKSt3__114default_deleteIKNS_12basic_stringIcNS_11char_traitsIcEENS_9allocatorIcEEEEEclEPS7_
FNDA:0,_ZNKSt3__114default_deleteIKNS_12basic_stringIcNS_11char_traitsIcEENS_9allocatorIcEEEEEclEPS7_
FN:52,_ZNKSt3__114default_deleteIN7testing8internal11ThreadLocalIPNS1_31TestPartResultReporterInterfaceEE18ValueHolderFactoryEEclEPS7_
FNDA:0,_ZNKSt3__114default_deleteIN7testing8internal11ThreadLocalIPNS1_31TestPartResultReporterInterfaceEE18ValueHolderFactoryEEclEPS7_
FN:52,_ZNKSt3__114default_deleteIN7testing8internal16DeathTestFactoryEEclEPS3_
FNDA:0,_ZNKSt3__114default_deleteIN7testing8internal16DeathTestFactoryEEclEPS3_
FN:52,_ZNKSt3__114default_deleteIN7testing8internal11ThreadLocalINS_6vectorINS2_9TraceInfoENS_9allocatorIS5_EEEEE18ValueHolderFactoryEEclEPSA_
FNDA:0,_ZNKSt3__114default_deleteIN7testing8internal11ThreadLocalINS_6vectorINS2_9TraceInfoENS_9allocatorIS5_EEEEE18ValueHolderFactoryEEclEPSA_
FN:180,_ZNSt3__110unique_ptrIN7testing8internal24InternalRunDeathTestFlagENS_14default_deleteIS3_EEEC1ILb1EvEEv
FNDA:20,_ZNSt3__110unique_ptrIN7testing8internal24InternalRunDeathTestFlagENS_14default_deleteIS3_EEEC1ILb1EvEEv
FN:180,_ZNSt3__110unique_ptrIN7testing8internal24InternalRunDeathTestFlagENS_14default_deleteIS3_EEEC2ILb1EvEEv
FNDA:20,_ZNSt3__110unique_ptrIN7testing8internal24InternalRunDeathTestFlagENS_14default_deleteIS3_EEEC2ILb1EvEEv
FN:180,_ZNSt3__110unique_ptrINS_12basic_stringIcNS_11char_traitsIcEENS_9allocatorIcEEEENS_14default_deleteIS6_EEEC1ILb1EvEEv
FNDA:0,_ZNSt3__110unique_ptrINS_12basic_stringIcNS_11char_traitsIcEENS_9allocatorIcEEEENS_14default_deleteIS6_EEEC1ILb1EvEEv
FN:180,_ZNSt3__110unique_ptrINS_12basic_stringIcNS_11char_traitsIcEENS_9allocatorIcEEEENS_14default_deleteIS6_EEEC2ILb1EvEEv
FNDA:0,_ZNSt3__110unique_ptrINS_12basic_stringIcNS_11char_traitsIcEENS_9allocatorIcEEEENS_14default_deleteIS6_EEEC2ILb1EvEEv
FN:190,_ZNSt3__110unique_ptrINS_18basic_stringstreamIcNS_11char_traitsIcEENS_9allocatorIcEEEENS_14default_deleteIS6_EEEC1ILb1EvEEPS6_
FNDA:1088,_ZNSt3__110unique_ptrINS_18basic_stringstreamIcNS_11char_traitsIcEENS_9allocatorIcEEEENS_14default_deleteIS6_EEEC1ILb1EvEEPS6_
FN:190,_ZNSt3__110unique_ptrINS_12basic_stringIcNS_11char_traitsIcEENS_9allocatorIcEEEENS_14default_deleteIS6_EEEC1ILb1EvEEPS6_
FNDA:0,_ZNSt3__110unique_ptrINS_12basic_stringIcNS_11char_traitsIcEENS_9allocatorIcEEEENS_14default_deleteIS6_EEEC1ILb1EvEEPS6_
FN:190,_ZNSt3__110unique_ptrIN7testing8internal14GTestFlagSaverENS_14default_deleteIS3_EEEC1ILb1EvEEPS3_
FNDA:19,_ZNSt3__110unique_ptrIN7testing8internal14GTestFlagSaverENS_14default_deleteIS3_EEEC1ILb1EvEEPS3_
FN:190,_ZNSt3__110unique_ptrIKNS_12basic_stringIcNS_11char_traitsIcEENS_9allocatorIcEEEENS_14default_deleteIS7_EEEC1ILb1EvEEPS7_
FNDA:800,_ZNSt3__110unique_ptrIKNS_12basic_stringIcNS_11char_traitsIcEENS_9allocatorIcEEEENS_14default_deleteIS7_EEEC1ILb1EvEEPS7_
FN:190,_ZNSt3__110unique_ptrIN7testing8internal16DeathTestFactoryENS_14default_deleteIS3_EEEC1ILb1EvEEPS3_
FNDA:20,_ZNSt3__110unique_ptrIN7testing8internal16DeathTestFactoryENS_14default_deleteIS3_EEEC1ILb1EvEEPS3_
FN:190,_ZNSt3__110unique_ptrINS_18basic_stringstreamIcNS_11char_traitsIcEENS_9allocatorIcEEEENS_14default_deleteIS6_EEEC2ILb1EvEEPS6_
FNDA:1088,_ZNSt3__110unique_ptrINS_18basic_stringstreamIcNS_11char_traitsIcEENS_9allocatorIcEEEENS_14default_deleteIS6_EEEC2ILb1EvEEPS6_
FN:190,_ZNSt3__110unique_ptrINS_12basic_stringIcNS_11char_traitsIcEENS_9allocatorIcEEEENS_14default_deleteIS6_EEEC2ILb1EvEEPS6_
FNDA:0,_ZNSt3__110unique_ptrINS_12basic_stringIcNS_11char_traitsIcEENS_9allocatorIcEEEENS_14default_deleteIS6_EEEC2ILb1EvEEPS6_
FN:190,_ZNSt3__110unique_ptrIN7testing8internal14GTestFlagSaverENS_14default_deleteIS3_EEEC2ILb1EvEEPS3_
FNDA:19,_ZNSt3__110unique_ptrIN7testing8internal14GTestFlagSaverENS_14default_deleteIS3_EEEC2ILb1EvEEPS3_
FN:190,_ZNSt3__110unique_ptrIKNS_12basic_stringIcNS_11char_traitsIcEENS_9allocatorIcEEEENS_14default_deleteIS7_EEEC2ILb1EvEEPS7_
FNDA:800,_ZNSt3__110unique_ptrIKNS_12basic_stringIcNS_11char_traitsIcEENS_9allocatorIcEEEENS_14default_deleteIS7_EEEC2ILb1EvEEPS7_
FN:190,_ZNSt3__110unique_ptrIN7testing8internal11ThreadLocalIPNS1_31TestPartResultReporterInterfaceEE18ValueHolderFactoryENS_14default_deleteIS7_EEEC1ILb1EvEEPS7_
FNDA:20,_ZNSt3__110unique_ptrIN7testing8internal11ThreadLocalIPNS1_31TestPartResultReporterInterfaceEE18ValueHolderFactoryENS_14default_deleteIS7_EEEC1ILb1EvEEPS7_
FN:190,_ZNSt3__110unique_ptrIN7testing8internal11ThreadLocalIPNS1_31TestPartResultReporterInterfaceEE18ValueHolderFactoryENS_14default_deleteIS7_EEEC2ILb1EvEEPS7_
FNDA:20,_ZNSt3__110unique_ptrIN7testing8internal11ThreadLocalIPNS1_31TestPartResultReporterInterfaceEE18ValueHolderFactoryENS_14default_deleteIS7_EEEC2ILb1EvEEPS7_
FN:190,_ZNSt3__110unique_ptrIN7testing8internal16DeathTestFactoryENS_14default_deleteIS3_EEEC2ILb1EvEEPS3_
FNDA:20,_ZNSt3__110unique_ptrIN7testing8internal16DeathTestFactoryENS_14default_deleteIS3_EEEC2ILb1EvEEPS3_
FN:190,_ZNSt3__110unique_ptrIN7testing8internal11ThreadLocalINS_6vectorINS2_9TraceInfoENS_9allocatorIS5_EEEEE18ValueHolderFactoryENS_14default_deleteISA_EEEC1ILb1EvEEPSA_
FNDA:20,_ZNSt3__110unique_ptrIN7testing8internal11ThreadLocalINS_6vectorINS2_9TraceInfoENS_9allocatorIS5_EEEEE18ValueHolderFactoryENS_14default_deleteISA_EEEC1ILb1EvEEPSA_
FN:190,_ZNSt3__110unique_ptrIN7testing8internal11ThreadLocalINS_6vectorINS2_9TraceInfoENS_9allocatorIS5_EEEEE18ValueHolderFactoryENS_14default_deleteISA_EEEC2ILb1EvEEPSA_
FNDA:20,_ZNSt3__110unique_ptrIN7testing8internal11ThreadLocalINS_6vectorINS2_9TraceInfoENS_9allocatorIS5_EEEEE18ValueHolderFactoryENS_14default_deleteISA_EEEC2ILb1EvEEPSA_
FN:201,_ZNSt3__110unique_ptrINS_11__tree_nodeINS_12__value_typeINS_12basic_stringIcNS_11char_traitsIcEENS_9allocatorIcEEEEmEEPvEENS_22__tree_node_destructorINS6_ISB_EEEEEC1ILb1EvEEPSB_NS_16__dependent_typeINS_27__unique_ptr_deleter_sfinaeISE_EEXT_EE20__good_rval_ref_typeE
FNDA:0,_ZNSt3__110unique_ptrINS_11__tree_nodeINS_12__value_typeINS_12basic_stringIcNS_11char_traitsIcEENS_9allocatorIcEEEEmEEPvEENS_22__tree_node_destructorINS6_ISB_EEEEEC1ILb1EvEEPSB_NS_16__dependent_typeINS_27__unique_ptr_deleter_sfinaeISE_EEXT_EE20__good_rval_ref_typeE
FN:201,_ZNSt3__110unique_ptrINS_11__tree_nodeINS_12__value_typeINS_12basic_stringIcNS_11char_traitsIcEENS_9allocatorIcEEEEmEEPvEENS_22__tree_node_destructorINS6_ISB_EEEEEC2ILb1EvEEPSB_NS_16__dependent_typeINS_27__unique_ptr_deleter_sfinaeISE_EEXT_EE20__good_rval_ref_typeE
FNDA:0,_ZNSt3__110unique_ptrINS_11__tree_nodeINS_12__value_typeINS_12basic_stringIcNS_11char_traitsIcEENS_9allocatorIcEEEEmEEPvEENS_22__tree_node_destructorINS6_ISB_EEEEEC2ILb1EvEEPSB_NS_16__dependent_typeINS_27__unique_ptr_deleter_sfinaeISE_EEXT_EE20__good_rval_ref_typeE
FN:201,_ZNSt3__110unique_ptrINS_11__list_nodeINS_4pairIcPKcEEPvEENS_22__allocator_destructorINS_9allocatorIS7_EEEEEC1ILb1EvEEPS7_NS_16__dependent_typeINS_27__unique_ptr_deleter_sfinaeISB_EEXT_EE20__good_rval_ref_typeE
FNDA:0,_ZNSt3__110unique_ptrINS_11__list_nodeINS_4pairIcPKcEEPvEENS_22__allocator_destructorINS_9allocatorIS7_EEEEEC1ILb1EvEEPS7_NS_16__dependent_typeINS_27__unique_ptr_deleter_sfinaeISB_EEXT_EE20__good_rval_ref_typeE
FN:201,_ZNSt3__110unique_ptrINS_11__list_nodeINS_4pairIcPKcEEPvEENS_22__allocator_destructorINS_9allocatorIS7_EEEEEC2ILb1EvEEPS7_NS_16__dependent_typeINS_27__unique_ptr_deleter_sfinaeISB_EEXT_EE20__good_rval_ref_typeE
FNDA:0,_ZNSt3__110unique_ptrINS_11__list_nodeINS_4pairIcPKcEEPvEENS_22__allocator_destructorINS_9allocatorIS7_EEEEEC2ILb1EvEEPS7_NS_16__dependent_typeINS_27__unique_ptr_deleter_sfinaeISB_EEXT_EE20__good_rval_ref_typeE
FN:201,_ZNSt3__110unique_ptrINS_11__tree_nodeINS_12basic_stringIcNS_11char_traitsIcEENS_9allocatorIcEEEEPvEENS_22__tree_node_destructorINS5_IS9_EEEEEC1ILb1EvEEPS9_NS_16__dependent_typeINS_27__unique_ptr_deleter_sfinaeISC_EEXT_EE20__good_rval_ref_typeE
FNDA:0,_ZNSt3__110unique_ptrINS_11__tree_nodeINS_12basic_stringIcNS_11char_traitsIcEENS_9allocatorIcEEEEPvEENS_22__tree_node_destructorINS5_IS9_EEEEEC1ILb1EvEEPS9_NS_16__dependent_typeINS_27__unique_ptr_deleter_sfinaeISC_EEXT_EE20__good_rval_ref_typeE
FN:201,_ZNSt3__110unique_ptrINS_11__tree_nodeINS_12basic_stringIcNS_11char_traitsIcEENS_9allocatorIcEEEEPvEENS_22__tree_node_destructorINS5_IS9_EEEEEC2ILb1EvEEPS9_NS_16__dependent_typeINS_27__unique_ptr_deleter_sfinaeISC_EEXT_EE20__good_rval_ref_typeE
FNDA:0,_ZNSt3__110unique_ptrINS_11__tree_nodeINS_12basic_stringIcNS_11char_traitsIcEENS_9allocatorIcEEEEPvEENS_22__tree_node_destructorINS5_IS9_EEEEEC2ILb1EvEEPS9_NS_16__dependent_typeINS_27__unique_ptr_deleter_sfinaeISC_EEXT_EE20__good_rval_ref_typeE
FN:201,_ZNSt3__110unique_ptrINS_11__tree_nodeINS_12__value_typeINS_12basic_stringIcNS_11char_traitsIcEENS_9allocatorIcEEEEN7testing8internal34TypeParameterizedTestSuiteRegistry30TypeParameterizedTestSuiteInfoEEEPvEENS_22__tree_node_destructorINS6_ISF_EEEEEC1ILb1EvEEPSF_NS_16__dependent_typeINS_27__unique_ptr_deleter_sfinaeISI_EEXT_EE20__good_rval_ref_typeE
FNDA:0,_ZNSt3__110unique_ptrINS_11__tree_nodeINS_12__value_typeINS_12basic_stringIcNS_11char_traitsIcEENS_9allocatorIcEEEEN7testing8internal34TypeParameterizedTestSuiteRegistry30TypeParameterizedTestSuiteInfoEEEPvEENS_22__tree_node_destructorINS6_ISF_EEEEEC1ILb1EvEEPSF_NS_16__dependent_typeINS_27__unique_ptr_deleter_sfinaeISI_EEXT_EE20__good_rval_ref_typeE
FN:201,_ZNSt3__110unique_ptrINS_11__tree_nodeINS_12__value_typeINS_12basic_stringIcNS_11char_traitsIcEENS_9allocatorIcEEEEN7testing8internal34TypeParameterizedTestSuiteRegistry30TypeParameterizedTestSuiteInfoEEEPvEENS_22__tree_node_destructorINS6_ISF_EEEEEC2ILb1EvEEPSF_NS_16__dependent_typeINS_27__unique_ptr_deleter_sfinaeISI_EEXT_EE20__good_rval_ref_typeE
FNDA:0,_ZNSt3__110unique_ptrINS_11__tree_nodeINS_12__value_typeINS_12basic_stringIcNS_11char_traitsIcEENS_9allocatorIcEEEEN7testing8internal34TypeParameterizedTestSuiteRegistry30TypeParameterizedTestSuiteInfoEEEPvEENS_22__tree_node_destructorINS6_ISF_EEEEEC2ILb1EvEEPSF_NS_16__dependent_typeINS_27__unique_ptr_deleter_sfinaeISI_EEXT_EE20__good_rval_ref_typeE
FN:272,_ZNSt3__110unique_ptrINS_18basic_stringstreamIcNS_11char_traitsIcEENS_9allocatorIcEEEENS_14default_deleteIS6_EEED1Ev
FNDA:0,_ZNSt3__110unique_ptrINS_18basic_stringstreamIcNS_11char_traitsIcEENS_9allocatorIcEEEENS_14default_deleteIS6_EEED1Ev
FN:272,_ZNSt3__110unique_ptrIN7testing8internal14GTestFlagSaverENS_14default_deleteIS3_EEED1Ev
FNDA:19,_ZNSt3__110unique_ptrIN7testing8internal14GTestFlagSaverENS_14default_deleteIS3_EEED1Ev
FN:272,_ZNSt3__110unique_ptrIKNS_12basic_stringIcNS_11char_traitsIcEENS_9allocatorIcEEEENS_14default_deleteIS7_EEED1Ev
FNDA:0,_ZNSt3__110unique_ptrIKNS_12basic_stringIcNS_11char_traitsIcEENS_9allocatorIcEEEENS_14default_deleteIS7_EEED1Ev
FN:272,_ZNSt3__110unique_ptrIN7testing8internal16DeathTestFactoryENS_14default_deleteIS3_EEED1Ev
FNDA:0,_ZNSt3__110unique_ptrIN7testing8internal16DeathTestFactoryENS_14default_deleteIS3_EEED1Ev
FN:272,_ZNSt3__110unique_ptrIN7testing8internal24InternalRunDeathTestFlagENS_14default_deleteIS3_EEED1Ev
FNDA:0,_ZNSt3__110unique_ptrIN7testing8internal24InternalRunDeathTestFlagENS_14default_deleteIS3_EEED1Ev
FN:272,_ZNSt3__110unique_ptrINS_12basic_stringIcNS_11char_traitsIcEENS_9allocatorIcEEEENS_14default_deleteIS6_EEED1Ev
FNDA:0,_ZNSt3__110unique_ptrINS_12basic_stringIcNS_11char_traitsIcEENS_9allocatorIcEEEENS_14default_deleteIS6_EEED1Ev
FN:272,_ZNSt3__110unique_ptrINS_12basic_stringIcNS_11char_traitsIcEENS_9allocatorIcEEEENS_14default_deleteIS6_EEED2Ev
FNDA:0,_ZNSt3__110unique_ptrINS_12basic_stringIcNS_11char_traitsIcEENS_9allocatorIcEEEENS_14default_deleteIS6_EEED2Ev
FN:272,_ZNSt3__110unique_ptrINS_11__tree_nodeINS_12__value_typeINS_12basic_stringIcNS_11char_traitsIcEENS_9allocatorIcEEEEmEEPvEENS_22__tree_node_destructorINS6_ISB_EEEEED1Ev
FNDA:0,_ZNSt3__110unique_ptrINS_11__tree_nodeINS_12__value_typeINS_12basic_stringIcNS_11char_traitsIcEENS_9allocatorIcEEEEmEEPvEENS_22__tree_node_destructorINS6_ISB_EEEEED1Ev
FN:272,_ZNSt3__110unique_ptrINS_11__tree_nodeINS_12__value_typeINS_12basic_stringIcNS_11char_traitsIcEENS_9allocatorIcEEEEmEEPvEENS_22__tree_node_destructorINS6_ISB_EEEEED2Ev
FNDA:0,_ZNSt3__110unique_ptrINS_11__tree_nodeINS_12__value_typeINS_12basic_stringIcNS_11char_traitsIcEENS_9allocatorIcEEEEmEEPvEENS_22__tree_node_destructorINS6_ISB_EEEEED2Ev
FN:272,_ZNSt3__110unique_ptrINS_11__list_nodeINS_4pairIcPKcEEPvEENS_22__allocator_destructorINS_9allocatorIS7_EEEEED1Ev
FNDA:0,_ZNSt3__110unique_ptrINS_11__list_nodeINS_4pairIcPKcEEPvEENS_22__allocator_destructorINS_9allocatorIS7_EEEEED1Ev
FN:272,_ZNSt3__110unique_ptrINS_11__list_nodeINS_4pairIcPKcEEPvEENS_22__allocator_destructorINS_9allocatorIS7_EEEEED2Ev
FNDA:0,_ZNSt3__110unique_ptrINS_11__list_nodeINS_4pairIcPKcEEPvEENS_22__allocator_destructorINS_9allocatorIS7_EEEEED2Ev
FN:272,_ZNSt3__110unique_ptrINS_18basic_stringstreamIcNS_11char_traitsIcEENS_9allocatorIcEEEENS_14default_deleteIS6_EEED2Ev
FNDA:0,_ZNSt3__110unique_ptrINS_18basic_stringstreamIcNS_11char_traitsIcEENS_9allocatorIcEEEENS_14default_deleteIS6_EEED2Ev
FN:272,_ZNSt3__110unique_ptrINS_11__tree_nodeINS_12basic_stringIcNS_11char_traitsIcEENS_9allocatorIcEEEEPvEENS_22__tree_node_destructorINS5_IS9_EEEEED1Ev
FNDA:0,_ZNSt3__110unique_ptrINS_11__tree_nodeINS_12basic_stringIcNS_11char_traitsIcEENS_9allocatorIcEEEEPvEENS_22__tree_node_destructorINS5_IS9_EEEEED1Ev
FN:272,_ZNSt3__110unique_ptrINS_11__tree_nodeINS_12basic_stringIcNS_11char_traitsIcEENS_9allocatorIcEEEEPvEENS_22__tree_node_destructorINS5_IS9_EEEEED2Ev
FNDA:0,_ZNSt3__110unique_ptrINS_11__tree_nodeINS_12basic_stringIcNS_11char_traitsIcEENS_9allocatorIcEEEEPvEENS_22__tree_node_destructorINS5_IS9_EEEEED2Ev
FN:272,_ZNSt3__110unique_ptrINS_11__tree_nodeINS_12__value_typeINS_12basic_stringIcNS_11char_traitsIcEENS_9allocatorIcEEEEN7testing8internal34TypeParameterizedTestSuiteRegistry30TypeParameterizedTestSuiteInfoEEEPvEENS_22__tree_node_destructorINS6_ISF_EEEEED1Ev
FNDA:0,_ZNSt3__110unique_ptrINS_11__tree_nodeINS_12__value_typeINS_12basic_stringIcNS_11char_traitsIcEENS_9allocatorIcEEEEN7testing8internal34TypeParameterizedTestSuiteRegistry30TypeParameterizedTestSuiteInfoEEEPvEENS_22__tree_node_destructorINS6_ISF_EEEEED1Ev
FN:272,_ZNSt3__110unique_ptrINS_11__tree_nodeINS_12__value_typeINS_12basic_stringIcNS_11char_traitsIcEENS_9allocatorIcEEEEN7testing8internal34TypeParameterizedTestSuiteRegistry30TypeParameterizedTestSuiteInfoEEEPvEENS_22__tree_node_destructorINS6_ISF_EEEEED2Ev
FNDA:0,_ZNSt3__110unique_ptrINS_11__tree_nodeINS_12__value_typeINS_12basic_stringIcNS_11char_traitsIcEENS_9allocatorIcEEEEN7testing8internal34TypeParameterizedTestSuiteRegistry30TypeParameterizedTestSuiteInfoEEEPvEENS_22__tree_node_destructorINS6_ISF_EEEEED2Ev
FN:272,_ZNSt3__110unique_ptrIN7testing8internal14GTestFlagSaverENS_14default_deleteIS3_EEED2Ev
FNDA:19,_ZNSt3__110unique_ptrIN7testing8internal14GTestFlagSaverENS_14default_deleteIS3_EEED2Ev
FN:272,_ZNSt3__110unique_ptrIKNS_12basic_stringIcNS_11char_traitsIcEENS_9allocatorIcEEEENS_14default_deleteIS7_EEED2Ev
FNDA:0,_ZNSt3__110unique_ptrIKNS_12basic_stringIcNS_11char_traitsIcEENS_9allocatorIcEEEENS_14default_deleteIS7_EEED2Ev
FN:272,_ZNSt3__110unique_ptrIN7testing8internal11ThreadLocalIPNS1_31TestPartResultReporterInterfaceEE18ValueHolderFactoryENS_14default_deleteIS7_EEED1Ev
FNDA:0,_ZNSt3__110unique_ptrIN7testing8internal11ThreadLocalIPNS1_31TestPartResultReporterInterfaceEE18ValueHolderFactoryENS_14default_deleteIS7_EEED1Ev
FN:272,_ZNSt3__110unique_ptrIN7testing8internal11ThreadLocalIPNS1_31TestPartResultReporterInterfaceEE18ValueHolderFactoryENS_14default_deleteIS7_EEED2Ev
FNDA:0,_ZNSt3__110unique_ptrIN7testing8internal11ThreadLocalIPNS1_31TestPartResultReporterInterfaceEE18ValueHolderFactoryENS_14default_deleteIS7_EEED2Ev
FN:272,_ZNSt3__110unique_ptrIN7testing8internal24InternalRunDeathTestFlagENS_14default_deleteIS3_EEED2Ev
FNDA:0,_ZNSt3__110unique_ptrIN7testing8internal24InternalRunDeathTestFlagENS_14default_deleteIS3_EEED2Ev
FN:272,_ZNSt3__110unique_ptrIN7testing8internal16DeathTestFactoryENS_14default_deleteIS3_EEED2Ev
FNDA:0,_ZNSt3__110unique_ptrIN7testing8internal16DeathTestFactoryENS_14default_deleteIS3_EEED2Ev
FN:272,_ZNSt3__110unique_ptrIN7testing8internal11ThreadLocalINS_6vectorINS2_9TraceInfoENS_9allocatorIS5_EEEEE18ValueHolderFactoryENS_14default_deleteISA_EEED1Ev
FNDA:0,_ZNSt3__110unique_ptrIN7testing8internal11ThreadLocalINS_6vectorINS2_9TraceInfoENS_9allocatorIS5_EEEEE18ValueHolderFactoryENS_14default_deleteISA_EEED1Ev
FN:272,_ZNSt3__110unique_ptrIN7testing8internal11ThreadLocalINS_6vectorINS2_9TraceInfoENS_9allocatorIS5_EEEEE18ValueHolderFactoryENS_14default_deleteISA_EEED2Ev
FNDA:0,_ZNSt3__110unique_ptrIN7testing8internal11ThreadLocalINS_6vectorINS2_9TraceInfoENS_9allocatorIS5_EEEEE18ValueHolderFactoryENS_14default_deleteISA_EEED2Ev
FN:282,_ZNKSt3__110unique_ptrINS_18basic_stringstreamIcNS_11char_traitsIcEENS_9allocatorIcEEEENS_14default_deleteIS6_EEEdeEv
FNDA:9216,_ZNKSt3__110unique_ptrINS_18basic_stringstreamIcNS_11char_traitsIcEENS_9allocatorIcEEEENS_14default_deleteIS6_EEEdeEv
FN:282,_ZNKSt3__110unique_ptrINS_12basic_stringIcNS_11char_traitsIcEENS_9allocatorIcEEEENS_14default_deleteIS6_EEEdeEv
FNDA:0,_ZNKSt3__110unique_ptrINS_12basic_stringIcNS_11char_traitsIcEENS_9allocatorIcEEEENS_14default_deleteIS6_EEEdeEv
FN:286,_ZNKSt3__110unique_ptrINS_12basic_stringIcNS_11char_traitsIcEENS_9allocatorIcEEEENS_14default_deleteIS6_EEEptEv
FNDA:0,_ZNKSt3__110unique_ptrINS_12basic_stringIcNS_11char_traitsIcEENS_9allocatorIcEEEENS_14default_deleteIS6_EEEptEv
FN:286,_ZNKSt3__110unique_ptrINS_11__tree_nodeINS_12__value_typeINS_12basic_stringIcNS_11char_traitsIcEENS_9allocatorIcEEEEmEEPvEENS_22__tree_node_destructorINS6_ISB_EEEEEptEv
FNDA:0,_ZNKSt3__110unique_ptrINS_11__tree_nodeINS_12__value_typeINS_12basic_stringIcNS_11char_traitsIcEENS_9allocatorIcEEEEmEEPvEENS_22__tree_node_destructorINS6_ISB_EEEEEptEv
FN:286,_ZNKSt3__110unique_ptrINS_11__list_nodeINS_4pairIcPKcEEPvEENS_22__allocator_destructorINS_9allocatorIS7_EEEEEptEv
FNDA:0,_ZNKSt3__110unique_ptrINS_11__list_nodeINS_4pairIcPKcEEPvEENS_22__allocator_destructorINS_9allocatorIS7_EEEEEptEv
FN:286,_ZNKSt3__110unique_ptrIKNS_12basic_stringIcNS_11char_traitsIcEENS_9allocatorIcEEEENS_14default_deleteIS7_EEEptEv
FNDA:0,_ZNKSt3__110unique_ptrIKNS_12basic_stringIcNS_11char_traitsIcEENS_9allocatorIcEEEENS_14default_deleteIS7_EEEptEv
FN:286,_ZNKSt3__110unique_ptrIN7testing8internal11ThreadLocalINS_6vectorINS2_9TraceInfoENS_9allocatorIS5_EEEEE18ValueHolderFactoryENS_14default_deleteISA_EEEptEv
FNDA:0,_ZNKSt3__110unique_ptrIN7testing8internal11ThreadLocalINS_6vectorINS2_9TraceInfoENS_9allocatorIS5_EEEEE18ValueHolderFactoryENS_14default_deleteISA_EEEptEv
FN:286,_ZNKSt3__110unique_ptrINS_11__tree_nodeINS_12basic_stringIcNS_11char_traitsIcEENS_9allocatorIcEEEEPvEENS_22__tree_node_destructorINS5_IS9_EEEEEptEv
FNDA:0,_ZNKSt3__110unique_ptrINS_11__tree_nodeINS_12basic_stringIcNS_11char_traitsIcEENS_9allocatorIcEEEEPvEENS_22__tree_node_destructorINS5_IS9_EEEEEptEv
FN:286,_ZNKSt3__110unique_ptrINS_11__tree_nodeINS_12__value_typeINS_12basic_stringIcNS_11char_traitsIcEENS_9allocatorIcEEEEN7testing8internal34TypeParameterizedTestSuiteRegistry30TypeParameterizedTestSuiteInfoEEEPvEENS_22__tree_node_destructorINS6_ISF_EEEEEptEv
FNDA:0,_ZNKSt3__110unique_ptrINS_11__tree_nodeINS_12__value_typeINS_12basic_stringIcNS_11char_traitsIcEENS_9allocatorIcEEEEN7testing8internal34TypeParameterizedTestSuiteRegistry30TypeParameterizedTestSuiteInfoEEEPvEENS_22__tree_node_destructorINS6_ISF_EEEEEptEv
FN:286,_ZNKSt3__110unique_ptrIN7testing8internal11ThreadLocalIPNS1_31TestPartResultReporterInterfaceEE18ValueHolderFactoryENS_14default_deleteIS7_EEEptEv
FNDA:0,_ZNKSt3__110unique_ptrIN7testing8internal11ThreadLocalIPNS1_31TestPartResultReporterInterfaceEE18ValueHolderFactoryENS_14default_deleteIS7_EEEptEv
FN:290,_ZNKSt3__110unique_ptrINS_18basic_stringstreamIcNS_11char_traitsIcEENS_9allocatorIcEEEENS_14default_deleteIS6_EEE3getEv
FNDA:1088,_ZNKSt3__110unique_ptrINS_18basic_stringstreamIcNS_11char_traitsIcEENS_9allocatorIcEEEENS_14default_deleteIS6_EEE3getEv
FN:290,_ZNKSt3__110unique_ptrINS_12basic_stringIcNS_11char_traitsIcEENS_9allocatorIcEEEENS_14default_deleteIS6_EEE3getEv
FNDA:0,_ZNKSt3__110unique_ptrINS_12basic_stringIcNS_11char_traitsIcEENS_9allocatorIcEEEENS_14default_deleteIS6_EEE3getEv
FN:290,_ZNKSt3__110unique_ptrIN7testing8internal24InternalRunDeathTestFlagENS_14default_deleteIS3_EEE3getEv
FNDA:40,_ZNKSt3__110unique_ptrIN7testing8internal24InternalRunDeathTestFlagENS_14default_deleteIS3_EEE3getEv
FN:290,_ZNKSt3__110unique_ptrINS_11__tree_nodeINS_12__value_typeINS_12basic_stringIcNS_11char_traitsIcEENS_9allocatorIcEEEEmEEPvEENS_22__tree_node_destructorINS6_ISB_EEEEE3getEv
FNDA:0,_ZNKSt3__110unique_ptrINS_11__tree_nodeINS_12__value_typeINS_12basic_stringIcNS_11char_traitsIcEENS_9allocatorIcEEEEmEEPvEENS_22__tree_node_destructorINS6_ISB_EEEEE3getEv
FN:290,_ZNKSt3__110unique_ptrINS_11__list_nodeINS_4pairIcPKcEEPvEENS_22__allocator_destructorINS_9allocatorIS7_EEEEE3getEv
FNDA:0,_ZNKSt3__110unique_ptrINS_11__list_nodeINS_4pairIcPKcEEPvEENS_22__allocator_destructorINS_9allocatorIS7_EEEEE3getEv
FN:290,_ZNKSt3__110unique_ptrIKNS_12basic_stringIcNS_11char_traitsIcEENS_9allocatorIcEEEENS_14default_deleteIS7_EEE3getEv
FNDA:420,_ZNKSt3__110unique_ptrIKNS_12basic_stringIcNS_11char_traitsIcEENS_9allocatorIcEEEENS_14default_deleteIS7_EEE3getEv
FN:290,_ZNKSt3__110unique_ptrIN7testing8internal16DeathTestFactoryENS_14default_deleteIS3_EEE3getEv
FNDA:0,_ZNKSt3__110unique_ptrIN7testing8internal16DeathTestFactoryENS_14default_deleteIS3_EEE3getEv
FN:290,_ZNKSt3__110unique_ptrINS_11__tree_nodeINS_12basic_stringIcNS_11char_traitsIcEENS_9allocatorIcEEEEPvEENS_22__tree_node_destructorINS5_IS9_EEEEE3getEv
FNDA:0,_ZNKSt3__110unique_ptrINS_11__tree_nodeINS_12basic_stringIcNS_11char_traitsIcEENS_9allocatorIcEEEEPvEENS_22__tree_node_destructorINS5_IS9_EEEEE3getEv
FN:290,_ZNKSt3__110unique_ptrINS_11__tree_nodeINS_12__value_typeINS_12basic_stringIcNS_11char_traitsIcEENS_9allocatorIcEEEEN7testing8internal34TypeParameterizedTestSuiteRegistry30TypeParameterizedTestSuiteInfoEEEPvEENS_22__tree_node_destructorINS6_ISF_EEEEE3getEv
FNDA:0,_ZNKSt3__110unique_ptrINS_11__tree_nodeINS_12__value_typeINS_12basic_stringIcNS_11char_traitsIcEENS_9allocatorIcEEEEN7testing8internal34TypeParameterizedTestSuiteRegistry30TypeParameterizedTestSuiteInfoEEEPvEENS_22__tree_node_destructorINS6_ISF_EEEEE3getEv
FN:294,_ZNSt3__110unique_ptrINS_11__tree_nodeINS_12__value_typeINS_12basic_stringIcNS_11char_traitsIcEENS_9allocatorIcEEEEmEEPvEENS_22__tree_node_destructorINS6_ISB_EEEEE11get_deleterEv
FNDA:0,_ZNSt3__110unique_ptrINS_11__tree_nodeINS_12__value_typeINS_12basic_stringIcNS_11char_traitsIcEENS_9allocatorIcEEEEmEEPvEENS_22__tree_node_destructorINS6_ISB_EEEEE11get_deleterEv
FN:294,_ZNSt3__110unique_ptrINS_11__tree_nodeINS_12basic_stringIcNS_11char_traitsIcEENS_9allocatorIcEEEEPvEENS_22__tree_node_destructorINS5_IS9_EEEEE11get_deleterEv
FNDA:0,_ZNSt3__110unique_ptrINS_11__tree_nodeINS_12basic_stringIcNS_11char_traitsIcEENS_9allocatorIcEEEEPvEENS_22__tree_node_destructorINS5_IS9_EEEEE11get_deleterEv
FN:294,_ZNSt3__110unique_ptrINS_11__tree_nodeINS_12__value_typeINS_12basic_stringIcNS_11char_traitsIcEENS_9allocatorIcEEEEN7testing8internal34TypeParameterizedTestSuiteRegistry30TypeParameterizedTestSuiteInfoEEEPvEENS_22__tree_node_destructorINS6_ISF_EEEEE11get_deleterEv
FNDA:0,_ZNSt3__110unique_ptrINS_11__tree_nodeINS_12__value_typeINS_12basic_stringIcNS_11char_traitsIcEENS_9allocatorIcEEEEN7testing8internal34TypeParameterizedTestSuiteRegistry30TypeParameterizedTestSuiteInfoEEEPvEENS_22__tree_node_destructorINS6_ISF_EEEEE11get_deleterEv
FN:307,_ZNSt3__110unique_ptrINS_11__tree_nodeINS_12__value_typeINS_12basic_stringIcNS_11char_traitsIcEENS_9allocatorIcEEEEmEEPvEENS_22__tree_node_destructorINS6_ISB_EEEEE7releaseEv
FNDA:0,_ZNSt3__110unique_ptrINS_11__tree_nodeINS_12__value_typeINS_12basic_stringIcNS_11char_traitsIcEENS_9allocatorIcEEEEmEEPvEENS_22__tree_node_destructorINS6_ISB_EEEEE7releaseEv
FN:307,_ZNSt3__110unique_ptrINS_11__list_nodeINS_4pairIcPKcEEPvEENS_22__allocator_destructorINS_9allocatorIS7_EEEEE7releaseEv
FNDA:0,_ZNSt3__110unique_ptrINS_11__list_nodeINS_4pairIcPKcEEPvEENS_22__allocator_destructorINS_9allocatorIS7_EEEEE7releaseEv
FN:307,_ZNSt3__110unique_ptrINS_11__tree_nodeINS_12basic_stringIcNS_11char_traitsIcEENS_9allocatorIcEEEEPvEENS_22__tree_node_destructorINS5_IS9_EEEEE7releaseEv
FNDA:0,_ZNSt3__110unique_ptrINS_11__tree_nodeINS_12basic_stringIcNS_11char_traitsIcEENS_9allocatorIcEEEEPvEENS_22__tree_node_destructorINS5_IS9_EEEEE7releaseEv
FN:307,_ZNSt3__110unique_ptrINS_11__tree_nodeINS_12__value_typeINS_12basic_stringIcNS_11char_traitsIcEENS_9allocatorIcEEEEN7testing8internal34TypeParameterizedTestSuiteRegistry30TypeParameterizedTestSuiteInfoEEEPvEENS_22__tree_node_destructorINS6_ISF_EEEEE7releaseEv
FNDA:0,_ZNSt3__110unique_ptrINS_11__tree_nodeINS_12__value_typeINS_12basic_stringIcNS_11char_traitsIcEENS_9allocatorIcEEEEN7testing8internal34TypeParameterizedTestSuiteRegistry30TypeParameterizedTestSuiteInfoEEEPvEENS_22__tree_node_destructorINS6_ISF_EEEEE7releaseEv
FN:314,_ZNSt3__110unique_ptrINS_12basic_stringIcNS_11char_traitsIcEENS_9allocatorIcEEEENS_14default_deleteIS6_EEE5resetEPS6_
FNDA:0,_ZNSt3__110unique_ptrINS_12basic_stringIcNS_11char_traitsIcEENS_9allocatorIcEEEENS_14default_deleteIS6_EEE5resetEPS6_
FN:314,_ZNSt3__110unique_ptrINS_11__tree_nodeINS_12__value_typeINS_12basic_stringIcNS_11char_traitsIcEENS_9allocatorIcEEEEmEEPvEENS_22__tree_node_destructorINS6_ISB_EEEEE5resetEPSB_
FNDA:0,_ZNSt3__110unique_ptrINS_11__tree_nodeINS_12__value_typeINS_12basic_stringIcNS_11char_traitsIcEENS_9allocatorIcEEEEmEEPvEENS_22__tree_node_destructorINS6_ISB_EEEEE5resetEPSB_
FN:314,_ZNSt3__110unique_ptrINS_11__list_nodeINS_4pairIcPKcEEPvEENS_22__allocator_destructorINS_9allocatorIS7_EEEEE5resetEPS7_
FNDA:0,_ZNSt3__110unique_ptrINS_11__list_nodeINS_4pairIcPKcEEPvEENS_22__allocator_destructorINS_9allocatorIS7_EEEEE5resetEPS7_
FN:314,_ZNSt3__110unique_ptrIN7testing8internal24InternalRunDeathTestFlagENS_14default_deleteIS3_EEE5resetEPS3_
FNDA:20,_ZNSt3__110unique_ptrIN7testing8internal24InternalRunDeathTestFlagENS_14default_deleteIS3_EEE5resetEPS3_
FN:314,_ZNSt3__110unique_ptrINS_18basic_stringstreamIcNS_11char_traitsIcEENS_9allocatorIcEEEENS_14default_deleteIS6_EEE5resetEPS6_
FNDA:0,_ZNSt3__110unique_ptrINS_18basic_stringstreamIcNS_11char_traitsIcEENS_9allocatorIcEEEENS_14default_deleteIS6_EEE5resetEPS6_
FN:314,_ZNSt3__110unique_ptrINS_11__tree_nodeINS_12basic_stringIcNS_11char_traitsIcEENS_9allocatorIcEEEEPvEENS_22__tree_node_destructorINS5_IS9_EEEEE5resetEPS9_
FNDA:0,_ZNSt3__110unique_ptrINS_11__tree_nodeINS_12basic_stringIcNS_11char_traitsIcEENS_9allocatorIcEEEEPvEENS_22__tree_node_destructorINS5_IS9_EEEEE5resetEPS9_
FN:314,_ZNSt3__110unique_ptrINS_11__tree_nodeINS_12__value_typeINS_12basic_stringIcNS_11char_traitsIcEENS_9allocatorIcEEEEN7testing8internal34TypeParameterizedTestSuiteRegistry30TypeParameterizedTestSuiteInfoEEEPvEENS_22__tree_node_destructorINS6_ISF_EEEEE5resetEPSF_
FNDA:0,_ZNSt3__110unique_ptrINS_11__tree_nodeINS_12__value_typeINS_12basic_stringIcNS_11char_traitsIcEENS_9allocatorIcEEEEN7testing8internal34TypeParameterizedTestSuiteRegistry30TypeParameterizedTestSuiteInfoEEEPvEENS_22__tree_node_destructorINS6_ISF_EEEEE5resetEPSF_
FN:314,_ZNSt3__110unique_ptrIN7testing8internal14GTestFlagSaverENS_14default_deleteIS3_EEE5resetEPS3_
FNDA:19,_ZNSt3__110unique_ptrIN7testing8internal14GTestFlagSaverENS_14default_deleteIS3_EEE5resetEPS3_
FN:314,_ZNSt3__110unique_ptrIKNS_12basic_stringIcNS_11char_traitsIcEENS_9allocatorIcEEEENS_14default_deleteIS7_EEE5resetEPS7_
FNDA:0,_ZNSt3__110unique_ptrIKNS_12basic_stringIcNS_11char_traitsIcEENS_9allocatorIcEEEENS_14default_deleteIS7_EEE5resetEPS7_
FN:314,_ZNSt3__110unique_ptrIN7testing8internal11ThreadLocalIPNS1_31TestPartResultReporterInterfaceEE18ValueHolderFactoryENS_14default_deleteIS7_EEE5resetEPS7_
FNDA:0,_ZNSt3__110unique_ptrIN7testing8internal11ThreadLocalIPNS1_31TestPartResultReporterInterfaceEE18ValueHolderFactoryENS_14default_deleteIS7_EEE5resetEPS7_
FN:314,_ZNSt3__110unique_ptrIN7testing8internal16DeathTestFactoryENS_14default_deleteIS3_EEE5resetEPS3_
FNDA:0,_ZNSt3__110unique_ptrIN7testing8internal16DeathTestFactoryENS_14default_deleteIS3_EEE5resetEPS3_
FN:314,_ZNSt3__110unique_ptrIN7testing8internal11ThreadLocalINS_6vectorINS2_9TraceInfoENS_9allocatorIS5_EEEEE18ValueHolderFactoryENS_14default_deleteISA_EEE5resetEPSA_
FNDA:0,_ZNSt3__110unique_ptrIN7testing8internal11ThreadLocalINS_6vectorINS2_9TraceInfoENS_9allocatorIS5_EEEEE18ValueHolderFactoryENS_14default_deleteISA_EEE5resetEPSA_
FN:322,_ZNSt3__110unique_ptrINS_12basic_stringIcNS_11char_traitsIcEENS_9allocatorIcEEEENS_14default_deleteIS6_EEE4swapERS9_
FNDA:0,_ZNSt3__110unique_ptrINS_12basic_stringIcNS_11char_traitsIcEENS_9allocatorIcEEEENS_14default_deleteIS6_EEE4swapERS9_
FN:567,_ZNSt3__1L4swapINS_12basic_stringIcNS_11char_traitsIcEENS_9allocatorIcEEEENS_14default_deleteIS6_EEEENS_9enable_ifIXsr14__is_swappableIT0_EE5valueEvE4typeERNS_10unique_ptrIT_SA_EESG_
FNDA:0,_ZNSt3__1L4swapINS_12basic_stringIcNS_11char_traitsIcEENS_9allocatorIcEEEENS_14default_deleteIS6_EEEENS_9enable_ifIXsr14__is_swappableIT0_EE5valueEvE4typeERNS_10unique_ptrIT_SA_EESG_
DA:52,19
DA:57,19
DA:58,19
DA:180,40
DA:190,3934
DA:201,0
DA:202,0
DA:205,0
DA:272,38
DA:282,9216
DA:283,9216
DA:286,0
DA:287,0
DA:290,1548
DA:291,1548
DA:294,0
DA:295,0
DA:307,0
DA:308,0
DA:309,0
DA:310,0
DA:314,39
DA:315,39
DA:316,39
DA:317,39
DA:318,19
DA:319,39
DA:322,0
DA:323,0
DA:324,0
DA:567,0
FNF:98
FNH:23
LF:31
LH:16
end_of_record
SF:/Users/dogukanarat/Desktop/Workspace/RocketLab/Binaries/Debug/Intermediate/_deps/googletest-src/googletest/include/gtest/gtest-test-part.h
FN:49,_ZN7testing14TestPartResultD1Ev
FNDA:0,_ZN7testing14TestPartResultD1Ev
FN:49,_ZN7testing14TestPartResultD2Ev
FNDA:0,_ZN7testing14TestPartResultD2Ev
FN:49,_ZN7testing14TestPartResultC1ERKS0_
FNDA:0,_ZN7testing14TestPartResultC1ERKS0_
FN:49,_ZN7testing14TestPartResultC2ERKS0_
FNDA:0,_ZN7testing14TestPartResultC2ERKS0_
FN:49,_ZN7testing14TestPartResultC1EOS0_
FNDA:0,_ZN7testing14TestPartResultC1EOS0_
FN:49,_ZN7testing14TestPartResultC2EOS0_
FNDA:0,_ZN7testing14TestPartResultC2EOS0_
FN:63,_ZN7testing14TestPartResultC1ENS0_4TypeEPKciS3_
FNDA:0,_ZN7testing14TestPartResultC1ENS0_4TypeEPKciS3_
FN:63,_ZN7testing14TestPartResultC2ENS0_4TypeEPKciS3_
FNDA:0,_ZN7testing14TestPartResultC2ENS0_4TypeEPKciS3_
FN:72,_ZNK7testing14TestPartResult4typeEv
FNDA:0,_ZNK7testing14TestPartResult4typeEv
FN:76,_ZNK7testing14TestPartResult9file_nameEv
FNDA:0,_ZNK7testing14TestPartResult9file_nameEv
FN:82,_ZNK7testing14TestPartResult11line_numberEv
FNDA:0,_ZNK7testing14TestPartResult11line_numberEv
FN:85,_ZNK7testing14TestPartResult7summaryEv
FNDA:0,_ZNK7testing14TestPartResult7summaryEv
FN:88,_ZNK7testing14TestPartResult7messageEv
FNDA:0,_ZNK7testing14TestPartResult7messageEv
FN:91,_ZNK7testing14TestPartResult7skippedEv
FNDA:0,_ZNK7testing14TestPartResult7skippedEv
FN:97,_ZNK7testing14TestPartResult17nonfatally_failedEv
FNDA:0,_ZNK7testing14TestPartResult17nonfatally_failedEv
FN:100,_ZNK7testing14TestPartResult14fatally_failedEv
FNDA:0,_ZNK7testing14TestPartResult14fatally_failedEv
FN:103,_ZNK7testing14TestPartResult6failedEv
FNDA:0,_ZNK7testing14TestPartResult6failedEv
FN:149,_ZN7testing31TestPartResultReporterInterfaceC2Ev
FNDA:40,_ZN7testing31TestPartResultReporterInterfaceC2Ev
FN:151,_ZN7testing31TestPartResultReporterInterfaceD2Ev
FNDA:0,_ZN7testing31TestPartResultReporterInterfaceD2Ev
FN:151,_ZN7testing31TestPartResultReporterInterfaceD1Ev
FNDA:0,_ZN7testing31TestPartResultReporterInterfaceD1Ev
FN:151,_ZN7testing31TestPartResultReporterInterfaceD0Ev
FNDA:0,_ZN7testing31TestPartResultReporterInterfaceD0Ev
DA:49,0
DA:63,0
DA:65,0
DA:66,0
DA:67,0
DA:68,0
DA:69,0
DA:72,0
DA:76,0
DA:77,0
DA:82,0
DA:85,0
DA:88,0
DA:91,0
DA:97,0
DA:100,0
DA:103,0
DA:151,0
FNF:21
FNH:1
LF:18
LH:0
end_of_record
SF:/Library/Developer/CommandLineTools/SDKs/MacOSX12.3.sdk/usr/include/c++/v1/iomanip
FN:181,_ZNSt3__18__iom_t4IcEC1Ec
FNDA:0,_ZNSt3__18__iom_t4IcEC1Ec
FN:181,_ZNSt3__18__iom_t4IcEC2Ec
FNDA:0,_ZNSt3__18__iom_t4IcEC2Ec
FN:187,_ZNSt3__1lsINS_11char_traitsIcEEEERNS_13basic_ostreamIcT_EES6_RKNS_8__iom_t4IcEE
FNDA:0,_ZNSt3__1lsINS_11char_traitsIcEEEERNS_13basic_ostreamIcT_EES6_RKNS_8__iom_t4IcEE
FN:197,_ZNSt3__1L7setfillIcEENS_8__iom_t4IT_EES2_
FNDA:0,_ZNSt3__1L7setfillIcEENS_8__iom_t4IT_EES2_
FN:209,_ZNSt3__18__iom_t5C1Ei
FNDA:1088,_ZNSt3__18__iom_t5C1Ei
FN:209,_ZNSt3__18__iom_t5C2Ei
FNDA:1088,_ZNSt3__18__iom_t5C2Ei
FN:225,_ZNSt3__1lsIcNS_11char_traitsIcEEEERNS_13basic_ostreamIT_T0_EES7_RKNS_8__iom_t5E
FNDA:1088,_ZNSt3__1lsIcNS_11char_traitsIcEEEERNS_13basic_ostreamIT_T0_EES7_RKNS_8__iom_t5E
FN:234,_ZNSt3__1L12setprecisionEi
FNDA:1088,_ZNSt3__1L12setprecisionEi
FN:246,_ZNSt3__18__iom_t6C1Ei
FNDA:0,_ZNSt3__18__iom_t6C1Ei
FN:246,_ZNSt3__18__iom_t6C2Ei
FNDA:0,_ZNSt3__18__iom_t6C2Ei
FN:262,_ZNSt3__1lsIcNS_11char_traitsIcEEEERNS_13basic_ostreamIT_T0_EES7_RKNS_8__iom_t6E
FNDA:0,_ZNSt3__1lsIcNS_11char_traitsIcEEEERNS_13basic_ostreamIT_T0_EES7_RKNS_8__iom_t6E
FN:271,_ZNSt3__1L4setwEi
FNDA:0,_ZNSt3__1L4setwEi
DA:181,0
DA:187,0
DA:189,0
DA:190,0
DA:197,0
DA:199,0
DA:209,2176
DA:225,1088
DA:227,1088
DA:228,1088
DA:234,1088
DA:236,1088
DA:246,0
DA:262,0
DA:264,0
DA:265,0
DA:271,0
DA:273,0
FNF:12
FNH:4
LF:18
LH:6
end_of_record
SF:/Library/Developer/CommandLineTools/SDKs/MacOSX12.3.sdk/usr/include/c++/v1/__memory/allocator_traits.h
FN:261,_ZNSt3__116allocator_traitsINS_9allocatorINS_11__tree_nodeINS_12__value_typeINS_12basic_stringIcNS_11char_traitsIcEENS1_IcEEEEmEEPvEEEEE8allocateERSC_m
FNDA:0,_ZNSt3__116allocator_traitsINS_9allocatorINS_11__tree_nodeINS_12__value_typeINS_12basic_stringIcNS_11char_traitsIcEENS1_IcEEEEmEEPvEEEEE8allocateERSC_m
FN:261,_ZNSt3__116allocator_traitsINS_9allocatorINS_11__list_nodeINS_4pairIcPKcEEPvEEEEE8allocateERS9_m
FNDA:0,_ZNSt3__116allocator_traitsINS_9allocatorINS_11__list_nodeINS_4pairIcPKcEEPvEEEEE8allocateERS9_m
FN:261,_ZNSt3__116allocator_traitsINS_9allocatorINS_12basic_stringIcNS_11char_traitsIcEENS1_IcEEEEEEE8allocateERS7_m
FNDA:79,_ZNSt3__116allocator_traitsINS_9allocatorINS_12basic_stringIcNS_11char_traitsIcEENS1_IcEEEEEEE8allocateERS7_m
FN:261,_ZNSt3__116allocator_traitsINS_9allocatorIPcEEE8allocateERS3_m
FNDA:0,_ZNSt3__116allocator_traitsINS_9allocatorIPcEEE8allocateERS3_m
FN:261,_ZNSt3__116allocator_traitsINS_9allocatorIcEEE8allocateERS2_m
FNDA:0,_ZNSt3__116allocator_traitsINS_9allocatorIcEEE8allocateERS2_m
FN:261,_ZNSt3__116allocator_traitsINS_9allocatorINS_11__tree_nodeINS_12basic_stringIcNS_11char_traitsIcEENS1_IcEEEEPvEEEEE8allocateERSA_m
FNDA:0,_ZNSt3__116allocator_traitsINS_9allocatorINS_11__tree_nodeINS_12basic_stringIcNS_11char_traitsIcEENS1_IcEEEEPvEEEEE8allocateERSA_m
FN:261,_ZNSt3__116allocator_traitsINS_9allocatorINS_11__tree_nodeINS_12__value_typeINS_12basic_stringIcNS_11char_traitsIcEENS1_IcEEEEN7testing8internal34TypeParameterizedTestSuiteRegistry30TypeParameterizedTestSuiteInfoEEEPvEEEEE8allocateERSG_m
FNDA:0,_ZNSt3__116allocator_traitsINS_9allocatorINS_11__tree_nodeINS_12__value_typeINS_12basic_stringIcNS_11char_traitsIcEENS1_IcEEEEN7testing8internal34TypeParameterizedTestSuiteRegistry30TypeParameterizedTestSuiteInfoEEEPvEEEEE8allocateERSG_m
FN:261,_ZNSt3__116allocator_traitsINS_9allocatorIdEEE8allocateERS2_m
FNDA:0,_ZNSt3__116allocator_traitsINS_9allocatorIdEEE8allocateERS2_m
FN:261,_ZNSt3__116allocator_traitsINS_9allocatorINS_6vectorIdNS1_IdEEEEEEE8allocateERS5_m
FNDA:0,_ZNSt3__116allocator_traitsINS_9allocatorINS_6vectorIdNS1_IdEEEEEEE8allocateERS5_m
FN:261,_ZNSt3__116allocator_traitsINS_9allocatorIN7testing8internal13edit_distance8EditTypeEEEE8allocateERS6_m
FNDA:0,_ZNSt3__116allocator_traitsINS_9allocatorIN7testing8internal13edit_distance8EditTypeEEEE8allocateERS6_m
FN:261,_ZNSt3__116allocator_traitsINS_9allocatorINS_6vectorIN7testing8internal13edit_distance8EditTypeENS1_IS6_EEEEEEE8allocateERS9_m
FNDA:0,_ZNSt3__116allocator_traitsINS_9allocatorINS_6vectorIN7testing8internal13edit_distance8EditTypeENS1_IS6_EEEEEEE8allocateERS9_m
FN:261,_ZNSt3__116allocator_traitsINS_9allocatorImEEE8allocateERS2_m
FNDA:0,_ZNSt3__116allocator_traitsINS_9allocatorImEEE8allocateERS2_m
FN:261,_ZNSt3__116allocator_traitsINS_9allocatorIN7testing14TestPartResultEEEE8allocateERS4_m
FNDA:0,_ZNSt3__116allocator_traitsINS_9allocatorIN7testing14TestPartResultEEEE8allocateERS4_m
FN:261,_ZNSt3__116allocator_traitsINS_9allocatorIN7testing12TestPropertyEEEE8allocateERS4_m
FNDA:0,_ZNSt3__116allocator_traitsINS_9allocatorIN7testing12TestPropertyEEEE8allocateERS4_m
FN:261,_ZNSt3__116allocator_traitsINS_9allocatorIPN7testing8TestInfoEEEE8allocateERS5_m
FNDA:160,_ZNSt3__116allocator_traitsINS_9allocatorIPN7testing8TestInfoEEEE8allocateERS5_m
FN:261,_ZNSt3__116allocator_traitsINS_9allocatorIiEEE8allocateERS2_m
FNDA:3406,_ZNSt3__116allocator_traitsINS_9allocatorIiEEE8allocateERS2_m
FN:261,_ZNSt3__116allocator_traitsINS_9allocatorIPN7testing17TestEventListenerEEEE8allocateERS5_m
FNDA:20,_ZNSt3__116allocator_traitsINS_9allocatorIPN7testing17TestEventListenerEEEE8allocateERS5_m
FN:261,_ZNSt3__116allocator_traitsINS_9allocatorIPN7testing11EnvironmentEEEE8allocateERS5_m
FNDA:0,_ZNSt3__116allocator_traitsINS_9allocatorIPN7testing11EnvironmentEEEE8allocateERS5_m
FN:261,_ZNSt3__116allocator_traitsINS_9allocatorIN7testing8internal9TraceInfoEEEE8allocateERS5_m
FNDA:0,_ZNSt3__116allocator_traitsINS_9allocatorIN7testing8internal9TraceInfoEEEE8allocateERS5_m
FN:261,_ZNSt3__116allocator_traitsINS_9allocatorIPN7testing9TestSuiteEEEE8allocateERS5_m
FNDA:40,_ZNSt3__116allocator_traitsINS_9allocatorIPN7testing9TestSuiteEEEE8allocateERS5_m
FN:281,_ZNSt3__116allocator_traitsINS_9allocatorINS_11__tree_nodeINS_12__value_typeINS_12basic_stringIcNS_11char_traitsIcEENS1_IcEEEEmEEPvEEEEE10deallocateERSC_PSB_m
FNDA:0,_ZNSt3__116allocator_traitsINS_9allocatorINS_11__tree_nodeINS_12__value_typeINS_12basic_stringIcNS_11char_traitsIcEENS1_IcEEEEmEEPvEEEEE10deallocateERSC_PSB_m
FN:281,_ZNSt3__116allocator_traitsINS_9allocatorINS_11__list_nodeINS_4pairIcPKcEEPvEEEEE10deallocateERS9_PS8_m
FNDA:0,_ZNSt3__116allocator_traitsINS_9allocatorINS_11__list_nodeINS_4pairIcPKcEEPvEEEEE10deallocateERS9_PS8_m
FN:281,_ZNSt3__116allocator_traitsINS_9allocatorINS_12basic_stringIcNS_11char_traitsIcEENS1_IcEEEEEEE10deallocateERS7_PS6_m
FNDA:59,_ZNSt3__116allocator_traitsINS_9allocatorINS_12basic_stringIcNS_11char_traitsIcEENS1_IcEEEEEEE10deallocateERS7_PS6_m
FN:281,_ZNSt3__116allocator_traitsINS_9allocatorINS_11__tree_nodeINS_12__value_typeINS_12basic_stringIcNS_11char_traitsIcEENS1_IcEEEEN7testing8internal34TypeParameterizedTestSuiteRegistry30TypeParameterizedTestSuiteInfoEEEPvEEEEE10deallocateERSG_PSF_m
FNDA:0,_ZNSt3__116allocator_traitsINS_9allocatorINS_11__tree_nodeINS_12__value_typeINS_12basic_stringIcNS_11char_traitsIcEENS1_IcEEEEN7testing8internal34TypeParameterizedTestSuiteRegistry30TypeParameterizedTestSuiteInfoEEEPvEEEEE10deallocateERSG_PSF_m
FN:281,_ZNSt3__116allocator_traitsINS_9allocatorIPN7testing8internal30ParameterizedTestSuiteInfoBaseEEEE10deallocateERS6_PS5_m
FNDA:0,_ZNSt3__116allocator_traitsINS_9allocatorIPN7testing8internal30ParameterizedTestSuiteInfoBaseEEEE10deallocateERS6_PS5_m
FN:281,_ZNSt3__116allocator_traitsINS_9allocatorIPcEEE10deallocateERS3_PS2_m
FNDA:0,_ZNSt3__116allocator_traitsINS_9allocatorIPcEEE10deallocateERS3_PS2_m
FN:281,_ZNSt3__116allocator_traitsINS_9allocatorIN7testing14TestPartResultEEEE10deallocateERS4_PS3_m
FNDA:0,_ZNSt3__116allocator_traitsINS_9allocatorIN7testing14TestPartResultEEEE10deallocateERS4_PS3_m
FN:281,_ZNSt3__116allocator_traitsINS_9allocatorINS_11__tree_nodeINS_12basic_stringIcNS_11char_traitsIcEENS1_IcEEEEPvEEEEE10deallocateERSA_PS9_m
FNDA:0,_ZNSt3__116allocator_traitsINS_9allocatorINS_11__tree_nodeINS_12basic_stringIcNS_11char_traitsIcEENS1_IcEEEEPvEEEEE10deallocateERSA_PS9_m
FN:281,_ZNSt3__116allocator_traitsINS_9allocatorIcEEE10deallocateERS2_Pcm
FNDA:0,_ZNSt3__116allocator_traitsINS_9allocatorIcEEE10deallocateERS2_Pcm
FN:281,_ZNSt3__116allocator_traitsINS_9allocatorIdEEE10deallocateERS2_Pdm
FNDA:0,_ZNSt3__116allocator_traitsINS_9allocatorIdEEE10deallocateERS2_Pdm
FN:281,_ZNSt3__116allocator_traitsINS_9allocatorINS_6vectorIdNS1_IdEEEEEEE10deallocateERS5_PS4_m
FNDA:0,_ZNSt3__116allocator_traitsINS_9allocatorINS_6vectorIdNS1_IdEEEEEEE10deallocateERS5_PS4_m
FN:281,_ZNSt3__116allocator_traitsINS_9allocatorIN7testing8internal13edit_distance8EditTypeEEEE10deallocateERS6_PS5_m
FNDA:0,_ZNSt3__116allocator_traitsINS_9allocatorIN7testing8internal13edit_distance8EditTypeEEEE10deallocateERS6_PS5_m
FN:281,_ZNSt3__116allocator_traitsINS_9allocatorINS_6vectorIN7testing8internal13edit_distance8EditTypeENS1_IS6_EEEEEEE10deallocateERS9_PS8_m
FNDA:0,_ZNSt3__116allocator_traitsINS_9allocatorINS_6vectorIN7testing8internal13edit_distance8EditTypeENS1_IS6_EEEEEEE10deallocateERS9_PS8_m
FN:281,_ZNSt3__116allocator_traitsINS_9allocatorImEEE10deallocateERS2_Pmm
FNDA:0,_ZNSt3__116allocator_traitsINS_9allocatorImEEE10deallocateERS2_Pmm
FN:281,_ZNSt3__116allocator_traitsINS_9allocatorIN7testing12TestPropertyEEEE10deallocateERS4_PS3_m
FNDA:0,_ZNSt3__116allocator_traitsINS_9allocatorIN7testing12TestPropertyEEEE10deallocateERS4_PS3_m
FN:281,_ZNSt3__116allocator_traitsINS_9allocatorIPN7testing8TestInfoEEEE10deallocateERS5_PS4_m
FNDA:120,_ZNSt3__116allocator_traitsINS_9allocatorIPN7testing8TestInfoEEEE10deallocateERS5_PS4_m
FN:281,_ZNSt3__116allocator_traitsINS_9allocatorIiEEE10deallocateERS2_Pim
FNDA:2986,_ZNSt3__116allocator_traitsINS_9allocatorIiEEE10deallocateERS2_Pim
FN:281,_ZNSt3__116allocator_traitsINS_9allocatorIPN7testing17TestEventListenerEEEE10deallocateERS5_PS4_m
FNDA:0,_ZNSt3__116allocator_traitsINS_9allocatorIPN7testing17TestEventListenerEEEE10deallocateERS5_PS4_m
FN:281,_ZNSt3__116allocator_traitsINS_9allocatorIPN7testing11EnvironmentEEEE10deallocateERS5_PS4_m
FNDA:0,_ZNSt3__116allocator_traitsINS_9allocatorIPN7testing11EnvironmentEEEE10deallocateERS5_PS4_m
FN:281,_ZNSt3__116allocator_traitsINS_9allocatorIN7testing8internal9TraceInfoEEEE10deallocateERS5_PS4_m
FNDA:0,_ZNSt3__116allocator_traitsINS_9allocatorIN7testing8internal9TraceInfoEEEE10deallocateERS5_PS4_m
FN:281,_ZNSt3__116allocator_traitsINS_9allocatorIPN7testing9TestSuiteEEEE10deallocateERS5_PS4_m
FNDA:20,_ZNSt3__116allocator_traitsINS_9allocatorIPN7testing9TestSuiteEEEE10deallocateERS5_PS4_m
FN:288,_ZNSt3__116allocator_traitsINS_9allocatorINS_11__tree_nodeINS_12__value_typeINS_12basic_stringIcNS_11char_traitsIcEENS1_IcEEEEmEEPvEEEEE9constructINS_4pairIKS8_mEEJRKNS_21piecewise_construct_tENS_5tupleIJRSG_EEENSL_IJEEEEvEEvRSC_PT_DpOT0_
FNDA:0,_ZNSt3__116allocator_traitsINS_9allocatorINS_11__tree_nodeINS_12__value_typeINS_12basic_stringIcNS_11char_traitsIcEENS1_IcEEEEmEEPvEEEEE9constructINS_4pairIKS8_mEEJRKNS_21piecewise_construct_tENS_5tupleIJRSG_EEENSL_IJEEEEvEEvRSC_PT_DpOT0_
FN:288,_ZNSt3__116allocator_traitsINS_9allocatorINS_11__list_nodeINS_4pairIcPKcEEPvEEEEE9constructIS6_JS6_EvEEvRS9_PT_DpOT0_
FNDA:0,_ZNSt3__116allocator_traitsINS_9allocatorINS_11__list_nodeINS_4pairIcPKcEEPvEEEEE9constructIS6_JS6_EvEEvRS9_PT_DpOT0_
FN:288,_ZNSt3__116allocator_traitsINS_9allocatorINS_12basic_stringIcNS_11char_traitsIcEENS1_IcEEEEEEE9constructIS6_JRKPKcEvEEvRS7_PT_DpOT0_
FNDA:0,_ZNSt3__116allocator_traitsINS_9allocatorINS_12basic_stringIcNS_11char_traitsIcEENS1_IcEEEEEEE9constructIS6_JRKPKcEvEEvRS7_PT_DpOT0_
FN:288,_ZNSt3__116allocator_traitsINS_9allocatorIPcEEE9constructIS2_JS2_EvEEvRS3_PT_DpOT0_
FNDA:0,_ZNSt3__116allocator_traitsINS_9allocatorIPcEEE9constructIS2_JS2_EvEEvRS3_PT_DpOT0_
FN:288,_ZNSt3__116allocator_traitsINS_9allocatorINS_11__tree_nodeINS_12basic_stringIcNS_11char_traitsIcEENS1_IcEEEEPvEEEEE9constructIS7_JS7_EvEEvRSA_PT_DpOT0_
FNDA:0,_ZNSt3__116allocator_traitsINS_9allocatorINS_11__tree_nodeINS_12basic_stringIcNS_11char_traitsIcEENS1_IcEEEEPvEEEEE9constructIS7_JS7_EvEEvRSA_PT_DpOT0_
FN:288,_ZNSt3__116allocator_traitsINS_9allocatorINS_11__tree_nodeINS_12__value_typeINS_12basic_stringIcNS_11char_traitsIcEENS1_IcEEEEN7testing8internal34TypeParameterizedTestSuiteRegistry30TypeParameterizedTestSuiteInfoEEEPvEEEEE9constructINS_4pairIKS8_SC_EEJS8_SC_EvEEvRSG_PT_DpOT0_
FNDA:0,_ZNSt3__116allocator_traitsINS_9allocatorINS_11__tree_nodeINS_12__value_typeINS_12basic_stringIcNS_11char_traitsIcEENS1_IcEEEEN7testing8internal34TypeParameterizedTestSuiteRegistry30TypeParameterizedTestSuiteInfoEEEPvEEEEE9constructINS_4pairIKS8_SC_EEJS8_SC_EvEEvRSG_PT_DpOT0_
FN:288,_ZNSt3__116allocator_traitsINS_9allocatorINS_12basic_stringIcNS_11char_traitsIcEENS1_IcEEEEEEE9constructIS6_JRS6_EvEEvRS7_PT_DpOT0_
FNDA:59,_ZNSt3__116allocator_traitsINS_9allocatorINS_12basic_stringIcNS_11char_traitsIcEENS1_IcEEEEEEE9constructIS6_JRS6_EvEEvRS7_PT_DpOT0_
FN:288,_ZNSt3__116allocator_traitsINS_9allocatorINS_12basic_stringIcNS_11char_traitsIcEENS1_IcEEEEEEE9constructIS6_JS6_EvEEvRS7_PT_DpOT0_
FNDA:117,_ZNSt3__116allocator_traitsINS_9allocatorINS_12basic_stringIcNS_11char_traitsIcEENS1_IcEEEEEEE9constructIS6_JS6_EvEEvRS7_PT_DpOT0_
FN:288,_ZNSt3__116allocator_traitsINS_9allocatorIdEEE9constructIdJEvEEvRS2_PT_DpOT0_
FNDA:0,_ZNSt3__116allocator_traitsINS_9allocatorIdEEE9constructIdJEvEEvRS2_PT_DpOT0_
FN:288,_ZNSt3__116allocator_traitsINS_9allocatorINS_6vectorIdNS1_IdEEEEEEE9constructIS4_JRKS4_EvEEvRS5_PT_DpOT0_
FNDA:0,_ZNSt3__116allocator_traitsINS_9allocatorINS_6vectorIdNS1_IdEEEEEEE9constructIS4_JRKS4_EvEEvRS5_PT_DpOT0_
FN:288,_ZNSt3__116allocator_traitsINS_9allocatorIN7testing8internal13edit_distance8EditTypeEEEE9constructIS5_JEvEEvRS6_PT_DpOT0_
FNDA:0,_ZNSt3__116allocator_traitsINS_9allocatorIN7testing8internal13edit_distance8EditTypeEEEE9constructIS5_JEvEEvRS6_PT_DpOT0_
FN:288,_ZNSt3__116allocator_traitsINS_9allocatorINS_6vectorIN7testing8internal13edit_distance8EditTypeENS1_IS6_EEEEEEE9constructIS8_JRKS8_EvEEvRS9_PT_DpOT0_
FNDA:0,_ZNSt3__116allocator_traitsINS_9allocatorINS_6vectorIN7testing8internal13edit_distance8EditTypeENS1_IS6_EEEEEEE9constructIS8_JRKS8_EvEEvRS9_PT_DpOT0_
FN:288,_ZNSt3__116allocator_traitsINS_9allocatorIN7testing8internal13edit_distance8EditTypeEEEE9constructIS5_JRKS5_EvEEvRS6_PT_DpOT0_
FNDA:0,_ZNSt3__116allocator_traitsINS_9allocatorIN7testing8internal13edit_distance8EditTypeEEEE9constructIS5_JRKS5_EvEEvRS6_PT_DpOT0_
FN:288,_ZNSt3__116allocator_traitsINS_9allocatorImEEE9constructImJmEvEEvRS2_PT_DpOT0_
FNDA:0,_ZNSt3__116allocator_traitsINS_9allocatorImEEE9constructImJmEvEEvRS2_PT_DpOT0_
FN:288,_ZNSt3__116allocator_traitsINS_9allocatorIN7testing14TestPartResultEEEE9constructIS3_JRKS3_EvEEvRS4_PT_DpOT0_
FNDA:0,_ZNSt3__116allocator_traitsINS_9allocatorIN7testing14TestPartResultEEEE9constructIS3_JRKS3_EvEEvRS4_PT_DpOT0_
FN:288,_ZNSt3__116allocator_traitsINS_9allocatorIN7testing14TestPartResultEEEE9constructIS3_JS3_EvEEvRS4_PT_DpOT0_
FNDA:0,_ZNSt3__116allocator_traitsINS_9allocatorIN7testing14TestPartResultEEEE9constructIS3_JS3_EvEEvRS4_PT_DpOT0_
FN:288,_ZNSt3__116allocator_traitsINS_9allocatorIN7testing12TestPropertyEEEE9constructIS3_JRKS3_EvEEvRS4_PT_DpOT0_
FNDA:0,_ZNSt3__116allocator_traitsINS_9allocatorIN7testing12TestPropertyEEEE9constructIS3_JRKS3_EvEEvRS4_PT_DpOT0_
FN:288,_ZNSt3__116allocator_traitsINS_9allocatorIN7testing12TestPropertyEEEE9constructIS3_JS3_EvEEvRS4_PT_DpOT0_
FNDA:0,_ZNSt3__116allocator_traitsINS_9allocatorIN7testing12TestPropertyEEEE9constructIS3_JS3_EvEEvRS4_PT_DpOT0_
FN:288,_ZNSt3__116allocator_traitsINS_9allocatorIPN7testing8TestInfoEEEE9constructIS4_JRKS4_EvEEvRS5_PT_DpOT0_
FNDA:380,_ZNSt3__116allocator_traitsINS_9allocatorIPN7testing8TestInfoEEEE9constructIS4_JRKS4_EvEEvRS5_PT_DpOT0_
FN:288,_ZNSt3__116allocator_traitsINS_9allocatorIiEEE9constructIiJiEvEEvRS2_PT_DpOT0_
FNDA:420,_ZNSt3__116allocator_traitsINS_9allocatorIiEEE9constructIiJiEvEEvRS2_PT_DpOT0_
FN:288,_ZNSt3__116allocator_traitsINS_9allocatorIPN7testing17TestEventListenerEEEE9constructIS4_JRKS4_EvEEvRS5_PT_DpOT0_
FNDA:20,_ZNSt3__116allocator_traitsINS_9allocatorIPN7testing17TestEventListenerEEEE9constructIS4_JRKS4_EvEEvRS5_PT_DpOT0_
FN:288,_ZNSt3__116allocator_traitsINS_9allocatorIPN7testing11EnvironmentEEEE9constructIS4_JRKS4_EvEEvRS5_PT_DpOT0_
FNDA:0,_ZNSt3__116allocator_traitsINS_9allocatorIPN7testing11EnvironmentEEEE9constructIS4_JRKS4_EvEEvRS5_PT_DpOT0_
FN:288,_ZNSt3__116allocator_traitsINS_9allocatorIN7testing8internal9TraceInfoEEEE9constructIS4_JRKS4_EvEEvRS5_PT_DpOT0_
FNDA:0,_ZNSt3__116allocator_traitsINS_9allocatorIN7testing8internal9TraceInfoEEEE9constructIS4_JRKS4_EvEEvRS5_PT_DpOT0_
FN:288,_ZNSt3__116allocator_traitsINS_9allocatorIN7testing8internal9TraceInfoEEEE9constructIS4_JS4_EvEEvRS5_PT_DpOT0_
FNDA:0,_ZNSt3__116allocator_traitsINS_9allocatorIN7testing8internal9TraceInfoEEEE9constructIS4_JS4_EvEEvRS5_PT_DpOT0_
FN:288,_ZNSt3__116allocator_traitsINS_9allocatorIPN7testing9TestSuiteEEEE9constructIS4_JRKS4_EvEEvRS5_PT_DpOT0_
FNDA:40,_ZNSt3__116allocator_traitsINS_9allocatorIPN7testing9TestSuiteEEEE9constructIS4_JRKS4_EvEEvRS5_PT_DpOT0_
FN:288,_ZNSt3__116allocator_traitsINS_9allocatorIPN7testing9TestSuiteEEEE9constructIS4_JS4_EvEEvRS5_PT_DpOT0_
FNDA:0,_ZNSt3__116allocator_traitsINS_9allocatorIPN7testing9TestSuiteEEEE9constructIS4_JS4_EvEEvRS5_PT_DpOT0_
FN:288,_ZNSt3__116allocator_traitsINS_9allocatorINS_12basic_stringIcNS_11char_traitsIcEENS1_IcEEEEEEE9constructIS6_JRKS6_EvEEvRS7_PT_DpOT0_
FNDA:0,_ZNSt3__116allocator_traitsINS_9allocatorINS_12basic_stringIcNS_11char_traitsIcEENS1_IcEEEEEEE9constructIS6_JRKS6_EvEEvRS7_PT_DpOT0_
FN:288,_ZNSt3__116allocator_traitsINS_9allocatorINS_11__tree_nodeINS_12basic_stringIcNS_11char_traitsIcEENS1_IcEEEEPvEEEEE9constructIS7_JRKS7_EvEEvRSA_PT_DpOT0_
FNDA:0,_ZNSt3__116allocator_traitsINS_9allocatorINS_11__tree_nodeINS_12basic_stringIcNS_11char_traitsIcEENS1_IcEEEEPvEEEEE9constructIS7_JRKS7_EvEEvRSA_PT_DpOT0_
FN:307,_ZNSt3__116allocator_traitsINS_9allocatorINS_12basic_stringIcNS_11char_traitsIcEENS1_IcEEEEEEE7destroyIS6_vEEvRS7_PT_
FNDA:117,_ZNSt3__116allocator_traitsINS_9allocatorINS_12basic_stringIcNS_11char_traitsIcEENS1_IcEEEEEEE7destroyIS6_vEEvRS7_PT_
FN:307,_ZNSt3__116allocator_traitsINS_9allocatorIPN7testing8internal30ParameterizedTestSuiteInfoBaseEEEE7destroyIS5_vEEvRS6_PT_
FNDA:0,_ZNSt3__116allocator_traitsINS_9allocatorIPN7testing8internal30ParameterizedTestSuiteInfoBaseEEEE7destroyIS5_vEEvRS6_PT_
FN:307,_ZNSt3__116allocator_traitsINS_9allocatorIPcEEE7destroyIS2_vEEvRS3_PT_
FNDA:0,_ZNSt3__116allocator_traitsINS_9allocatorIPcEEE7destroyIS2_vEEvRS3_PT_
FN:307,_ZNSt3__116allocator_traitsINS_9allocatorIN7testing14TestPartResultEEEE7destroyIS3_vEEvRS4_PT_
FNDA:0,_ZNSt3__116allocator_traitsINS_9allocatorIN7testing14TestPartResultEEEE7destroyIS3_vEEvRS4_PT_
FN:307,_ZNSt3__116allocator_traitsINS_9allocatorIdEEE7destroyIdvEEvRS2_PT_
FNDA:0,_ZNSt3__116allocator_traitsINS_9allocatorIdEEE7destroyIdvEEvRS2_PT_
FN:307,_ZNSt3__116allocator_traitsINS_9allocatorINS_6vectorIdNS1_IdEEEEEEE7destroyIS4_vEEvRS5_PT_
FNDA:0,_ZNSt3__116allocator_traitsINS_9allocatorINS_6vectorIdNS1_IdEEEEEEE7destroyIS4_vEEvRS5_PT_
FN:307,_ZNSt3__116allocator_traitsINS_9allocatorIN7testing8internal13edit_distance8EditTypeEEEE7destroyIS5_vEEvRS6_PT_
FNDA:0,_ZNSt3__116allocator_traitsINS_9allocatorIN7testing8internal13edit_distance8EditTypeEEEE7destroyIS5_vEEvRS6_PT_
FN:307,_ZNSt3__116allocator_traitsINS_9allocatorINS_6vectorIN7testing8internal13edit_distance8EditTypeENS1_IS6_EEEEEEE7destroyIS8_vEEvRS9_PT_
FNDA:0,_ZNSt3__116allocator_traitsINS_9allocatorINS_6vectorIN7testing8internal13edit_distance8EditTypeENS1_IS6_EEEEEEE7destroyIS8_vEEvRS9_PT_
FN:307,_ZNSt3__116allocator_traitsINS_9allocatorImEEE7destroyImvEEvRS2_PT_
FNDA:0,_ZNSt3__116allocator_traitsINS_9allocatorImEEE7destroyImvEEvRS2_PT_
FN:307,_ZNSt3__116allocator_traitsINS_9allocatorIN7testing12TestPropertyEEEE7destroyIS3_vEEvRS4_PT_
FNDA:0,_ZNSt3__116allocator_traitsINS_9allocatorIN7testing12TestPropertyEEEE7destroyIS3_vEEvRS4_PT_
FN:307,_ZNSt3__116allocator_traitsINS_9allocatorIPN7testing8TestInfoEEEE7destroyIS4_vEEvRS5_PT_
FNDA:360,_ZNSt3__116allocator_traitsINS_9allocatorIPN7testing8TestInfoEEEE7destroyIS4_vEEvRS5_PT_
FN:307,_ZNSt3__116allocator_traitsINS_9allocatorIiEEE7destroyIivEEvRS2_PT_
FNDA:162702,_ZNSt3__116allocator_traitsINS_9allocatorIiEEE7destroyIivEEvRS2_PT_
FN:307,_ZNSt3__116allocator_traitsINS_9allocatorIPN7testing17TestEventListenerEEEE7destroyIS4_vEEvRS5_PT_
FNDA:0,_ZNSt3__116allocator_traitsINS_9allocatorIPN7testing17TestEventListenerEEEE7destroyIS4_vEEvRS5_PT_
FN:307,_ZNSt3__116allocator_traitsINS_9allocatorIPN7testing11EnvironmentEEEE7destroyIS4_vEEvRS5_PT_
FNDA:0,_ZNSt3__116allocator_traitsINS_9allocatorIPN7testing11EnvironmentEEEE7destroyIS4_vEEvRS5_PT_
FN:307,_ZNSt3__116allocator_traitsINS_9allocatorIN7testing8internal9TraceInfoEEEE7destroyIS4_vEEvRS5_PT_
FNDA:0,_ZNSt3__116allocator_traitsINS_9allocatorIN7testing8internal9TraceInfoEEEE7destroyIS4_vEEvRS5_PT_
FN:307,_ZNSt3__116allocator_traitsINS_9allocatorIPN7testing9TestSuiteEEEE7destroyIS4_vEEvRS5_PT_
FNDA:20,_ZNSt3__116allocator_traitsINS_9allocatorIPN7testing9TestSuiteEEEE7destroyIS4_vEEvRS5_PT_
FN:315,_ZNSt3__116allocator_traitsINS_9allocatorINS_11__tree_nodeINS_12__value_typeINS_12basic_stringIcNS_11char_traitsIcEENS1_IcEEEEmEEPvEEEEE7destroyINS_4pairIKS8_mEEvvEEvRSC_PT_
FNDA:0,_ZNSt3__116allocator_traitsINS_9allocatorINS_11__tree_nodeINS_12__value_typeINS_12basic_stringIcNS_11char_traitsIcEENS1_IcEEEEmEEPvEEEEE7destroyINS_4pairIKS8_mEEvvEEvRSC_PT_
FN:315,_ZNSt3__116allocator_traitsINS_9allocatorINS_11__list_nodeINS_4pairIcPKcEEPvEEEEE7destroyIS6_vvEEvRS9_PT_
FNDA:0,_ZNSt3__116allocator_traitsINS_9allocatorINS_11__list_nodeINS_4pairIcPKcEEPvEEEEE7destroyIS6_vvEEvRS9_PT_
FN:315,_ZNSt3__116allocator_traitsINS_9allocatorINS_11__tree_nodeINS_12__value_typeINS_12basic_stringIcNS_11char_traitsIcEENS1_IcEEEEN7testing8internal34TypeParameterizedTestSuiteRegistry30TypeParameterizedTestSuiteInfoEEEPvEEEEE7destroyINS_4pairIKS8_SC_EEvvEEvRSG_PT_
FNDA:0,_ZNSt3__116allocator_traitsINS_9allocatorINS_11__tree_nodeINS_12__value_typeINS_12basic_stringIcNS_11char_traitsIcEENS1_IcEEEEN7testing8internal34TypeParameterizedTestSuiteRegistry30TypeParameterizedTestSuiteInfoEEEPvEEEEE7destroyINS_4pairIKS8_SC_EEvvEEvRSG_PT_
FN:315,_ZNSt3__116allocator_traitsINS_9allocatorINS_11__tree_nodeINS_12basic_stringIcNS_11char_traitsIcEENS1_IcEEEEPvEEEEE7destroyIS7_vvEEvRSA_PT_
FNDA:0,_ZNSt3__116allocator_traitsINS_9allocatorINS_11__tree_nodeINS_12basic_stringIcNS_11char_traitsIcEENS1_IcEEEEPvEEEEE7destroyIS7_vvEEvRSA_PT_
FN:326,_ZNSt3__116allocator_traitsINS_9allocatorINS_11__tree_nodeINS_12__value_typeINS_12basic_stringIcNS_11char_traitsIcEENS1_IcEEEEmEEPvEEEEE8max_sizeISC_vEEmRKSC_
FNDA:0,_ZNSt3__116allocator_traitsINS_9allocatorINS_11__tree_nodeINS_12__value_typeINS_12basic_stringIcNS_11char_traitsIcEENS1_IcEEEEmEEPvEEEEE8max_sizeISC_vEEmRKSC_
FN:326,_ZNSt3__116allocator_traitsINS_9allocatorINS_11__list_nodeINS_4pairIcPKcEEPvEEEEE8max_sizeIS9_vEEmRKS9_
FNDA:0,_ZNSt3__116allocator_traitsINS_9allocatorINS_11__list_nodeINS_4pairIcPKcEEPvEEEEE8max_sizeIS9_vEEmRKS9_
FN:326,_ZNSt3__116allocator_traitsINS_9allocatorINS_12basic_stringIcNS_11char_traitsIcEENS1_IcEEEEEEE8max_sizeIS7_vEEmRKS7_
FNDA:158,_ZNSt3__116allocator_traitsINS_9allocatorINS_12basic_stringIcNS_11char_traitsIcEENS1_IcEEEEEEE8max_sizeIS7_vEEmRKS7_
FN:326,_ZNSt3__116allocator_traitsINS_9allocatorIPcEEE8max_sizeIS3_vEEmRKS3_
FNDA:0,_ZNSt3__116allocator_traitsINS_9allocatorIPcEEE8max_sizeIS3_vEEmRKS3_
FN:326,_ZNSt3__116allocator_traitsINS_9allocatorIcEEE8max_sizeIS2_vEEmRKS2_
FNDA:0,_ZNSt3__116allocator_traitsINS_9allocatorIcEEE8max_sizeIS2_vEEmRKS2_
FN:326,_ZNSt3__116allocator_traitsINS_9allocatorINS_11__tree_nodeINS_12basic_stringIcNS_11char_traitsIcEENS1_IcEEEEPvEEEEE8max_sizeISA_vEEmRKSA_
FNDA:0,_ZNSt3__116allocator_traitsINS_9allocatorINS_11__tree_nodeINS_12basic_stringIcNS_11char_traitsIcEENS1_IcEEEEPvEEEEE8max_sizeISA_vEEmRKSA_
FN:326,_ZNSt3__116allocator_traitsINS_9allocatorINS_11__tree_nodeINS_12__value_typeINS_12basic_stringIcNS_11char_traitsIcEENS1_IcEEEEN7testing8internal34TypeParameterizedTestSuiteRegistry30TypeParameterizedTestSuiteInfoEEEPvEEEEE8max_sizeISG_vEEmRKSG_
FNDA:0,_ZNSt3__116allocator_traitsINS_9allocatorINS_11__tree_nodeINS_12__value_typeINS_12basic_stringIcNS_11char_traitsIcEENS1_IcEEEEN7testing8internal34TypeParameterizedTestSuiteRegistry30TypeParameterizedTestSuiteInfoEEEPvEEEEE8max_sizeISG_vEEmRKSG_
FN:326,_ZNSt3__116allocator_traitsINS_9allocatorIdEEE8max_sizeIS2_vEEmRKS2_
FNDA:0,_ZNSt3__116allocator_traitsINS_9allocatorIdEEE8max_sizeIS2_vEEmRKS2_
FN:326,_ZNSt3__116allocator_traitsINS_9allocatorINS_6vectorIdNS1_IdEEEEEEE8max_sizeIS5_vEEmRKS5_
FNDA:0,_ZNSt3__116allocator_traitsINS_9allocatorINS_6vectorIdNS1_IdEEEEEEE8max_sizeIS5_vEEmRKS5_
FN:326,_ZNSt3__116allocator_traitsINS_9allocatorIN7testing8internal13edit_distance8EditTypeEEEE8max_sizeIS6_vEEmRKS6_
FNDA:0,_ZNSt3__116allocator_traitsINS_9allocatorIN7testing8internal13edit_distance8EditTypeEEEE8max_sizeIS6_vEEmRKS6_
FN:326,_ZNSt3__116allocator_traitsINS_9allocatorINS_6vectorIN7testing8internal13edit_distance8EditTypeENS1_IS6_EEEEEEE8max_sizeIS9_vEEmRKS9_
FNDA:0,_ZNSt3__116allocator_traitsINS_9allocatorINS_6vectorIN7testing8internal13edit_distance8EditTypeENS1_IS6_EEEEEEE8max_sizeIS9_vEEmRKS9_
FN:326,_ZNSt3__116allocator_traitsINS_9allocatorImEEE8max_sizeIS2_vEEmRKS2_
FNDA:0,_ZNSt3__116allocator_traitsINS_9allocatorImEEE8max_sizeIS2_vEEmRKS2_
FN:326,_ZNSt3__116allocator_traitsINS_9allocatorIN7testing14TestPartResultEEEE8max_sizeIS4_vEEmRKS4_
FNDA:0,_ZNSt3__116allocator_traitsINS_9allocatorIN7testing14TestPartResultEEEE8max_sizeIS4_vEEmRKS4_
FN:326,_ZNSt3__116allocator_traitsINS_9allocatorIN7testing12TestPropertyEEEE8max_sizeIS4_vEEmRKS4_
FNDA:0,_ZNSt3__116allocator_traitsINS_9allocatorIN7testing12TestPropertyEEEE8max_sizeIS4_vEEmRKS4_
FN:326,_ZNSt3__116allocator_traitsINS_9allocatorIPN7testing8TestInfoEEEE8max_sizeIS5_vEEmRKS5_
FNDA:320,_ZNSt3__116allocator_traitsINS_9allocatorIPN7testing8TestInfoEEEE8max_sizeIS5_vEEmRKS5_
FN:326,_ZNSt3__116allocator_traitsINS_9allocatorIiEEE8max_sizeIS2_vEEmRKS2_
FNDA:3406,_ZNSt3__116allocator_traitsINS_9allocatorIiEEE8max_sizeIS2_vEEmRKS2_
FN:326,_ZNSt3__116allocator_traitsINS_9allocatorIPN7testing17TestEventListenerEEEE8max_sizeIS5_vEEmRKS5_
FNDA:40,_ZNSt3__116allocator_traitsINS_9allocatorIPN7testing17TestEventListenerEEEE8max_sizeIS5_vEEmRKS5_
FN:326,_ZNSt3__116allocator_traitsINS_9allocatorIPN7testing11EnvironmentEEEE8max_sizeIS5_vEEmRKS5_
FNDA:0,_ZNSt3__116allocator_traitsINS_9allocatorIPN7testing11EnvironmentEEEE8max_sizeIS5_vEEmRKS5_
FN:326,_ZNSt3__116allocator_traitsINS_9allocatorIN7testing8internal9TraceInfoEEEE8max_sizeIS5_vEEmRKS5_
FNDA:0,_ZNSt3__116allocator_traitsINS_9allocatorIN7testing8internal9TraceInfoEEEE8max_sizeIS5_vEEmRKS5_
FN:326,_ZNSt3__116allocator_traitsINS_9allocatorIPN7testing9TestSuiteEEEE8max_sizeIS5_vEEmRKS5_
FNDA:80,_ZNSt3__116allocator_traitsINS_9allocatorIPN7testing9TestSuiteEEEE8max_sizeIS5_vEEmRKS5_
FN:347,_ZNSt3__116allocator_traitsINS_9allocatorINS_12basic_stringIcNS_11char_traitsIcEENS1_IcEEEEEEE37select_on_container_copy_constructionIS7_vvEES7_RKS7_
FNDA:40,_ZNSt3__116allocator_traitsINS_9allocatorINS_12basic_stringIcNS_11char_traitsIcEENS1_IcEEEEEEE37select_on_container_copy_constructionIS7_vvEES7_RKS7_
FN:347,_ZNSt3__116allocator_traitsINS_9allocatorIdEEE37select_on_container_copy_constructionIS2_vvEES2_RKS2_
FNDA:0,_ZNSt3__116allocator_traitsINS_9allocatorIdEEE37select_on_container_copy_constructionIS2_vvEES2_RKS2_
FN:347,_ZNSt3__116allocator_traitsINS_9allocatorIN7testing8internal13edit_distance8EditTypeEEEE37select_on_container_copy_constructionIS6_vvEES6_RKS6_
FNDA:0,_ZNSt3__116allocator_traitsINS_9allocatorIN7testing8internal13edit_distance8EditTypeEEEE37select_on_container_copy_constructionIS6_vvEES6_RKS6_
DA:261,3705
DA:262,3705
DA:281,3185
DA:282,3185
DA:283,3185
DA:288,1036
DA:290,1036
DA:292,1036
DA:307,163199
DA:309,163199
DA:311,163199
DA:315,0
DA:319,0
DA:321,0
DA:326,4004
DA:328,4004
DA:347,40
DA:348,40
FNF:112
FNH:25
LF:18
LH:15
end_of_record
SF:/Users/dogukanarat/Desktop/Workspace/RocketLab/Binaries/Debug/Intermediate/_deps/googletest-src/googletest/include/gtest/internal/gtest-filepath.h
FN:62,_ZN7testing8internal8FilePathD1Ev
FNDA:20,_ZN7testing8internal8FilePathD1Ev
FN:62,_ZN7testing8internal8FilePathD2Ev
FNDA:20,_ZN7testing8internal8FilePathD2Ev
FN:64,_ZN7testing8internal8FilePathC1Ev
FNDA:20,_ZN7testing8internal8FilePathC1Ev
FN:64,_ZN7testing8internal8FilePathC2Ev
FNDA:20,_ZN7testing8internal8FilePathC2Ev
FN:65,_ZN7testing8internal8FilePathC1ERKS1_
FNDA:0,_ZN7testing8internal8FilePathC1ERKS1_
FN:65,_ZN7testing8internal8FilePathC2ERKS1_
FNDA:0,_ZN7testing8internal8FilePathC2ERKS1_
FN:67,_ZN7testing8internal8FilePathC1ERKNSt3__112basic_stringIcNS2_11char_traitsIcEENS2_9allocatorIcEEEE
FNDA:20,_ZN7testing8internal8FilePathC1ERKNSt3__112basic_stringIcNS2_11char_traitsIcEENS2_9allocatorIcEEEE
FN:67,_ZN7testing8internal8FilePathC2ERKNSt3__112basic_stringIcNS2_11char_traitsIcEENS2_9allocatorIcEEEE
FNDA:20,_ZN7testing8internal8FilePathC2ERKNSt3__112basic_stringIcNS2_11char_traitsIcEENS2_9allocatorIcEEEE
FN:71,_ZN7testing8internal8FilePathaSERKS1_
FNDA:0,_ZN7testing8internal8FilePathaSERKS1_
FN:76,_ZN7testing8internal8FilePath3SetERKS1_
FNDA:20,_ZN7testing8internal8FilePath3SetERKS1_
FN:80,_ZNK7testing8internal8FilePath6stringEv
FNDA:0,_ZNK7testing8internal8FilePath6stringEv
FN:81,_ZNK7testing8internal8FilePath5c_strEv
FNDA:0,_ZNK7testing8internal8FilePath5c_strEv
FN:114,_ZNK7testing8internal8FilePath7IsEmptyEv
FNDA:400,_ZNK7testing8internal8FilePath7IsEmptyEv
DA:64,40
DA:65,0
DA:67,40
DA:68,20
DA:69,40
DA:71,0
DA:72,0
DA:73,0
DA:76,20
DA:77,20
DA:78,20
DA:80,0
DA:81,0
DA:114,400
FNF:13
FNH:8
LF:14
LH:8
end_of_record
SF:/Library/Developer/CommandLineTools/SDKs/MacOSX12.3.sdk/usr/include/c++/v1/__algorithm/find_if.h
FN:26,_ZNSt3__1L7find_ifINS_11__wrap_iterIPN7testing12TestPropertyEEENS2_8internal17TestPropertyKeyIsEEET_S8_S8_T0_
FNDA:0,_ZNSt3__1L7find_ifINS_11__wrap_iterIPN7testing12TestPropertyEEENS2_8internal17TestPropertyKeyIsEEET_S8_S8_T0_
FN:26,_ZNSt3__1L7find_ifINS_16reverse_iteratorINS_11__wrap_iterIPPN7testing9TestSuiteEEEEENS3_8internal15TestSuiteNameIsEEET_SB_SB_T0_
FNDA:380,_ZNSt3__1L7find_ifINS_16reverse_iteratorINS_11__wrap_iterIPPN7testing9TestSuiteEEEEENS3_8internal15TestSuiteNameIsEEET_SB_SB_T0_
DA:26,380
DA:27,400
DA:28,360
DA:29,340
DA:30,380
FNF:2
FNH:1
LF:5
LH:5
end_of_record
SF:/Users/dogukanarat/Desktop/Workspace/RocketLab/Binaries/Debug/Intermediate/_deps/googletest-src/googletest/src/gtest-all.cc
FN:0,__cxx_global_var_init
FNDA:20,__cxx_global_var_init
FN:0,__cxx_global_var_init.1
FNDA:20,__cxx_global_var_init.1
FN:0,__cxx_global_var_init.3
FNDA:20,__cxx_global_var_init.3
FN:0,__cxx_global_var_init.5
FNDA:20,__cxx_global_var_init.5
FN:0,__cxx_global_var_init.7
FNDA:20,__cxx_global_var_init.7
FN:0,__cxx_global_var_init.10
FNDA:20,__cxx_global_var_init.10
FN:0,__cxx_global_var_init.12
FNDA:20,__cxx_global_var_init.12
FN:0,__cxx_global_var_init.14
FNDA:20,__cxx_global_var_init.14
FN:0,__cxx_global_var_init.16
FNDA:20,__cxx_global_var_init.16
FN:0,__cxx_global_var_init.18
FNDA:20,__cxx_global_var_init.18
FN:0,__cxx_global_var_init.20
FNDA:20,__cxx_global_var_init.20
FN:0,__cxx_global_var_init.22
FNDA:20,__cxx_global_var_init.22
FN:0,__cxx_global_var_init.24
FNDA:20,__cxx_global_var_init.24
FN:0,__cxx_global_var_init.26
FNDA:20,__cxx_global_var_init.26
FN:0,__cxx_global_var_init.28
FNDA:20,__cxx_global_var_init.28
FN:0,__cxx_global_var_init.30
FNDA:20,__cxx_global_var_init.30
FN:0,__cxx_global_var_init.33
FNDA:20,__cxx_global_var_init.33
FN:0,__cxx_global_var_init.35
FNDA:20,__cxx_global_var_init.35
FN:0,__cxx_global_var_init.56
FNDA:20,__cxx_global_var_init.56
FN:0,__cxx_global_var_init.58
FNDA:20,__cxx_global_var_init.58
FN:0,__cxx_global_var_init.296
FNDA:20,__cxx_global_var_init.296
FN:0,__cxx_global_var_init.298
FNDA:20,__cxx_global_var_init.298
FN:0,__cxx_global_var_init.300
FNDA:20,__cxx_global_var_init.300
FN:0,__cxx_global_var_init.303
FNDA:20,__cxx_global_var_init.303
DA:99,20
DA:108,20
DA:121,20
DA:219,20
DA:223,20
DA:228,20
DA:233,20
DA:238,20
DA:246,20
DA:255,20
DA:270,20
DA:283,20
DA:287,20
DA:291,20
DA:295,20
DA:301,20
DA:312,20
DA:316,20
DA:322,20
DA:329,20
DA:337,20
DA:395,20
DA:578,20
DA:853,20
FNF:24
FNH:24
LF:24
LH:24
end_of_record
SF:/Users/dogukanarat/Desktop/Workspace/RocketLab/Binaries/Debug/Intermediate/_deps/googletest-src/googletest/src/gtest-death-test.cc
FN:146,_ZN7testing8internal16InDeathTestChildEv
FNDA:0,_ZN7testing8internal16InDeathTestChildEv
FN:165,_ZN7testing14ExitedWithCodeC2Ei
FNDA:0,_ZN7testing14ExitedWithCodeC2Ei
FN:165,_ZN7testing14ExitedWithCodeC1Ei
FNDA:0,_ZN7testing14ExitedWithCodeC1Ei
FN:169,_ZNK7testing14ExitedWithCodeclEi
FNDA:0,_ZNK7testing14ExitedWithCodeclEi
FN:183,_ZN7testing14KilledBySignalC2Ei
FNDA:0,_ZN7testing14KilledBySignalC2Ei
FN:183,_ZN7testing14KilledBySignalC1Ei
FNDA:0,_ZN7testing14KilledBySignalC1Ei
FN:187,_ZNK7testing14KilledBySignalclEi
FNDA:0,_ZNK7testing14KilledBySignalclEi
FN:206,_ZN7testing8internalL11ExitSummaryEi
FNDA:0,_ZN7testing8internalL11ExitSummaryEi
FN:232,_ZN7testing8internal20ExitedUnsuccessfullyEi
FNDA:0,_ZN7testing8internal20ExitedUnsuccessfullyEi
FN:241,_ZN7testing8internalL22DeathTestThreadWarningEm
FNDA:0,_ZN7testing8internalL22DeathTestThreadWarningEm
FN:286,_ZN7testing8internalL14DeathTestAbortERKNSt3__112basic_stringIcNS1_11char_traitsIcEENS1_9allocatorIcEEEE
FNDA:0,_ZN7testing8internalL14DeathTestAbortERKNSt3__112basic_stringIcNS1_11char_traitsIcEENS1_9allocatorIcEEEE
FN:339,_ZN7testing8internal23GetLastErrnoDescriptionEv
FNDA:0,_ZN7testing8internal23GetLastErrnoDescriptionEv
FN:347,_ZN7testing8internalL21FailFromInternalErrorEi
FNDA:0,_ZN7testing8internalL21FailFromInternalErrorEi
FN:370,_ZN7testing8internal9DeathTestC2Ev
FNDA:0,_ZN7testing8internal9DeathTestC2Ev
FN:380,_ZN7testing8internal9DeathTest6CreateEPKcNS_7MatcherIRKNSt3__112basic_stringIcNS5_11char_traitsIcEENS5_9allocatorIcEEEEEES3_iPPS1_
FNDA:0,_ZN7testing8internal9DeathTest6CreateEPKcNS_7MatcherIRKNSt3__112basic_stringIcNS5_11char_traitsIcEENS5_9allocatorIcEEEEEES3_iPPS1_
FN:387,_ZN7testing8internal9DeathTest11LastMessageEv
FNDA:0,_ZN7testing8internal9DeathTest11LastMessageEv
FN:391,_ZN7testing8internal9DeathTest27set_last_death_test_messageERKNSt3__112basic_stringIcNS2_11char_traitsIcEENS2_9allocatorIcEEEE
FNDA:0,_ZN7testing8internal9DeathTest27set_last_death_test_messageERKNSt3__112basic_stringIcNS2_11char_traitsIcEENS2_9allocatorIcEEEE
FN:400,_ZN7testing8internal13DeathTestImplC2EPKcNS_7MatcherIRKNSt3__112basic_stringIcNS5_11char_traitsIcEENS5_9allocatorIcEEEEEE
FNDA:0,_ZN7testing8internal13DeathTestImplC2EPKcNS_7MatcherIRKNSt3__112basic_stringIcNS5_11char_traitsIcEENS5_9allocatorIcEEEEEE
FN:410,_ZN7testing8internal13DeathTestImplD1Ev
FNDA:0,_ZN7testing8internal13DeathTestImplD1Ev
FN:410,_ZN7testing8internal13DeathTestImplD0Ev
FNDA:0,_ZN7testing8internal13DeathTestImplD0Ev
FN:410,_ZN7testing8internal13DeathTestImplD2Ev
FNDA:0,_ZN7testing8internal13DeathTestImplD2Ev
FN:415,_ZNK7testing8internal13DeathTestImpl9statementEv
FNDA:0,_ZNK7testing8internal13DeathTestImpl9statementEv
FN:416,_ZNK7testing8internal13DeathTestImpl7spawnedEv
FNDA:0,_ZNK7testing8internal13DeathTestImpl7spawnedEv
FN:417,_ZN7testing8internal13DeathTestImpl11set_spawnedEb
FNDA:0,_ZN7testing8internal13DeathTestImpl11set_spawnedEb
FN:418,_ZNK7testing8internal13DeathTestImpl6statusEv
FNDA:0,_ZNK7testing8internal13DeathTestImpl6statusEv
FN:419,_ZN7testing8internal13DeathTestImpl10set_statusEi
FNDA:0,_ZN7testing8internal13DeathTestImpl10set_statusEi
FN:420,_ZNK7testing8internal13DeathTestImpl7outcomeEv
FNDA:0,_ZNK7testing8internal13DeathTestImpl7outcomeEv
FN:421,_ZN7testing8internal13DeathTestImpl11set_outcomeENS0_16DeathTestOutcomeE
FNDA:0,_ZN7testing8internal13DeathTestImpl11set_outcomeENS0_16DeathTestOutcomeE
FN:422,_ZNK7testing8internal13DeathTestImpl7read_fdEv
FNDA:0,_ZNK7testing8internal13DeathTestImpl7read_fdEv
FN:423,_ZN7testing8internal13DeathTestImpl11set_read_fdEi
FNDA:0,_ZN7testing8internal13DeathTestImpl11set_read_fdEi
FN:424,_ZNK7testing8internal13DeathTestImpl8write_fdEv
FNDA:0,_ZNK7testing8internal13DeathTestImpl8write_fdEv
FN:425,_ZN7testing8internal13DeathTestImpl12set_write_fdEi
FNDA:0,_ZN7testing8internal13DeathTestImpl12set_write_fdEi
FN:462,_ZN7testing8internal13DeathTestImpl26ReadAndInterpretStatusByteEv
FNDA:0,_ZN7testing8internal13DeathTestImpl26ReadAndInterpretStatusByteEv
FN:503,_ZN7testing8internal13DeathTestImpl12GetErrorLogsEv
FNDA:0,_ZN7testing8internal13DeathTestImpl12GetErrorLogsEv
FN:511,_ZN7testing8internal13DeathTestImpl5AbortENS0_9DeathTest11AbortReasonE
FNDA:0,_ZN7testing8internal13DeathTestImpl5AbortENS0_9DeathTest11AbortReasonE
FN:534,_ZN7testing8internalL21FormatDeathTestOutputERKNSt3__112basic_stringIcNS1_11char_traitsIcEENS1_9allocatorIcEEEE
FNDA:0,_ZN7testing8internalL21FormatDeathTestOutputERKNSt3__112basic_stringIcNS1_11char_traitsIcEENS1_9allocatorIcEEEE
FN:570,_ZN7testing8internal13DeathTestImpl6PassedEb
FNDA:0,_ZN7testing8internal13DeathTestImpl6PassedEb
FN:1072,_ZN7testing8internal16ForkingDeathTestD1Ev
FNDA:0,_ZN7testing8internal16ForkingDeathTestD1Ev
FN:1072,_ZN7testing8internal16ForkingDeathTestD0Ev
FNDA:0,_ZN7testing8internal16ForkingDeathTestD0Ev
FN:1072,_ZN7testing8internal16ForkingDeathTestD2Ev
FNDA:0,_ZN7testing8internal16ForkingDeathTestD2Ev
FN:1080,_ZN7testing8internal16ForkingDeathTest13set_child_pidEi
FNDA:0,_ZN7testing8internal16ForkingDeathTest13set_child_pidEi
FN:1088,_ZN7testing8internal16ForkingDeathTestC2EPKcNS_7MatcherIRKNSt3__112basic_stringIcNS5_11char_traitsIcEENS5_9allocatorIcEEEEEE
FNDA:0,_ZN7testing8internal16ForkingDeathTestC2EPKcNS_7MatcherIRKNSt3__112basic_stringIcNS5_11char_traitsIcEENS5_9allocatorIcEEEEEE
FN:1095,_ZN7testing8internal16ForkingDeathTest4WaitEv
FNDA:0,_ZN7testing8internal16ForkingDeathTest4WaitEv
FN:1109,_ZN7testing8internal15NoExecDeathTestD1Ev
FNDA:0,_ZN7testing8internal15NoExecDeathTestD1Ev
FN:1109,_ZN7testing8internal15NoExecDeathTestD0Ev
FNDA:0,_ZN7testing8internal15NoExecDeathTestD0Ev
FN:1109,_ZN7testing8internal15NoExecDeathTestD2Ev
FNDA:0,_ZN7testing8internal15NoExecDeathTestD2Ev
FN:1111,_ZN7testing8internal15NoExecDeathTestC1EPKcNS_7MatcherIRKNSt3__112basic_stringIcNS5_11char_traitsIcEENS5_9allocatorIcEEEEEE
FNDA:0,_ZN7testing8internal15NoExecDeathTestC1EPKcNS_7MatcherIRKNSt3__112basic_stringIcNS5_11char_traitsIcEENS5_9allocatorIcEEEEEE
FN:1111,_ZN7testing8internal15NoExecDeathTestC2EPKcNS_7MatcherIRKNSt3__112basic_stringIcNS5_11char_traitsIcEENS5_9allocatorIcEEEEEE
FNDA:0,_ZN7testing8internal15NoExecDeathTestC2EPKcNS_7MatcherIRKNSt3__112basic_stringIcNS5_11char_traitsIcEENS5_9allocatorIcEEEEEE
FN:1118,_ZN7testing8internal15NoExecDeathTest10AssumeRoleEv
FNDA:0,_ZN7testing8internal15NoExecDeathTest10AssumeRoleEv
FN:1164,_ZN7testing8internal13ExecDeathTestD1Ev
FNDA:0,_ZN7testing8internal13ExecDeathTestD1Ev
FN:1164,_ZN7testing8internal13ExecDeathTestD0Ev
FNDA:0,_ZN7testing8internal13ExecDeathTestD0Ev
FN:1164,_ZN7testing8internal13ExecDeathTestD2Ev
FNDA:0,_ZN7testing8internal13ExecDeathTestD2Ev
FN:1166,_ZN7testing8internal13ExecDeathTestC1EPKcNS_7MatcherIRKNSt3__112basic_stringIcNS5_11char_traitsIcEENS5_9allocatorIcEEEEEES3_i
FNDA:0,_ZN7testing8internal13ExecDeathTestC1EPKcNS_7MatcherIRKNSt3__112basic_stringIcNS5_11char_traitsIcEENS5_9allocatorIcEEEEEES3_i
FN:1166,_ZN7testing8internal13ExecDeathTestC2EPKcNS_7MatcherIRKNSt3__112basic_stringIcNS5_11char_traitsIcEENS5_9allocatorIcEEEEEES3_i
FNDA:0,_ZN7testing8internal13ExecDeathTestC2EPKcNS_7MatcherIRKNSt3__112basic_stringIcNS5_11char_traitsIcEENS5_9allocatorIcEEEEEES3_i
FN:1174,_ZN7testing8internal13ExecDeathTest32GetArgvsForDeathTestChildProcessEv
FNDA:0,_ZN7testing8internal13ExecDeathTest32GetArgvsForDeathTestChildProcessEv
FN:1192,_ZN7testing8internal9ArgumentsC1Ev
FNDA:0,_ZN7testing8internal9ArgumentsC1Ev
FN:1192,_ZN7testing8internal9ArgumentsC2Ev
FNDA:0,_ZN7testing8internal9ArgumentsC2Ev
FN:1194,_ZN7testing8internal9ArgumentsD1Ev
FNDA:0,_ZN7testing8internal9ArgumentsD1Ev
FN:1194,_ZN7testing8internal9ArgumentsD2Ev
FNDA:0,_ZN7testing8internal9ArgumentsD2Ev
FN:1200,_ZN7testing8internal9Arguments11AddArgumentEPKc
FNDA:0,_ZN7testing8internal9Arguments11AddArgumentEPKc
FN:1205,_ZN7testing8internal9Arguments12AddArgumentsINSt3__112basic_stringIcNS3_11char_traitsIcEENS3_9allocatorIcEEEEEEvRKNS3_6vectorIT_NS7_ISB_EEEE
FNDA:0,_ZN7testing8internal9Arguments12AddArgumentsINSt3__112basic_stringIcNS3_11char_traitsIcEENS3_9allocatorIcEEEEEEvRKNS3_6vectorIT_NS7_ISB_EEEE
FN:1212,_ZN7testing8internal9Arguments4ArgvEv
FNDA:0,_ZN7testing8internal9Arguments4ArgvEv
FN:1233,_ZN7testing8internalL22ExecDeathTestChildMainEPv
FNDA:0,_ZN7testing8internalL22ExecDeathTestChildMainEPv
FN:1305,_ZN7testing8internalL23ExecDeathTestSpawnChildEPKPci
FNDA:0,_ZN7testing8internalL23ExecDeathTestSpawnChildEPKPci
FN:1404,_ZN7testing8internal13ExecDeathTest10AssumeRoleEv
FNDA:0,_ZN7testing8internal13ExecDeathTest10AssumeRoleEv
FN:1457,_ZN7testing8internal23DefaultDeathTestFactory6CreateEPKcNS_7MatcherIRKNSt3__112basic_stringIcNS5_11char_traitsIcEENS5_9allocatorIcEEEEEES3_iPPNS0_9DeathTestE
FNDA:0,_ZN7testing8internal23DefaultDeathTestFactory6CreateEPKcNS_7MatcherIRKNSt3__112basic_stringIcNS5_11char_traitsIcEENS5_9allocatorIcEEEEEES3_iPPNS0_9DeathTestE
FN:1586,_ZN7testing8internal29ParseInternalRunDeathTestFlagEv
FNDA:20,_ZN7testing8internal29ParseInternalRunDeathTestFlagEv
DA:146,0
DA:155,0
DA:156,0
DA:158,0
DA:160,0
DA:165,0
DA:166,0
DA:169,0
DA:176,0
DA:183,0
DA:184,0
DA:187,0
DA:196,0
DA:206,0
DA:207,0
DA:215,0
DA:216,0
DA:217,0
DA:218,0
DA:219,0
DA:221,0
DA:222,0
DA:223,0
DA:227,0
DA:228,0
DA:232,0
DA:233,0
DA:241,0
DA:242,0
DA:243,0
DA:244,0
DA:245,0
DA:246,0
DA:247,0
DA:248,0
DA:250,0
DA:253,0
DA:254,0
DA:255,0
DA:256,0
DA:286,0
DA:290,0
DA:291,0
DA:292,0
DA:293,0
DA:294,0
DA:295,0
DA:296,0
DA:297,0
DA:299,0
DA:300,0
DA:301,0
DA:339,0
DA:340,0
DA:347,0
DA:348,0
DA:352,0
DA:353,0
DA:354,0
DA:355,0
DA:357,0
DA:359,0
DA:360,0
DA:361,0
DA:362,0
DA:363,0
DA:364,0
DA:366,0
DA:370,0
DA:371,0
DA:372,0
DA:373,0
DA:375,0
DA:376,0
DA:380,0
DA:383,0
DA:384,0
DA:385,0
DA:387,0
DA:388,0
DA:391,0
DA:392,0
DA:393,0
DA:400,0
DA:401,0
DA:402,0
DA:403,0
DA:404,0
DA:405,0
DA:406,0
DA:407,0
DA:410,0
DA:415,0
DA:416,0
DA:417,0
DA:418,0
DA:419,0
DA:420,0
DA:421,0
DA:422,0
DA:423,0
DA:424,0
DA:425,0
DA:462,0
DA:470,0
DA:471,0
DA:472,0
DA:474,0
DA:475,0
DA:476,0
DA:477,0
DA:479,0
DA:480,0
DA:482,0
DA:483,0
DA:485,0
DA:486,0
DA:488,0
DA:489,0
DA:491,0
DA:492,0
DA:493,0
DA:494,0
DA:495,0
DA:496,0
DA:497,0
DA:499,0
DA:500,0
DA:501,0
DA:503,0
DA:504,0
DA:511,0
DA:515,0
DA:516,0
DA:517,0
DA:519,0
DA:528,0
DA:529,0
DA:534,0
DA:535,0
DA:536,0
DA:537,0
DA:538,0
DA:539,0
DA:540,0
DA:541,0
DA:543,0
DA:544,0
DA:546,0
DA:547,0
DA:570,0
DA:571,0
DA:572,0
DA:574,0
DA:576,0
DA:577,0
DA:579,0
DA:580,0
DA:582,0
DA:583,0
DA:584,0
DA:586,0
DA:587,0
DA:588,0
DA:590,0
DA:591,0
DA:592,0
DA:594,0
DA:595,0
DA:596,0
DA:597,0
DA:598,0
DA:599,0
DA:600,0
DA:601,0
DA:602,0
DA:603,0
DA:604,0
DA:605,0
DA:606,0
DA:607,0
DA:608,0
DA:610,0
DA:611,0
DA:613,0
DA:614,0
DA:615,0
DA:617,0
DA:618,0
DA:619,0
DA:1080,0
DA:1088,0
DA:1090,0
DA:1095,0
DA:1096,0
DA:1097,0
DA:1099,0
DA:1102,0
DA:1103,0
DA:1104,0
DA:1105,0
DA:1111,0
DA:1112,0
DA:1118,0
DA:1119,0
DA:1120,0
DA:1121,0
DA:1122,0
DA:1125,0
DA:1127,0
DA:1128,0
DA:1136,0
DA:1138,0
DA:1139,0
DA:1140,0
DA:1141,0
DA:1142,0
DA:1143,0
DA:1147,0
DA:1150,0
DA:1151,0
DA:1152,0
DA:1154,0
DA:1155,0
DA:1156,0
DA:1157,0
DA:1159,0
DA:1166,0
DA:1168,0
DA:1169,0
DA:1170,0
DA:1174,0
DA:1175,0
DA:1181,0
DA:1182,0
DA:1192,0
DA:1194,0
DA:1195,0
DA:1196,0
DA:1197,0
DA:1198,0
DA:1199,0
DA:1200,0
DA:1201,0
DA:1202,0
DA:1205,0
DA:1206,0
DA:1207,0
DA:1208,0
DA:1209,0
DA:1210,0
DA:1211,0
DA:1212,0
DA:1213,0
DA:1233,0
DA:1234,0
DA:1235,0
DA:1240,0
DA:1241,0
DA:1243,0
DA:1244,0
DA:1245,0
DA:1246,0
DA:1254,0
DA:1255,0
DA:1256,0
DA:1257,0
DA:1258,0
DA:1259,0
DA:1305,0
DA:1306,0
DA:1307,0
DA:1383,0
DA:1386,0
DA:1387,0
DA:1388,0
DA:1396,0
DA:1397,0
DA:1398,0
DA:1404,0
DA:1405,0
DA:1406,0
DA:1407,0
DA:1408,0
DA:1409,0
DA:1411,0
DA:1412,0
DA:1413,0
DA:1417,0
DA:1420,0
DA:1422,0
DA:1423,0
DA:1424,0
DA:1426,0
DA:1427,0
DA:1428,0
DA:1429,0
DA:1430,0
DA:1431,0
DA:1432,0
DA:1433,0
DA:1435,0
DA:1437,0
DA:1440,0
DA:1442,0
DA:1443,0
DA:1444,0
DA:1445,0
DA:1446,0
DA:1447,0
DA:1448,0
DA:1457,0
DA:1461,0
DA:1462,0
DA:1463,0
DA:1464,0
DA:1465,0
DA:1467,0
DA:1468,0
DA:1469,0
DA:1470,0
DA:1471,0
DA:1472,0
DA:1473,0
DA:1476,0
DA:1477,0
DA:1478,0
DA:1479,0
DA:1481,0
DA:1499,0
DA:1500,0
DA:1501,0
DA:1502,0
DA:1503,0
DA:1508,0
DA:1509,0
DA:1510,0
DA:1511,0
DA:1514,0
DA:1515,0
DA:1586,20
DA:1587,20
DA:1591,0
DA:1592,0
DA:1593,0
DA:1594,0
DA:1595,0
DA:1627,0
DA:1628,0
DA:1629,0
DA:1630,0
DA:1631,0
DA:1632,0
DA:1633,0
DA:1637,0
DA:1638,20
FNF:67
FNH:1
LF:356
LH:3
end_of_record
SF:/Users/dogukanarat/Desktop/Workspace/RocketLab/Binaries/Debug/Intermediate/_deps/googletest-src/googletest/include/gtest/gtest-matchers.h
FN:78,_ZN7testing19MatchResultListenerC2EPNSt3__113basic_ostreamIcNS1_11char_traitsIcEEEE
FNDA:0,_ZN7testing19MatchResultListenerC2EPNSt3__113basic_ostreamIcNS1_11char_traitsIcEEEE
FN:90,_ZN7testing19MatchResultListener6streamEv
FNDA:0,_ZN7testing19MatchResultListener6streamEv
FN:104,_ZN7testing19MatchResultListenerD2Ev
FNDA:0,_ZN7testing19MatchResultListenerD2Ev
FN:109,_ZN7testing25MatcherDescriberInterfaceC2Ev
FNDA:0,_ZN7testing25MatcherDescriberInterfaceC2Ev
FN:111,_ZN7testing25MatcherDescriberInterfaceD1Ev
FNDA:0,_ZN7testing25MatcherDescriberInterfaceD1Ev
FN:111,_ZN7testing25MatcherDescriberInterfaceD0Ev
FNDA:0,_ZN7testing25MatcherDescriberInterfaceD0Ev
FN:111,_ZN7testing25MatcherDescriberInterfaceD2Ev
FNDA:0,_ZN7testing25MatcherDescriberInterfaceD2Ev
FN:126,_ZNK7testing25MatcherDescriberInterface18DescribeNegationToEPNSt3__113basic_ostreamIcNS1_11char_traitsIcEEEE
FNDA:0,_ZNK7testing25MatcherDescriberInterface18DescribeNegationToEPNSt3__113basic_ostreamIcNS1_11char_traitsIcEEEE
FN:179,_ZNK7testing8internal5AnyEqclINSt3__112basic_stringIcNS3_11char_traitsIcEENS3_9allocatorIcEEEES9_EEbRKT_RKT0_
FNDA:0,_ZNK7testing8internal5AnyEqclINSt3__112basic_stringIcNS3_11char_traitsIcEENS3_9allocatorIcEEEES9_EEbRKT_RKT0_
FN:179,_ZNK7testing8internal5AnyEqclINSt3__117basic_string_viewIcNS3_11char_traitsIcEEEENS3_12basic_stringIcS6_NS3_9allocatorIcEEEEEEbRKT_RKT0_
FNDA:0,_ZNK7testing8internal5AnyEqclINSt3__117basic_string_viewIcNS3_11char_traitsIcEEEENS3_12basic_stringIcS6_NS3_9allocatorIcEEEEEEbRKT_RKT0_
FN:203,_ZN7testing8internal24DummyMatchResultListenerD1Ev
FNDA:0,_ZN7testing8internal24DummyMatchResultListenerD1Ev
FN:203,_ZN7testing8internal24DummyMatchResultListenerD0Ev
FNDA:0,_ZN7testing8internal24DummyMatchResultListenerD0Ev
FN:203,_ZN7testing8internal24DummyMatchResultListenerD2Ev
FNDA:0,_ZN7testing8internal24DummyMatchResultListenerD2Ev
FN:205,_ZN7testing8internal24DummyMatchResultListenerC1Ev
FNDA:0,_ZN7testing8internal24DummyMatchResultListenerC1Ev
FN:205,_ZN7testing8internal24DummyMatchResultListenerC2Ev
FNDA:0,_ZN7testing8internal24DummyMatchResultListenerC2Ev
FN:223,_ZN7testing8internal17SharedPayloadBaseC2Ev
FNDA:0,_ZN7testing8internal17SharedPayloadBaseC2Ev
FN:226,_ZN7testing8internal17SharedPayloadBase5UnrefEv
FNDA:0,_ZN7testing8internal17SharedPayloadBase5UnrefEv
FN:230,_ZN7testing8internal13SharedPayloadINS0_9EqMatcherINSt3__112basic_stringIcNS3_11char_traitsIcEENS3_9allocatorIcEEEEEEED1Ev
FNDA:0,_ZN7testing8internal13SharedPayloadINS0_9EqMatcherINSt3__112basic_stringIcNS3_11char_traitsIcEENS3_9allocatorIcEEEEEEED1Ev
FN:230,_ZN7testing8internal13SharedPayloadINS0_9EqMatcherINSt3__112basic_stringIcNS3_11char_traitsIcEENS3_9allocatorIcEEEEEEED2Ev
FNDA:0,_ZN7testing8internal13SharedPayloadINS0_9EqMatcherINSt3__112basic_stringIcNS3_11char_traitsIcEENS3_9allocatorIcEEEEEEED2Ev
FN:232,_ZN7testing8internal13SharedPayloadINS0_9EqMatcherINSt3__112basic_stringIcNS3_11char_traitsIcEENS3_9allocatorIcEEEEEEEC1EOSA_
FNDA:0,_ZN7testing8internal13SharedPayloadINS0_9EqMatcherINSt3__112basic_stringIcNS3_11char_traitsIcEENS3_9allocatorIcEEEEEEEC1EOSA_
FN:232,_ZN7testing8internal13SharedPayloadINS0_9EqMatcherINSt3__112basic_stringIcNS3_11char_traitsIcEENS3_9allocatorIcEEEEEEEC2EOSA_
FNDA:0,_ZN7testing8internal13SharedPayloadINS0_9EqMatcherINSt3__112basic_stringIcNS3_11char_traitsIcEENS3_9allocatorIcEEEEEEEC2EOSA_
FN:234,_ZN7testing8internal13SharedPayloadINS0_9EqMatcherINSt3__112basic_stringIcNS3_11char_traitsIcEENS3_9allocatorIcEEEEEEE7DestroyEPNS0_17SharedPayloadBaseE
FNDA:0,_ZN7testing8internal13SharedPayloadINS0_9EqMatcherINSt3__112basic_stringIcNS3_11char_traitsIcEENS3_9allocatorIcEEEEEEE7DestroyEPNS0_17SharedPayloadBaseE
FN:249,_ZNK7testing8internal11MatcherBaseIRKNSt3__112basic_stringIcNS2_11char_traitsIcEENS2_9allocatorIcEEEEE15MatchAndExplainESA_PNS_19MatchResultListenerE
FNDA:0,_ZNK7testing8internal11MatcherBaseIRKNSt3__112basic_stringIcNS2_11char_traitsIcEENS2_9allocatorIcEEEEE15MatchAndExplainESA_PNS_19MatchResultListenerE
FN:255,_ZNK7testing8internal11MatcherBaseIRKNSt3__112basic_stringIcNS2_11char_traitsIcEENS2_9allocatorIcEEEEE7MatchesESA_
FNDA:0,_ZNK7testing8internal11MatcherBaseIRKNSt3__112basic_stringIcNS2_11char_traitsIcEENS2_9allocatorIcEEEEE7MatchesESA_
FN:261,_ZNK7testing8internal11MatcherBaseIRKNSt3__112basic_stringIcNS2_11char_traitsIcEENS2_9allocatorIcEEEEE10DescribeToEPNS2_13basic_ostreamIcS5_EE
FNDA:0,_ZNK7testing8internal11MatcherBaseIRKNSt3__112basic_stringIcNS2_11char_traitsIcEENS2_9allocatorIcEEEEE10DescribeToEPNS2_13basic_ostreamIcS5_EE
FN:261,_ZNK7testing8internal11MatcherBaseINSt3__112basic_stringIcNS2_11char_traitsIcEENS2_9allocatorIcEEEEE10DescribeToEPNS2_13basic_ostreamIcS5_EE
FNDA:0,_ZNK7testing8internal11MatcherBaseINSt3__112basic_stringIcNS2_11char_traitsIcEENS2_9allocatorIcEEEEE10DescribeToEPNS2_13basic_ostreamIcS5_EE
FN:261,_ZNK7testing8internal11MatcherBaseIRKNSt3__117basic_string_viewIcNS2_11char_traitsIcEEEEE10DescribeToEPNS2_13basic_ostreamIcS5_EE
FNDA:0,_ZNK7testing8internal11MatcherBaseIRKNSt3__117basic_string_viewIcNS2_11char_traitsIcEEEEE10DescribeToEPNS2_13basic_ostreamIcS5_EE
FN:261,_ZNK7testing8internal11MatcherBaseINSt3__117basic_string_viewIcNS2_11char_traitsIcEEEEE10DescribeToEPNS2_13basic_ostreamIcS5_EE
FNDA:0,_ZNK7testing8internal11MatcherBaseINSt3__117basic_string_viewIcNS2_11char_traitsIcEEEEE10DescribeToEPNS2_13basic_ostreamIcS5_EE
FN:267,_ZNK7testing8internal11MatcherBaseIRKNSt3__112basic_stringIcNS2_11char_traitsIcEENS2_9allocatorIcEEEEE18DescribeNegationToEPNS2_13basic_ostreamIcS5_EE
FNDA:0,_ZNK7testing8internal11MatcherBaseIRKNSt3__112basic_stringIcNS2_11char_traitsIcEENS2_9allocatorIcEEEEE18DescribeNegationToEPNS2_13basic_ostreamIcS5_EE
FN:267,_ZNK7testing8internal11MatcherBaseINSt3__112basic_stringIcNS2_11char_traitsIcEENS2_9allocatorIcEEEEE18DescribeNegationToEPNS2_13basic_ostreamIcS5_EE
FNDA:0,_ZNK7testing8internal11MatcherBaseINSt3__112basic_stringIcNS2_11char_traitsIcEENS2_9allocatorIcEEEEE18DescribeNegationToEPNS2_13basic_ostreamIcS5_EE
FN:267,_ZNK7testing8internal11MatcherBaseIRKNSt3__117basic_string_viewIcNS2_11char_traitsIcEEEEE18DescribeNegationToEPNS2_13basic_ostreamIcS5_EE
FNDA:0,_ZNK7testing8internal11MatcherBaseIRKNSt3__117basic_string_viewIcNS2_11char_traitsIcEEEEE18DescribeNegationToEPNS2_13basic_ostreamIcS5_EE
FN:267,_ZNK7testing8internal11MatcherBaseINSt3__117basic_string_viewIcNS2_11char_traitsIcEEEEE18DescribeNegationToEPNS2_13basic_ostreamIcS5_EE
FNDA:0,_ZNK7testing8internal11MatcherBaseINSt3__117basic_string_viewIcNS2_11char_traitsIcEEEEE18DescribeNegationToEPNS2_13basic_ostreamIcS5_EE
FN:287,_ZN7testing8internal11MatcherBaseIRKNSt3__112basic_stringIcNS2_11char_traitsIcEENS2_9allocatorIcEEEEEC2Ev
FNDA:0,_ZN7testing8internal11MatcherBaseIRKNSt3__112basic_stringIcNS2_11char_traitsIcEENS2_9allocatorIcEEEEEC2Ev
FN:287,_ZN7testing8internal11MatcherBaseINSt3__112basic_stringIcNS2_11char_traitsIcEENS2_9allocatorIcEEEEEC2Ev
FNDA:0,_ZN7testing8internal11MatcherBaseINSt3__112basic_stringIcNS2_11char_traitsIcEENS2_9allocatorIcEEEEEC2Ev
FN:287,_ZN7testing8internal11MatcherBaseIRKNSt3__117basic_string_viewIcNS2_11char_traitsIcEEEEEC2Ev
FNDA:0,_ZN7testing8internal11MatcherBaseIRKNSt3__117basic_string_viewIcNS2_11char_traitsIcEEEEEC2Ev
FN:287,_ZN7testing8internal11MatcherBaseINSt3__117basic_string_viewIcNS2_11char_traitsIcEEEEEC2Ev
FNDA:0,_ZN7testing8internal11MatcherBaseINSt3__117basic_string_viewIcNS2_11char_traitsIcEEEEEC2Ev
FN:297,_ZN7testing8internal11MatcherBaseIRKNSt3__112basic_stringIcNS2_11char_traitsIcEENS2_9allocatorIcEEEEEC2INS0_9EqMatcherIS8_EEvEEOT_
FNDA:0,_ZN7testing8internal11MatcherBaseIRKNSt3__112basic_stringIcNS2_11char_traitsIcEENS2_9allocatorIcEEEEEC2INS0_9EqMatcherIS8_EEvEEOT_
FN:297,_ZN7testing8internal11MatcherBaseINSt3__112basic_stringIcNS2_11char_traitsIcEENS2_9allocatorIcEEEEEC2INS0_9EqMatcherIS8_EEvEEOT_
FNDA:0,_ZN7testing8internal11MatcherBaseINSt3__112basic_stringIcNS2_11char_traitsIcEENS2_9allocatorIcEEEEEC2INS0_9EqMatcherIS8_EEvEEOT_
FN:297,_ZN7testing8internal11MatcherBaseIRKNSt3__117basic_string_viewIcNS2_11char_traitsIcEEEEEC2INS0_9EqMatcherINS2_12basic_stringIcS5_NS2_9allocatorIcEEEEEEvEEOT_
FNDA:0,_ZN7testing8internal11MatcherBaseIRKNSt3__117basic_string_viewIcNS2_11char_traitsIcEEEEEC2INS0_9EqMatcherINS2_12basic_stringIcS5_NS2_9allocatorIcEEEEEEvEEOT_
FN:297,_ZN7testing8internal11MatcherBaseINSt3__117basic_string_viewIcNS2_11char_traitsIcEEEEEC2INS0_9EqMatcherINS2_12basic_stringIcS5_NS2_9allocatorIcEEEEEEvEEOT_
FNDA:0,_ZN7testing8internal11MatcherBaseINSt3__117basic_string_viewIcNS2_11char_traitsIcEEEEEC2INS0_9EqMatcherINS2_12basic_stringIcS5_NS2_9allocatorIcEEEEEEvEEOT_
FN:315,_ZN7testing8internal11MatcherBaseIRKNSt3__112basic_stringIcNS2_11char_traitsIcEENS2_9allocatorIcEEEEEC2EOSB_
FNDA:0,_ZN7testing8internal11MatcherBaseIRKNSt3__112basic_stringIcNS2_11char_traitsIcEENS2_9allocatorIcEEEEEC2EOSB_
FN:320,_ZN7testing8internal11MatcherBaseIRKNSt3__112basic_stringIcNS2_11char_traitsIcEENS2_9allocatorIcEEEEEaSEOSB_
FNDA:0,_ZN7testing8internal11MatcherBaseIRKNSt3__112basic_stringIcNS2_11char_traitsIcEENS2_9allocatorIcEEEEEaSEOSB_
FN:320,_ZN7testing8internal11MatcherBaseINSt3__112basic_stringIcNS2_11char_traitsIcEENS2_9allocatorIcEEEEEaSEOS9_
FNDA:0,_ZN7testing8internal11MatcherBaseINSt3__112basic_stringIcNS2_11char_traitsIcEENS2_9allocatorIcEEEEEaSEOS9_
FN:320,_ZN7testing8internal11MatcherBaseIRKNSt3__117basic_string_viewIcNS2_11char_traitsIcEEEEEaSEOS9_
FNDA:0,_ZN7testing8internal11MatcherBaseIRKNSt3__117basic_string_viewIcNS2_11char_traitsIcEEEEEaSEOS9_
FN:320,_ZN7testing8internal11MatcherBaseINSt3__117basic_string_viewIcNS2_11char_traitsIcEEEEEaSEOS7_
FNDA:0,_ZN7testing8internal11MatcherBaseINSt3__117basic_string_viewIcNS2_11char_traitsIcEEEEEaSEOS7_
FN:329,_ZN7testing8internal11MatcherBaseIRKNSt3__112basic_stringIcNS2_11char_traitsIcEENS2_9allocatorIcEEEEED2Ev
FNDA:0,_ZN7testing8internal11MatcherBaseIRKNSt3__112basic_stringIcNS2_11char_traitsIcEENS2_9allocatorIcEEEEED2Ev
FN:329,_ZN7testing8internal11MatcherBaseINSt3__112basic_stringIcNS2_11char_traitsIcEENS2_9allocatorIcEEEEED2Ev
FNDA:0,_ZN7testing8internal11MatcherBaseINSt3__112basic_stringIcNS2_11char_traitsIcEENS2_9allocatorIcEEEEED2Ev
FN:329,_ZN7testing8internal11MatcherBaseIRKNSt3__117basic_string_viewIcNS2_11char_traitsIcEEEEED2Ev
FNDA:0,_ZN7testing8internal11MatcherBaseIRKNSt3__117basic_string_viewIcNS2_11char_traitsIcEEEEED2Ev
FN:329,_ZN7testing8internal11MatcherBaseINSt3__117basic_string_viewIcNS2_11char_traitsIcEEEEED2Ev
FNDA:0,_ZN7testing8internal11MatcherBaseINSt3__117basic_string_viewIcNS2_11char_traitsIcEEEEED2Ev
FN:329,_ZN7testing8internal11MatcherBaseIRKNSt3__112basic_stringIcNS2_11char_traitsIcEENS2_9allocatorIcEEEEED1Ev
FNDA:0,_ZN7testing8internal11MatcherBaseIRKNSt3__112basic_stringIcNS2_11char_traitsIcEENS2_9allocatorIcEEEEED1Ev
FN:329,_ZN7testing8internal11MatcherBaseIRKNSt3__112basic_stringIcNS2_11char_traitsIcEENS2_9allocatorIcEEEEED0Ev
FNDA:0,_ZN7testing8internal11MatcherBaseIRKNSt3__112basic_stringIcNS2_11char_traitsIcEENS2_9allocatorIcEEEEED0Ev
FN:329,_ZN7testing8internal11MatcherBaseINSt3__112basic_stringIcNS2_11char_traitsIcEENS2_9allocatorIcEEEEED1Ev
FNDA:0,_ZN7testing8internal11MatcherBaseINSt3__112basic_stringIcNS2_11char_traitsIcEENS2_9allocatorIcEEEEED1Ev
FN:329,_ZN7testing8internal11MatcherBaseINSt3__112basic_stringIcNS2_11char_traitsIcEENS2_9allocatorIcEEEEED0Ev
FNDA:0,_ZN7testing8internal11MatcherBaseINSt3__112basic_stringIcNS2_11char_traitsIcEENS2_9allocatorIcEEEEED0Ev
FN:329,_ZN7testing8internal11MatcherBaseIRKNSt3__117basic_string_viewIcNS2_11char_traitsIcEEEEED1Ev
FNDA:0,_ZN7testing8internal11MatcherBaseIRKNSt3__117basic_string_viewIcNS2_11char_traitsIcEEEEED1Ev
FN:329,_ZN7testing8internal11MatcherBaseIRKNSt3__117basic_string_viewIcNS2_11char_traitsIcEEEEED0Ev
FNDA:0,_ZN7testing8internal11MatcherBaseIRKNSt3__117basic_string_viewIcNS2_11char_traitsIcEEEEED0Ev
FN:329,_ZN7testing8internal11MatcherBaseINSt3__117basic_string_viewIcNS2_11char_traitsIcEEEEED1Ev
FNDA:0,_ZN7testing8internal11MatcherBaseINSt3__117basic_string_viewIcNS2_11char_traitsIcEEEEED1Ev
FN:329,_ZN7testing8internal11MatcherBaseINSt3__117basic_string_viewIcNS2_11char_traitsIcEEEEED0Ev
FNDA:0,_ZN7testing8internal11MatcherBaseINSt3__117basic_string_viewIcNS2_11char_traitsIcEEEEED0Ev
FN:343,_ZNK7testing8internal11MatcherBaseIRKNSt3__112basic_stringIcNS2_11char_traitsIcEENS2_9allocatorIcEEEEE8IsSharedEv
FNDA:0,_ZNK7testing8internal11MatcherBaseIRKNSt3__112basic_stringIcNS2_11char_traitsIcEENS2_9allocatorIcEEEEE8IsSharedEv
FN:343,_ZNK7testing8internal11MatcherBaseINSt3__112basic_stringIcNS2_11char_traitsIcEENS2_9allocatorIcEEEEE8IsSharedEv
FNDA:0,_ZNK7testing8internal11MatcherBaseINSt3__112basic_stringIcNS2_11char_traitsIcEENS2_9allocatorIcEEEEE8IsSharedEv
FN:343,_ZNK7testing8internal11MatcherBaseIRKNSt3__117basic_string_viewIcNS2_11char_traitsIcEEEEE8IsSharedEv
FNDA:0,_ZNK7testing8internal11MatcherBaseIRKNSt3__117basic_string_viewIcNS2_11char_traitsIcEEEEE8IsSharedEv
FN:343,_ZNK7testing8internal11MatcherBaseINSt3__117basic_string_viewIcNS2_11char_traitsIcEEEEE8IsSharedEv
FNDA:0,_ZNK7testing8internal11MatcherBaseINSt3__117basic_string_viewIcNS2_11char_traitsIcEEEEE8IsSharedEv
FN:349,_ZN7testing8internal11MatcherBaseIRKNSt3__112basic_stringIcNS2_11char_traitsIcEENS2_9allocatorIcEEEEE19MatchAndExplainImplINSB_11ValuePolicyINS0_9EqMatcherIS8_EELb0EEEEEDTcldtclsrT_3Getfp_E15MatchAndExplainfp0_clptfp1_6streamEEERKSB_SA_PNS_19MatchResultListenerE
FNDA:0,_ZN7testing8internal11MatcherBaseIRKNSt3__112basic_stringIcNS2_11char_traitsIcEENS2_9allocatorIcEEEEE19MatchAndExplainImplINSB_11ValuePolicyINS0_9EqMatcherIS8_EELb0EEEEEDTcldtclsrT_3Getfp_E15MatchAndExplainfp0_clptfp1_6streamEEERKSB_SA_PNS_19MatchResultListenerE
FN:349,_ZN7testing8internal11MatcherBaseINSt3__112basic_stringIcNS2_11char_traitsIcEENS2_9allocatorIcEEEEE19MatchAndExplainImplINS9_11ValuePolicyINS0_9EqMatcherIS8_EELb0EEEEEDTcldtclsrT_3Getfp_E15MatchAndExplainfp0_clptfp1_6streamEEERKS9_RKS8_PNS_19MatchResultListenerE
FNDA:0,_ZN7testing8internal11MatcherBaseINSt3__112basic_stringIcNS2_11char_traitsIcEENS2_9allocatorIcEEEEE19MatchAndExplainImplINS9_11ValuePolicyINS0_9EqMatcherIS8_EELb0EEEEEDTcldtclsrT_3Getfp_E15MatchAndExplainfp0_clptfp1_6streamEEERKS9_RKS8_PNS_19MatchResultListenerE
FN:349,_ZN7testing8internal11MatcherBaseIRKNSt3__117basic_string_viewIcNS2_11char_traitsIcEEEEE19MatchAndExplainImplINS9_11ValuePolicyINS0_9EqMatcherINS2_12basic_stringIcS5_NS2_9allocatorIcEEEEEELb0EEEEEDTcldtclsrT_3Getfp_E15MatchAndExplainfp0_clptfp1_6streamEEERKS9_S8_PNS_19MatchResultListenerE
FNDA:0,_ZN7testing8internal11MatcherBaseIRKNSt3__117basic_string_viewIcNS2_11char_traitsIcEEEEE19MatchAndExplainImplINS9_11ValuePolicyINS0_9EqMatcherINS2_12basic_stringIcS5_NS2_9allocatorIcEEEEEELb0EEEEEDTcldtclsrT_3Getfp_E15MatchAndExplainfp0_clptfp1_6streamEEERKS9_S8_PNS_19MatchResultListenerE
FN:349,_ZN7testing8internal11MatcherBaseINSt3__117basic_string_viewIcNS2_11char_traitsIcEEEEE19MatchAndExplainImplINS7_11ValuePolicyINS0_9EqMatcherINS2_12basic_stringIcS5_NS2_9allocatorIcEEEEEELb0EEEEEDTcldtclsrT_3Getfp_E15MatchAndExplainfp0_clptfp1_6streamEEERKS7_RKS6_PNS_19MatchResultListenerE
